 ray

 Timestamp is 5bf2c6b7 (Mon Nov 19 22:20:39 2018)

 Preferred load address is 00400000

 Start         Length     Name                   Class
 0001:00000000 0004ec0dH .text                   CODE
 0001:0004ec0d 00000013H .text$di                CODE
 0001:0004ec20 0003a260H .text$mn                CODE
 0001:00088e80 00003710H .text$x                 CODE
 0001:0008c590 00000130H .text$yc                CODE
 0001:0008c6c0 00000969H .text$yd                CODE
 0002:00000000 00000700H .idata$5                DATA
 0002:00000700 00000004H .00cfg                  DATA
 0002:00000704 00000004H .CRT$XCA                DATA
 0002:00000708 00000004H .CRT$XCAA               DATA
 0002:0000070c 00000004H .CRT$XCL                DATA
 0002:00000710 00000024H .CRT$XCU                DATA
 0002:00000734 00000004H .CRT$XCZ                DATA
 0002:00000738 00000004H .CRT$XIA                DATA
 0002:0000073c 00000004H .CRT$XIAA               DATA
 0002:00000740 00000004H .CRT$XIAC               DATA
 0002:00000744 00000004H .CRT$XIC                DATA
 0002:00000748 00000004H .CRT$XIZ                DATA
 0002:0000074c 00000004H .CRT$XLA                DATA
 0002:00000750 00000004H .CRT$XLZ                DATA
 0002:00000754 00000004H .CRT$XPA                DATA
 0002:00000758 00000004H .CRT$XPZ                DATA
 0002:0000075c 00000004H .CRT$XTA                DATA
 0002:00000760 00000010H .CRT$XTZ                DATA
 0002:00000764 00000000H .gfids$y                DATA
 0002:00000770 00024594H .rdata                  DATA
 0002:00024d04 00000018H .rdata$T                DATA
 0002:00024d1c 00001ad4H .rdata$r                DATA
 0002:000267f0 00000384H .rdata$sxdata           DATA
 0002:00026b74 000003e0H .rdata$zzzdbg           DATA
 0002:00026f54 00000004H .rtc$IAA                DATA
 0002:00026f58 00000004H .rtc$IZZ                DATA
 0002:00026f5c 00000004H .rtc$TAA                DATA
 0002:00026f60 00000004H .rtc$TZZ                DATA
 0002:00026f64 00000004H .tls                    DATA
 0002:00026f68 00000004H .tls$                   DATA
 0002:00026f6c 00000004H .tls$ZZZ                DATA
 0002:00026f70 0000382cH .xdata$x                DATA
 0002:0002a79c 00000000H .edata                  DATA
 0002:0002a79c 000001ccH .idata$2                DATA
 0002:0002a968 00000014H .idata$3                DATA
 0002:0002a97c 00000700H .idata$4                DATA
 0002:0002b07c 000024feH .idata$6                DATA
 0003:00000000 00002c58H .data                   DATA
 0003:00002c58 00000788H .data$r                 DATA
 0003:000033e0 00004450H .bss                    DATA
 0004:00000000 00000060H .rsrc$01                DATA
 0004:00000060 00000180H .rsrc$02                DATA

  Address         Publics by Value              Rva+Base       Lib:Object

 0000:00000000       ___guard_fids_table        00000000     <absolute>
 0000:00000000       ___hybrid_code_map_count   00000000     <absolute>
 0000:00000000       ___guard_longjmp_count     00000000     <absolute>
 0000:00000000       ___guard_iat_count         00000000     <absolute>
 0000:00000000       ___volatile_metadata       00000000     <absolute>
 0000:00000000       ___guard_fids_count        00000000     <absolute>
 0000:00000000       ___guard_longjmp_table     00000000     <absolute>
 0000:00000000       ___dynamic_value_reloc_table 00000000     <absolute>
 0000:00000000       ___hybrid_code_map         00000000     <absolute>
 0000:00000000       ___hybrid_auxiliary_iat    00000000     <absolute>
 0000:00000000       ___guard_iat_table         00000000     <absolute>
 0000:00000000       ___enclave_config          00000000     <absolute>
 0000:0000002c       __tls_array                0000002c     <absolute>
 0000:000000e1       ___safe_se_handler_count   000000e1     <absolute>
 0000:00000100       ___guard_flags             00000100     <absolute>
 0000:00000000       ___ImageBase               00400000     <linker-defined>
 0001:00000000       ?version@Fl@@SANXZ         00401000 f   fltk:Fl.obj
 0001:00000010       ?event_inside@Fl@@SAHHHHH@Z 00401010 f   fltk:Fl.obj
 0001:00000060       ?event_inside@Fl@@SAHPBVFl_Widget@@@Z 00401060 f   fltk:Fl.obj
 0001:000000d0       ?add_check@Fl@@SAXP6AXPAX@Z0@Z 004010d0 f   fltk:Fl.obj
 0001:00000150       ?remove_check@Fl@@SAXP6AXPAX@Z0@Z 00401150 f   fltk:Fl.obj
 0001:000001d0       ?has_check@Fl@@SAHP6AXPAX@Z0@Z 004011d0 f   fltk:Fl.obj
 0001:00000220       ?wait@Fl@@SANN@Z           00401220 f   fltk:Fl.obj
 0001:00000250       ?run@Fl@@SAHXZ             00401250 f   fltk:Fl.obj
 0001:00000280       ?wait@Fl@@SAHXZ            00401280 f   fltk:Fl.obj
 0001:000002c0       ?check@Fl@@SAHXZ           004012c0 f   fltk:Fl.obj
 0001:000002f0       ?ready@Fl@@SAHXZ           004012f0 f   fltk:Fl.obj
 0001:00000300       ?fl_find@@YAPAVFl_Window@@PAUHWND__@@@Z 00401300 f   fltk:Fl.obj
 0001:00000380       ?first_window@Fl@@SAPAVFl_Window@@XZ 00401380 f   fltk:Fl.obj
 0001:000003b0       ?next_window@Fl@@SAPAVFl_Window@@PBV2@@Z 004013b0 f   fltk:Fl.obj
 0001:000003f0       ?first_window@Fl@@SAXPAVFl_Window@@@Z 004013f0 f   fltk:Fl.obj
 0001:00000440       ?redraw@Fl@@SAXXZ          00401440 f   fltk:Fl.obj
 0001:00000470       ?flush@Fl@@SAXXZ           00401470 f   fltk:Fl.obj
 0001:00000540       ?add_handler@Fl@@SAXP6AHH@Z@Z 00401540 f   fltk:Fl.obj
 0001:00000580       ?remove_handler@Fl@@SAXP6AHH@Z@Z 00401580 f   fltk:Fl.obj
 0001:00000600       ?focus@Fl@@SAXPAVFl_Widget@@@Z 00401600 f   fltk:Fl.obj
 0001:000006f0       ?belowmouse@Fl@@SAXPAVFl_Widget@@@Z 004016f0 f   fltk:Fl.obj
 0001:00000780       ?pushed@Fl@@SAXPAVFl_Widget@@@Z 00401780 f   fltk:Fl.obj
 0001:000007a0       ?fl_fix_focus@@YAXXZ       004017a0 f   fltk:Fl.obj
 0001:00000980       ?fl_throw_focus@@YAXPAVFl_Widget@@@Z 00401980 f   fltk:Fl.obj
 0001:00000a50       ?handle@Fl@@SAHHPAVFl_Window@@@Z 00401a50 f   fltk:Fl.obj
 0001:000012b0       ?hide@Fl_Window@@UAEXXZ    004022b0 f   fltk:Fl.obj
 0001:00001570       ??1Fl_Window@@UAE@XZ       00402570 f   fltk:Fl.obj
 0001:000015d0       ?handle@Fl_Window@@UAEHH@Z 004025d0 f   fltk:Fl.obj
 0001:00001700       ?selection_owner@Fl@@SAXPAVFl_Widget@@@Z 00402700 f   fltk:Fl.obj
 0001:00001710       ?selection@Fl@@SAXAAVFl_Widget@@PBDH@Z 00402710 f   fltk:Fl.obj
 0001:00001730       ?paste@Fl@@SAXAAVFl_Widget@@@Z 00402730 f   fltk:Fl.obj
 0001:00001750       ?redraw@Fl_Widget@@QAEXXZ  00402750 f   fltk:Fl.obj
 0001:00001770       ?redraw_label@Fl_Widget@@QAEXXZ 00402770 f   fltk:Fl.obj
 0001:00001a20       ?damage@Fl_Widget@@QAEXE@Z 00402a20 f   fltk:Fl.obj
 0001:00001ae0       ?damage@Fl_Widget@@QAEXEHHHH@Z 00402ae0 f   fltk:Fl.obj
 0001:00001cc0       ?flush@Fl_Window@@MAEXXZ   00402cc0 f   fltk:Fl.obj
 0001:00001d00       ?add_fd@Fl@@SAXHHP6AXHPAX@Z0@Z 00402d00 f   fltk:Fl.obj
 0001:00001e70       ?add_fd@Fl@@SAXHP6AXHPAX@Z0@Z 00402e70 f   fltk:Fl.obj
 0001:00001e90       ?remove_fd@Fl@@SAXHH@Z     00402e90 f   fltk:Fl.obj
 0001:000020d0       ?remove_fd@Fl@@SAXH@Z      004030d0 f   fltk:Fl.obj
 0001:00002100       ?thread_message@Fl@@SAPAXXZ 00403100 f   fltk:Fl.obj
 0001:00002120       ?fl_wait@@YAHN@Z           00403120 f   fltk:Fl.obj
 0001:000024f0       ?fl_ready@@YAHXZ           004034f0 f   fltk:Fl.obj
 0001:000025a0       ?x@Fl@@SAHXZ               004035a0 f   fltk:Fl.obj
 0001:000025e0       ?y@Fl@@SAHXZ               004035e0 f   fltk:Fl.obj
 0001:00002620       ?h@Fl@@SAHXZ               00403620 f   fltk:Fl.obj
 0001:00002660       ?w@Fl@@SAHXZ               00403660 f   fltk:Fl.obj
 0001:000026a0       ?get_mouse@Fl@@SAXAAH0@Z   004036a0 f   fltk:Fl.obj
 0001:000026d0       ?copy@Fl@@SAXPBDHH@Z       004036d0 f   fltk:Fl.obj
 0001:00002850       ?paste@Fl@@SAXAAVFl_Widget@@H@Z 00403850 f   fltk:Fl.obj
 0001:00002a20       ?fake_X_wm@Fl_X@@SAHPBVFl_Window@@AAH1111@Z 00403a20 f   fltk:Fl.obj
 0001:00002e90       ?resize@Fl_Window@@UAEXHHHH@Z 00403e90 f   fltk:Fl.obj
 0001:00003100       ?make@Fl_X@@SAPAV1@PAVFl_Window@@@Z 00404100 f   fltk:Fl.obj
 0001:00004b90       ?add_timeout@Fl@@SAXNP6AXPAX@Z0@Z 00405b90 f   fltk:Fl.obj
 0001:00004bb0       ?repeat_timeout@Fl@@SAXNP6AXPAX@Z0@Z 00405bb0 f   fltk:Fl.obj
 0001:00004f00       ?has_timeout@Fl@@SAHP6AXPAX@Z0@Z 00405f00 f   fltk:Fl.obj
 0001:00004f60       ?remove_timeout@Fl@@SAXP6AXPAX@Z0@Z 00405f60 f   fltk:Fl.obj
 0001:00004fd0       ?size_range_@Fl_Window@@AAEXXZ 00405fd0 f   fltk:Fl.obj
 0001:00004ff0       ?set_minmax@Fl_X@@QAEXPAUtagMINMAXINFO@@@Z 00405ff0 f   fltk:Fl.obj
 0001:000050d0       ?fl_filename_name@@YAPBDPBD@Z 004060d0 f   fltk:Fl.obj
 0001:00005150       ?label@Fl_Window@@QAEXPBD0@Z 00406150 f   fltk:Fl.obj
 0001:000051c0       ?show@Fl_Window@@UAEXXZ    004061c0 f   fltk:Fl.obj
 0001:00005270       ?fl_GetDC@@YAPAUHDC__@@PAUHWND__@@@Z 00406270 f   fltk:Fl.obj
 0001:00005310       ?make_current@Fl_Window@@QAEXXZ 00406310 f   fltk:Fl.obj
 0001:00005370       ?fl_free_fonts@@YAXXZ      00406370 f   fltk:Fl.obj
 0001:00005420       ?fl_save_dc@@YAXPAUHWND__@@PAUHDC__@@@Z 00406420 f   fltk:Fl.obj
 0001:00005490       ?fl_release_dc@@YAXPAUHWND__@@PAUHDC__@@@Z 00406490 f   fltk:Fl.obj
 0001:00005530       ?fl_cleanup_dc_list@@YAXXZ 00406530 f   fltk:Fl.obj
 0001:000055a0       ?delete_widget@Fl@@SAXPAVFl_Widget@@@Z 004065a0 f   fltk:Fl.obj
 0001:00005660       ?do_widget_deletion@Fl@@SAXXZ 00406660 f   fltk:Fl.obj
 0001:000056e0       ?watch_widget_pointer@Fl@@SAXAAPAVFl_Widget@@@Z 004066e0 f   fltk:Fl.obj
 0001:000057c0       ?release_widget_pointer@Fl@@SAXAAPAVFl_Widget@@@Z 004067c0 f   fltk:Fl.obj
 0001:00005820       ?clear_widget_pointer@Fl@@SAXPBVFl_Widget@@@Z 00406820 f   fltk:Fl.obj
 0001:00005890       ??_EFl_Window@@UAEPAXI@Z   00406890 f i fltk:Fl.obj
 0001:00005890       ??_GFl_Window@@UAEPAXI@Z   00406890 f i fltk:Fl.obj
 0001:000058c0       ??0Lf2CrlfConvert@@QAE@PBDH@Z 004068c0 f i fltk:Fl.obj
 0001:00005a70       ??1Lf2CrlfConvert@@QAE@XZ  00406a70 f i fltk:Fl.obj
 0001:00005aa0       ?add_name@NameList@@QAEXPBD@Z 00406aa0 f i fltk:Fl.obj
 0001:00005b20       ??1NameList@@QAE@XZ        00406b20 f i fltk:Fl.obj
 0001:00005b80       ?_Fl_Window@Fl_Window@@AAEXXZ 00406b80 f   fltk:Fl_Window.obj
 0001:00005c40       ??0Fl_Window@@QAE@HHHHPBD@Z 00406c40 f   fltk:Fl_Window.obj
 0001:00005cf0       ??0Fl_Window@@QAE@HHPBD@Z  00406cf0 f   fltk:Fl_Window.obj
 0001:00005da0       ?window@Fl_Widget@@QBEPAVFl_Window@@XZ 00406da0 f   fltk:Fl_Window.obj
 0001:00005df0       ?x_root@Fl_Window@@QBEHXZ  00406df0 f   fltk:Fl_Window.obj
 0001:00005e30       ?y_root@Fl_Window@@QBEHXZ  00406e30 f   fltk:Fl_Window.obj
 0001:00005e70       ?draw@Fl_Window@@MAEXXZ    00406e70 f   fltk:Fl_Window.obj
 0001:00005f20       ?label@Fl_Window@@QAEXPBD@Z 00406f20 f   fltk:Fl_Window.obj
 0001:00005f50       ?copy_label@Fl_Window@@QAEXPBD@Z 00406f50 f   fltk:Fl_Window.obj
 0001:00005fe0       ?iconlabel@Fl_Window@@QAEXPBD@Z 00406fe0 f   fltk:Fl_Window.obj
 0001:00006030       ?default_atclose@Fl@@SAXPAVFl_Window@@PAX@Z 00407030 f   fltk:Fl_Window.obj
 0001:00006060       ?default_callback@Fl_Window@@SAXPAV1@PAX@Z 00407060 f   fltk:Fl_Window.obj
 0001:00006080       ?current@Fl_Window@@SAPAV1@XZ 00407080 f   fltk:Fl_Window.obj
 0001:00006090       ?default_callback@Fl_Widget@@SAXPAV1@PAX@Z 00407090 f   fltk:Fl_Widget.obj
 0001:00006100       ?readqueue@Fl@@SAPAVFl_Widget@@XZ 00407100 f   fltk:Fl_Widget.obj
 0001:00006150       ?handle@Fl_Widget@@UAEHH@Z 00407150 f   fltk:Fl_Widget.obj
 0001:00006160       ??0Fl_Widget@@IAE@HHHHPBD@Z 00407160 f   fltk:Fl_Widget.obj
 0001:00006270       ?resize@Fl_Widget@@UAEXHHHH@Z 00407270 f   fltk:Fl_Widget.obj
 0001:000062b0       ?damage_resize@Fl_Widget@@QAEHHHHH@Z 004072b0 f   fltk:Fl_Widget.obj
 0001:00006320       ?take_focus@Fl_Widget@@QAEHXZ 00407320 f   fltk:Fl_Widget.obj
 0001:000063a0       ??1Fl_Widget@@UAE@XZ       004073a0 f   fltk:Fl_Widget.obj
 0001:000064d0       ?draw_focus@Fl_Widget@@IBEXW4Fl_Boxtype@@HHHH@Z 004074d0 f   fltk:Fl_Widget.obj
 0001:000066b0       ?activate@Fl_Widget@@QAEXXZ 004076b0 f   fltk:Fl_Widget.obj
 0001:00006750       ?deactivate@Fl_Widget@@QAEXXZ 00407750 f   fltk:Fl_Widget.obj
 0001:000067c0       ?active_r@Fl_Widget@@QBEHXZ 004077c0 f   fltk:Fl_Widget.obj
 0001:00006810       ?show@Fl_Widget@@QAEXXZ    00407810 f   fltk:Fl_Widget.obj
 0001:000068b0       ?hide@Fl_Widget@@QAEXXZ    004078b0 f   fltk:Fl_Widget.obj
 0001:00006950       ?visible_r@Fl_Widget@@QBEHXZ 00407950 f   fltk:Fl_Widget.obj
 0001:000069a0       ?contains@Fl_Widget@@QBEHPBV1@@Z 004079a0 f   fltk:Fl_Widget.obj
 0001:000069e0       ?label@Fl_Widget@@QAEXPBD@Z 004079e0 f   fltk:Fl_Widget.obj
 0001:00006a50       ?copy_label@Fl_Widget@@QAEXPBD@Z 00407a50 f   fltk:Fl_Widget.obj
 0001:00006ae0       ??_EFl_Widget@@UAEPAXI@Z   00407ae0 f i fltk:Fl_Widget.obj
 0001:00006ae0       ??_GFl_Widget@@UAEPAXI@Z   00407ae0 f i fltk:Fl_Widget.obj
 0001:00006b10       ?array@Fl_Group@@QBEPBQAVFl_Widget@@XZ 00407b10 f   fltk:Fl_Group.obj
 0001:00006b40       ?find@Fl_Group@@QBEHPBVFl_Widget@@@Z 00407b40 f   fltk:Fl_Group.obj
 0001:00006ba0       ?begin@Fl_Group@@QAEXXZ    00407ba0 f   fltk:Fl_Group.obj
 0001:00006bc0       ?end@Fl_Group@@QAEXXZ      00407bc0 f   fltk:Fl_Group.obj
 0001:00006be0       ?current@Fl_Group@@SAPAV1@XZ 00407be0 f   fltk:Fl_Group.obj
 0001:00006bf0       ?current@Fl_Group@@SAXPAV1@@Z 00407bf0 f   fltk:Fl_Group.obj
 0001:00006c00       ?handle@Fl_Group@@UAEHH@Z  00407c00 f   fltk:Fl_Group.obj
 0001:00007590       ?navigation@Fl_Group@@AAEHH@Z 00408590 f   fltk:Fl_Group.obj
 0001:00007750       ??0Fl_Group@@QAE@HHHHPBD@Z 00408750 f   fltk:Fl_Group.obj
 0001:00007800       ?clear@Fl_Group@@QAEXXZ    00408800 f   fltk:Fl_Group.obj
 0001:000078d0       ??1Fl_Group@@UAE@XZ        004088d0 f   fltk:Fl_Group.obj
 0001:00007930       ?insert@Fl_Group@@QAEXAAVFl_Widget@@H@Z 00408930 f   fltk:Fl_Group.obj
 0001:00007ab0       ?add@Fl_Group@@QAEXAAVFl_Widget@@@Z 00408ab0 f   fltk:Fl_Group.obj
 0001:00007ad0       ?remove@Fl_Group@@QAEXAAVFl_Widget@@@Z 00408ad0 f   fltk:Fl_Group.obj
 0001:00007bc0       ?init_sizes@Fl_Group@@QAEXXZ 00408bc0 f   fltk:Fl_Group.obj
 0001:00007bf0       ?sizes@Fl_Group@@IAEPAFXZ  00408bf0 f   fltk:Fl_Group.obj
 0001:00007e50       ?resize@Fl_Group@@UAEXHHHH@Z 00408e50 f   fltk:Fl_Group.obj
 0001:00008220       ?draw_children@Fl_Group@@IAEXXZ 00409220 f   fltk:Fl_Group.obj
 0001:000083b0       ?draw@Fl_Group@@MAEXXZ     004093b0 f   fltk:Fl_Group.obj
 0001:000083f0       ?update_child@Fl_Group@@IBEXAAVFl_Widget@@@Z 004093f0 f   fltk:Fl_Group.obj
 0001:00008490       ?draw_child@Fl_Group@@IBEXAAVFl_Widget@@@Z 00409490 f   fltk:Fl_Group.obj
 0001:00008530       ?draw_outside_label@Fl_Group@@IBEXABVFl_Widget@@@Z 00409530 f   fltk:Fl_Group.obj
 0001:00008690       ??_GFl_Group@@UAEPAXI@Z    00409690 f i fltk:Fl_Group.obj
 0001:00008690       ??_EFl_Group@@UAEPAXI@Z    00409690 f i fltk:Fl_Group.obj
 0001:000086c0       ?item_pathname@Fl_Menu_@@QBEHPADHPBUFl_Menu_Item@@@Z 004096c0 f   fltk:Fl_Menu_.obj
 0001:000088f0       ?find_item@Fl_Menu_@@QAEPBUFl_Menu_Item@@PBD@Z 004098f0 f   fltk:Fl_Menu_.obj
 0001:00008ae0       ?value@Fl_Menu_@@QAEHPBUFl_Menu_Item@@@Z 00409ae0 f   fltk:Fl_Menu_.obj
 0001:00008b20       ?picked@Fl_Menu_@@QAEPBUFl_Menu_Item@@PBU2@@Z 00409b20 f   fltk:Fl_Menu_.obj
 0001:00008c70       ?setonly@Fl_Menu_Item@@QAEXXZ 00409c70 f   fltk:Fl_Menu_.obj
 0001:00008d20       ??0Fl_Menu_@@QAE@HHHHPBD@Z 00409d20 f   fltk:Fl_Menu_.obj
 0001:00008dd0       ?size@Fl_Menu_@@QBEHXZ     00409dd0 f   fltk:Fl_Menu_.obj
 0001:00008e00       ?menu@Fl_Menu_@@QAEXPBUFl_Menu_Item@@@Z 00409e00 f   fltk:Fl_Menu_.obj
 0001:00008e30       ?copy@Fl_Menu_@@QAEXPBUFl_Menu_Item@@PAX@Z 00409e30 f   fltk:Fl_Menu_.obj
 0001:00008ed0       ??1Fl_Menu_@@UAE@XZ        00409ed0 f   fltk:Fl_Menu_.obj
 0001:00008f30       ?clear@Fl_Menu_@@QAEXXZ    00409f30 f   fltk:Fl_Menu_.obj
 0001:00008ff0       ??_EFl_Menu_@@UAEPAXI@Z    00409ff0 f i fltk:Fl_Menu_.obj
 0001:00008ff0       ??_GFl_Menu_@@UAEPAXI@Z    00409ff0 f i fltk:Fl_Menu_.obj
 0001:00009020       ?draw@Fl_Menu_Bar@@MAEXXZ  0040a020 f   fltk:Fl_Menu_Bar.obj
 0001:00009190       ?handle@Fl_Menu_Bar@@UAEHH@Z 0040a190 f   fltk:Fl_Menu_Bar.obj
 0001:000092f0       ?resizeform@@YAXXZ         0040a2f0 f   fltk:fl_ask.obj
 0001:00009650       ?fl_beep@@YAXH@Z           0040a650 f   fltk:fl_ask.obj
 0001:000096c0       ?fl_message@@YAXPBDZZ      0040a6c0 f   fltk:fl_ask.obj
 0001:00009ed0       ?fl_alert@@YAXPBDZZ        0040aed0 f   fltk:fl_ask.obj
 0001:00009f30       ?fl_ask@@YAHPBDZZ          0040af30 f   fltk:fl_ask.obj
 0001:00009f90       ?fl_choice@@YAHPBD000ZZ    0040af90 f   fltk:fl_ask.obj
 0001:00009ff0       ?fl_message_icon@@YAPAVFl_Widget@@XZ 0040aff0 f   fltk:fl_ask.obj
 0001:0000a000       ?fl_input@@YAPBDPBD0ZZ     0040b000 f   fltk:fl_ask.obj
 0001:0000a140       ?fl_password@@YAPBDPBD0ZZ  0040b140 f   fltk:fl_ask.obj
 0001:0000a190       ??_GFl_Box@@UAEPAXI@Z      0040b190 f i fltk:fl_ask.obj
 0001:0000a190       ??_EFl_Box@@UAEPAXI@Z      0040b190 f i fltk:fl_ask.obj
 0001:0000a1c0       ??_EFl_Return_Button@@UAEPAXI@Z 0040b1c0 f i fltk:fl_ask.obj
 0001:0000a1c0       ??_GFl_Return_Button@@UAEPAXI@Z 0040b1c0 f i fltk:fl_ask.obj
 0001:0000a1f0       ?visual@Fl@@SAHH@Z         0040b1f0 f   fltk:Fl_visual.obj
 0001:0000a250       ??0Fl_Valuator@@IAE@HHHHPBD@Z 0040b250 f   fltk:Fl_Valuator.obj
 0001:0000a2d0       ?step@Fl_Valuator@@QAEXN@Z 0040b2d0 f   fltk:Fl_Valuator.obj
 0001:0000a390       ?precision@Fl_Valuator@@QAEXH@Z 0040b390 f   fltk:Fl_Valuator.obj
 0001:0000a3d0       ?value_damage@Fl_Valuator@@MAEXXZ 0040b3d0 f   fltk:Fl_Valuator.obj
 0001:0000a3f0       ?value@Fl_Valuator@@QAEHN@Z 0040b3f0 f   fltk:Fl_Valuator.obj
 0001:0000a440       ?softclamp@Fl_Valuator@@IAENN@Z 0040b440 f   fltk:Fl_Valuator.obj
 0001:0000a560       ?handle_drag@Fl_Valuator@@IAEXN@Z 0040b560 f   fltk:Fl_Valuator.obj
 0001:0000a5f0       ?handle_release@Fl_Valuator@@IAEXXZ 0040b5f0 f   fltk:Fl_Valuator.obj
 0001:0000a670       ?round@Fl_Valuator@@QAENN@Z 0040b670 f   fltk:Fl_Valuator.obj
 0001:0000a6e0       ?clamp@Fl_Valuator@@QAENN@Z 0040b6e0 f   fltk:Fl_Valuator.obj
 0001:0000a7a0       ?increment@Fl_Valuator@@QAENNH@Z 0040b7a0 f   fltk:Fl_Valuator.obj
 0001:0000a840       ?format@Fl_Valuator@@UAEHPAD@Z 0040b840 f   fltk:Fl_Valuator.obj
 0001:0000a970       ??_GFl_Valuator@@UAEPAXI@Z 0040b970 f i fltk:Fl_Valuator.obj
 0001:0000a970       ??_EFl_Valuator@@UAEPAXI@Z 0040b970 f i fltk:Fl_Valuator.obj
 0001:0000a9a0       ??0Fl_Value_Slider@@QAE@HHHHPBD@Z 0040b9a0 f   fltk:Fl_Value_Slider.obj
 0001:0000aa10       ?draw@Fl_Value_Slider@@UAEXXZ 0040ba10 f   fltk:Fl_Value_Slider.obj
 0001:0000ad30       ?handle@Fl_Value_Slider@@UAEHH@Z 0040bd30 f   fltk:Fl_Value_Slider.obj
 0001:0000ae40       ??_GFl_Value_Slider@@UAEPAXI@Z 0040be40 f i fltk:Fl_Value_Slider.obj
 0001:0000ae40       ??_EFl_Value_Slider@@UAEPAXI@Z 0040be40 f i fltk:Fl_Value_Slider.obj
 0001:0000ae70       ?value@Fl_Button@@QAEHH@Z  0040be70 f   fltk:Fl_Button.obj
 0001:0000aef0       ?setonly@Fl_Button@@QAEXXZ 0040bef0 f   fltk:Fl_Button.obj
 0001:0000af70       ?draw@Fl_Button@@MAEXXZ    0040bf70 f   fltk:Fl_Button.obj
 0001:0000b0b0       ?handle@Fl_Button@@UAEHH@Z 0040c0b0 f   fltk:Fl_Button.obj
 0001:0000b750       ??0Fl_Button@@QAE@HHHHPBD@Z 0040c750 f   fltk:Fl_Button.obj
 0001:0000b7c0       ?draw_focus@Fl_Widget@@IAEXXZ 0040c7c0 f i fltk:Fl_Button.obj
 0001:0000b820       ??_GFl_Button@@UAEPAXI@Z   0040c820 f i fltk:Fl_Button.obj
 0001:0000b820       ??_EFl_Button@@UAEPAXI@Z   0040c820 f i fltk:Fl_Button.obj
 0001:0000b850       ??0Fl_Check_Button@@QAE@HHHHPBD@Z 0040c850 f   fltk:Fl_Check_Button.obj
 0001:0000b8a0       ??_GFl_Check_Button@@UAEPAXI@Z 0040c8a0 f i fltk:Fl_Check_Button.obj
 0001:0000b8a0       ??_EFl_Check_Button@@UAEPAXI@Z 0040c8a0 f i fltk:Fl_Check_Button.obj
 0001:0000b8d0       ?expand@Fl_Input_@@ABEPBDPBDPAD@Z 0040c8d0 f   fltk:Fl_Input_.obj
 0001:0000bb60       ?expandpos@Fl_Input_@@ABENPBD00PAH@Z 0040cb60 f   fltk:Fl_Input_.obj
 0001:0000bc30       ?minimal_update@Fl_Input_@@AAEXH@Z 0040cc30 f   fltk:Fl_Input_.obj
 0001:0000bca0       ?minimal_update@Fl_Input_@@AAEXHH@Z 0040cca0 f   fltk:Fl_Input_.obj
 0001:0000bcd0       ?setfont@Fl_Input_@@ABEXXZ 0040ccd0 f   fltk:Fl_Input_.obj
 0001:0000bd00       ?drawtext@Fl_Input_@@IAEXHHHH@Z 0040cd00 f   fltk:Fl_Input_.obj
 0001:0000cc90       ?word_end@Fl_Input_@@IBEHH@Z 0040dc90 f   fltk:Fl_Input_.obj
 0001:0000cd60       ?word_start@Fl_Input_@@IBEHH@Z 0040dd60 f   fltk:Fl_Input_.obj
 0001:0000cdc0       ?line_end@Fl_Input_@@IBEHH@Z 0040ddc0 f   fltk:Fl_Input_.obj
 0001:0000cf50       ?line_start@Fl_Input_@@IBEHH@Z 0040df50 f   fltk:Fl_Input_.obj
 0001:0000d090       ?handle_mouse@Fl_Input_@@IAEXHHHHH@Z 0040e090 f   fltk:Fl_Input_.obj
 0001:0000d5b0       ?position@Fl_Input_@@QAEHHH@Z 0040e5b0 f   fltk:Fl_Input_.obj
 0001:0000d6f0       ?up_down_position@Fl_Input_@@IAEHHH@Z 0040e6f0 f   fltk:Fl_Input_.obj
 0001:0000d870       ?copy@Fl_Input_@@QAEHH@Z   0040e870 f   fltk:Fl_Input_.obj
 0001:0000d900       ?replace@Fl_Input_@@QAEHHHPBDH@Z 0040e900 f   fltk:Fl_Input_.obj
 0001:0000de70       ?undo@Fl_Input_@@QAEHXZ    0040ee70 f   fltk:Fl_Input_.obj
 0001:0000e090       ?copy_cuts@Fl_Input_@@QAEHXZ 0040f090 f   fltk:Fl_Input_.obj
 0001:0000e0e0       ?maybe_do_callback@Fl_Input_@@IAEXXZ 0040f0e0 f   fltk:Fl_Input_.obj
 0001:0000e140       ?handletext@Fl_Input_@@IAEHHHHHH@Z 0040f140 f   fltk:Fl_Input_.obj
 0001:0000e780       ??0Fl_Input_@@QAE@HHHHPBD@Z 0040f780 f   fltk:Fl_Input_.obj
 0001:0000e860       ?put_in_buffer@Fl_Input_@@AAEXH@Z 0040f860 f   fltk:Fl_Input_.obj
 0001:0000e9e0       ?static_value@Fl_Input_@@QAEHPBDH@Z 0040f9e0 f   fltk:Fl_Input_.obj
 0001:0000eb70       ?static_value@Fl_Input_@@QAEHPBD@Z 0040fb70 f   fltk:Fl_Input_.obj
 0001:0000ebb0       ?value@Fl_Input_@@QAEHPBDH@Z 0040fbb0 f   fltk:Fl_Input_.obj
 0001:0000ebf0       ?value@Fl_Input_@@QAEHPBD@Z 0040fbf0 f   fltk:Fl_Input_.obj
 0001:0000ec30       ?resize@Fl_Input_@@UAEXHHHH@Z 0040fc30 f   fltk:Fl_Input_.obj
 0001:0000ec90       ??1Fl_Input_@@UAE@XZ       0040fc90 f   fltk:Fl_Input_.obj
 0001:0000ece0       ??_GFl_Input_@@UAEPAXI@Z   0040fce0 f i fltk:Fl_Input_.obj
 0001:0000ece0       ??_EFl_Input_@@UAEPAXI@Z   0040fce0 f i fltk:Fl_Input_.obj
 0001:0000ed20       ?draw@Fl_Input@@UAEXXZ     0040fd20 f   fltk:Fl_Input.obj
 0001:0000ee00       ?shift_position@Fl_Input@@AAEHH@Z 0040fe00 f   fltk:Fl_Input.obj
 0001:0000ee50       ?shift_up_down_position@Fl_Input@@AAEHH@Z 0040fe50 f   fltk:Fl_Input.obj
 0001:0000ee80       ?handle_key@Fl_Input@@AAEHXZ 0040fe80 f   fltk:Fl_Input.obj
 0001:0000fe90       ?handle@Fl_Input@@UAEHH@Z  00410e90 f   fltk:Fl_Input.obj
 0001:000106c0       ??0Fl_Input@@QAE@HHHHPBD@Z 004116c0 f   fltk:Fl_Input.obj
 0001:00010700       ??_GFl_Input@@UAEPAXI@Z    00411700 f i fltk:Fl_Input.obj
 0001:00010700       ??_EFl_Input@@UAEPAXI@Z    00411700 f i fltk:Fl_Input.obj
 0001:00010730       ?cb_window_i@Fl_File_Chooser@@AAEXPAVFl_Double_Window@@PAX@Z 00411730 f   fltk:Fl_File_Chooser.obj
 0001:00010790       ?cb_window@Fl_File_Chooser@@CAXPAVFl_Double_Window@@PAX@Z 00411790 f   fltk:Fl_File_Chooser.obj
 0001:000107c0       ?cb_showChoice_i@Fl_File_Chooser@@AAEXPAVFl_Choice@@PAX@Z 004117c0 f   fltk:Fl_File_Chooser.obj
 0001:000107e0       ?cb_showChoice@Fl_File_Chooser@@CAXPAVFl_Choice@@PAX@Z 004117e0 f   fltk:Fl_File_Chooser.obj
 0001:00010820       ?cb_favoritesButton_i@Fl_File_Chooser@@AAEXPAVFl_Menu_Button@@PAX@Z 00411820 f   fltk:Fl_File_Chooser.obj
 0001:00010840       ?cb_favoritesButton@Fl_File_Chooser@@CAXPAVFl_Menu_Button@@PAX@Z 00411840 f   fltk:Fl_File_Chooser.obj
 0001:00010880       ?cb_newButton_i@Fl_File_Chooser@@AAEXPAVFl_Button@@PAX@Z 00411880 f   fltk:Fl_File_Chooser.obj
 0001:000108a0       ?cb_newButton@Fl_File_Chooser@@CAXPAVFl_Button@@PAX@Z 004118a0 f   fltk:Fl_File_Chooser.obj
 0001:000108e0       ?cb__i@Fl_File_Chooser@@AAEXPAVFl_Tile@@PAX@Z 004118e0 f   fltk:Fl_File_Chooser.obj
 0001:00010900       ?cb_@Fl_File_Chooser@@CAXPAVFl_Tile@@PAX@Z 00411900 f   fltk:Fl_File_Chooser.obj
 0001:00010930       ?cb_fileList_i@Fl_File_Chooser@@AAEXPAVFl_File_Browser@@PAX@Z 00411930 f   fltk:Fl_File_Chooser.obj
 0001:00010950       ?cb_fileList@Fl_File_Chooser@@CAXPAVFl_File_Browser@@PAX@Z 00411950 f   fltk:Fl_File_Chooser.obj
 0001:00010990       ?cb_previewButton_i@Fl_File_Chooser@@AAEXPAVFl_Check_Button@@PAX@Z 00411990 f   fltk:Fl_File_Chooser.obj
 0001:000109c0       ?cb_previewButton@Fl_File_Chooser@@CAXPAVFl_Check_Button@@PAX@Z 004119c0 f   fltk:Fl_File_Chooser.obj
 0001:00010a00       ?cb_fileName_i@Fl_File_Chooser@@AAEXPAVFl_File_Input@@PAX@Z 00411a00 f   fltk:Fl_File_Chooser.obj
 0001:00010a20       ?cb_fileName@Fl_File_Chooser@@CAXPAVFl_File_Input@@PAX@Z 00411a20 f   fltk:Fl_File_Chooser.obj
 0001:00010a60       ?cb_okButton_i@Fl_File_Chooser@@AAEXPAVFl_Return_Button@@PAX@Z 00411a60 f   fltk:Fl_File_Chooser.obj
 0001:00010ab0       ?cb_okButton@Fl_File_Chooser@@CAXPAVFl_Return_Button@@PAX@Z 00411ab0 f   fltk:Fl_File_Chooser.obj
 0001:00010af0       ?cb_cancelButton_i@Fl_File_Chooser@@AAEXPAVFl_Button@@PAX@Z 00411af0 f   fltk:Fl_File_Chooser.obj
 0001:00010b50       ?cb_cancelButton@Fl_File_Chooser@@CAXPAVFl_Button@@PAX@Z 00411b50 f   fltk:Fl_File_Chooser.obj
 0001:00010b90       ?cb_favList_i@Fl_File_Chooser@@AAEXPAVFl_File_Browser@@PAX@Z 00411b90 f   fltk:Fl_File_Chooser.obj
 0001:00010bb0       ?cb_favList@Fl_File_Chooser@@CAXPAVFl_File_Browser@@PAX@Z 00411bb0 f   fltk:Fl_File_Chooser.obj
 0001:00010be0       ?cb_favUpButton_i@Fl_File_Chooser@@AAEXPAVFl_Button@@PAX@Z 00411be0 f   fltk:Fl_File_Chooser.obj
 0001:00010c00       ?cb_favUpButton@Fl_File_Chooser@@CAXPAVFl_Button@@PAX@Z 00411c00 f   fltk:Fl_File_Chooser.obj
 0001:00010c40       ?cb_favDeleteButton_i@Fl_File_Chooser@@AAEXPAVFl_Button@@PAX@Z 00411c40 f   fltk:Fl_File_Chooser.obj
 0001:00010c60       ?cb_favDeleteButton@Fl_File_Chooser@@CAXPAVFl_Button@@PAX@Z 00411c60 f   fltk:Fl_File_Chooser.obj
 0001:00010ca0       ?cb_favDownButton_i@Fl_File_Chooser@@AAEXPAVFl_Button@@PAX@Z 00411ca0 f   fltk:Fl_File_Chooser.obj
 0001:00010cc0       ?cb_favDownButton@Fl_File_Chooser@@CAXPAVFl_Button@@PAX@Z 00411cc0 f   fltk:Fl_File_Chooser.obj
 0001:00010d00       ?cb_favCancelButton_i@Fl_File_Chooser@@AAEXPAVFl_Button@@PAX@Z 00411d00 f   fltk:Fl_File_Chooser.obj
 0001:00010d30       ?cb_favCancelButton@Fl_File_Chooser@@CAXPAVFl_Button@@PAX@Z 00411d30 f   fltk:Fl_File_Chooser.obj
 0001:00010d70       ?cb_favOkButton_i@Fl_File_Chooser@@AAEXPAVFl_Return_Button@@PAX@Z 00411d70 f   fltk:Fl_File_Chooser.obj
 0001:00010d90       ?cb_favOkButton@Fl_File_Chooser@@CAXPAVFl_Return_Button@@PAX@Z 00411d90 f   fltk:Fl_File_Chooser.obj
 0001:00010dd0       ??0Fl_File_Chooser@@QAE@PBD0H0@Z 00411dd0 f   fltk:Fl_File_Chooser.obj
 0001:00012360       ??1Fl_File_Chooser@@QAE@XZ 00413360 f   fltk:Fl_File_Chooser.obj
 0001:000123f0       ?callback@Fl_File_Chooser@@QAEXP6AXPAV1@PAX@Z1@Z 004133f0 f   fltk:Fl_File_Chooser.obj
 0001:00012410       ?color@Fl_File_Chooser@@QAEXW4Fl_Color@@@Z 00413410 f   fltk:Fl_File_Chooser.obj
 0001:00012440       ?color@Fl_File_Chooser@@QAE?AW4Fl_Color@@XZ 00413440 f   fltk:Fl_File_Chooser.obj
 0001:00012460       ?directory@Fl_File_Chooser@@QAEPADXZ 00413460 f   fltk:Fl_File_Chooser.obj
 0001:00012480       ?filter@Fl_File_Chooser@@QAEPBDXZ 00413480 f   fltk:Fl_File_Chooser.obj
 0001:000124b0       ?filter_value@Fl_File_Chooser@@QAEHXZ 004134b0 f   fltk:Fl_File_Chooser.obj
 0001:00012500       ?filter_value@Fl_File_Chooser@@QAEXH@Z 00413500 f   fltk:Fl_File_Chooser.obj
 0001:00012530       ?hide@Fl_File_Chooser@@QAEXXZ 00413530 f   fltk:Fl_File_Chooser.obj
 0001:00012560       ?iconsize@Fl_File_Chooser@@QAEXE@Z 00413560 f   fltk:Fl_File_Chooser.obj
 0001:00012590       ?iconsize@Fl_File_Chooser@@QAEEXZ 00413590 f   fltk:Fl_File_Chooser.obj
 0001:000125c0       ?label@Fl_File_Chooser@@QAEXPBD@Z 004135c0 f   fltk:Fl_File_Chooser.obj
 0001:000125e0       ?label@Fl_File_Chooser@@QAEPBDXZ 004135e0 f   fltk:Fl_File_Chooser.obj
 0001:00012600       ?ok_label@Fl_File_Chooser@@QAEXPBD@Z 00413600 f   fltk:Fl_File_Chooser.obj
 0001:000126b0       ?ok_label@Fl_File_Chooser@@QAEPBDXZ 004136b0 f   fltk:Fl_File_Chooser.obj
 0001:000126d0       ?show@Fl_File_Chooser@@QAEXXZ 004136d0 f   fltk:Fl_File_Chooser.obj
 0001:00012750       ?shown@Fl_File_Chooser@@QAEHXZ 00413750 f   fltk:Fl_File_Chooser.obj
 0001:00012770       ?textcolor@Fl_File_Chooser@@QAEXW4Fl_Color@@@Z 00413770 f   fltk:Fl_File_Chooser.obj
 0001:000127a0       ?textcolor@Fl_File_Chooser@@QAE?AW4Fl_Color@@XZ 004137a0 f   fltk:Fl_File_Chooser.obj
 0001:000127c0       ?textfont@Fl_File_Chooser@@QAEXE@Z 004137c0 f   fltk:Fl_File_Chooser.obj
 0001:000127f0       ?textfont@Fl_File_Chooser@@QAEEXZ 004137f0 f   fltk:Fl_File_Chooser.obj
 0001:00012810       ?textsize@Fl_File_Chooser@@QAEXE@Z 00413810 f   fltk:Fl_File_Chooser.obj
 0001:00012850       ?textsize@Fl_File_Chooser@@QAEEXZ 00413850 f   fltk:Fl_File_Chooser.obj
 0001:00012870       ?type@Fl_File_Chooser@@QAEXH@Z 00413870 f   fltk:Fl_File_Chooser.obj
 0001:00012920       ?type@Fl_File_Chooser@@QAEHXZ 00413920 f   fltk:Fl_File_Chooser.obj
 0001:00012940       ?user_data@Fl_File_Chooser@@QBEPAXXZ 00413940 f   fltk:Fl_File_Chooser.obj
 0001:00012960       ?user_data@Fl_File_Chooser@@QAEXPAX@Z 00413960 f   fltk:Fl_File_Chooser.obj
 0001:00012980       ?visible@Fl_File_Chooser@@QAEHXZ 00413980 f   fltk:Fl_File_Chooser.obj
 0001:000129b0       ??_GFl_Double_Window@@UAEPAXI@Z 004139b0 f i fltk:Fl_File_Chooser.obj
 0001:000129b0       ??_EFl_Double_Window@@UAEPAXI@Z 004139b0 f i fltk:Fl_File_Chooser.obj
 0001:000129e0       ??_EFl_Tile@@UAEPAXI@Z     004139e0 f i fltk:Fl_File_Chooser.obj
 0001:000129e0       ??_GFl_Tile@@UAEPAXI@Z     004139e0 f i fltk:Fl_File_Chooser.obj
 0001:00012a10       ??0Fl_Bitmap@@QAE@PBEHH@Z  00413a10 f i fltk:Fl_File_Chooser.obj
 0001:00012aa0       ??_GFl_Image@@UAEPAXI@Z    00413aa0 f i fltk:Fl_File_Chooser.obj
 0001:00012aa0       ??_EFl_Image@@UAEPAXI@Z    00413aa0 f i fltk:Fl_File_Chooser.obj
 0001:00012ad0       ??_GFl_Bitmap@@UAEPAXI@Z   00413ad0 f i fltk:Fl_File_Chooser.obj
 0001:00012ad0       ??_EFl_Bitmap@@UAEPAXI@Z   00413ad0 f i fltk:Fl_File_Chooser.obj
 0001:00012b00       ?count@Fl_File_Chooser@@QAEHXZ 00413b00 f   fltk:Fl_File_Chooser2.obj
 0001:00012bd0       ?directory@Fl_File_Chooser@@QAEXPBD@Z 00413bd0 f   fltk:Fl_File_Chooser2.obj
 0001:00012e10       ?favoritesButtonCB@Fl_File_Chooser@@AAEXXZ 00413e10 f   fltk:Fl_File_Chooser2.obj
 0001:00013010       ?favoritesCB@Fl_File_Chooser@@AAEXPAVFl_Widget@@@Z 00414010 f   fltk:Fl_File_Chooser2.obj
 0001:000136a0       ?fileListCB@Fl_File_Chooser@@AAEXXZ 004146a0 f   fltk:Fl_File_Chooser2.obj
 0001:00013ac0       ?fileNameCB@Fl_File_Chooser@@AAEXXZ 00414ac0 f   fltk:Fl_File_Chooser2.obj
 0001:00014410       ?filter@Fl_File_Chooser@@QAEXPBD@Z 00415410 f   fltk:Fl_File_Chooser2.obj
 0001:000145e0       ?newdir@Fl_File_Chooser@@AAEXXZ 004155e0 f   fltk:Fl_File_Chooser2.obj
 0001:000146f0       ?preview@Fl_File_Chooser@@QAEXH@Z 004156f0 f   fltk:Fl_File_Chooser2.obj
 0001:00014910       ?previewCB@Fl_File_Chooser@@CAXPAV1@@Z 00415910 f   fltk:Fl_File_Chooser2.obj
 0001:00014920       ?rescan@Fl_File_Chooser@@QAEXXZ 00415920 f   fltk:Fl_File_Chooser2.obj
 0001:00014a20       ?rescan_keep_filename@Fl_File_Chooser@@QAEXXZ 00415a20 f   fltk:Fl_File_Chooser2.obj
 0001:00014c20       ?showChoiceCB@Fl_File_Chooser@@AAEXXZ 00415c20 f   fltk:Fl_File_Chooser2.obj
 0001:00014e50       ?update_favorites@Fl_File_Chooser@@AAEXXZ 00415e50 f   fltk:Fl_File_Chooser2.obj
 0001:00015070       ?update_preview@Fl_File_Chooser@@AAEXXZ 00416070 f   fltk:Fl_File_Chooser2.obj
 0001:00015460       ?value@Fl_File_Chooser@@QAEPBDH@Z 00416460 f   fltk:Fl_File_Chooser2.obj
 0001:00015590       ?value@Fl_File_Chooser@@QAEXPBD@Z 00416590 f   fltk:Fl_File_Chooser2.obj
 0001:000159f0       ?fl_file_chooser_callback@@YAXP6AXPBD@Z@Z 004169f0 f   fltk:fl_file_dir.obj
 0001:00015a00       ?fl_file_chooser_ok_label@@YAXPBD@Z 00416a00 f   fltk:fl_file_dir.obj
 0001:00015a30       ?fl_file_chooser@@YAPADPBD00H@Z 00416a30 f   fltk:fl_file_dir.obj
 0001:00015d70       ?fl_dir_chooser@@YAPADPBD0H@Z 00416d70 f   fltk:fl_file_dir.obj
 0001:00015f10       ??0Fl_Text_Display@@QAE@HHHHPBD@Z 00416f10 f   fltk:Fl_Text_Display.obj
 0001:000163a0       ??1Fl_Text_Display@@UAE@XZ 004173a0 f   fltk:Fl_Text_Display.obj
 0001:00016480       ?buffer@Fl_Text_Display@@QAEXPAVFl_Text_Buffer@@@Z 00417480 f   fltk:Fl_Text_Display.obj
 0001:000165c0       ?highlight_data@Fl_Text_Display@@QAEXPAVFl_Text_Buffer@@PBUStyle_Table_Entry@1@HDP6AXHPAX@Z2@Z 004175c0 f   fltk:Fl_Text_Display.obj
 0001:00016630       ?longest_vline@Fl_Text_Display@@IAEHXZ 00417630 f   fltk:Fl_Text_Display.obj
 0001:00016690       ?resize@Fl_Text_Display@@UAEXHHHH@Z 00417690 f   fltk:Fl_Text_Display.obj
 0001:000170b0       ?draw_text@Fl_Text_Display@@IAEXHHHH@Z 004180b0 f   fltk:Fl_Text_Display.obj
 0001:000171b0       ?redisplay_range@Fl_Text_Display@@QAEXHH@Z 004181b0 f   fltk:Fl_Text_Display.obj
 0001:000172b0       ?draw_range@Fl_Text_Display@@IAEXHH@Z 004182b0 f   fltk:Fl_Text_Display.obj
 0001:000174e0       ?insert_position@Fl_Text_Display@@QAEXH@Z 004184e0 f   fltk:Fl_Text_Display.obj
 0001:00017580       ?show_cursor@Fl_Text_Display@@QAEXH@Z 00418580 f   fltk:Fl_Text_Display.obj
 0001:000175c0       ?cursor_style@Fl_Text_Display@@QAEXH@Z 004185c0 f   fltk:Fl_Text_Display.obj
 0001:000175f0       ?wrap_mode@Fl_Text_Display@@QAEXHH@Z 004185f0 f   fltk:Fl_Text_Display.obj
 0001:00017740       ?insert@Fl_Text_Display@@QAEXPBD@Z 00418740 f   fltk:Fl_Text_Display.obj
 0001:00017790       ?overstrike@Fl_Text_Display@@QAEXPBD@Z 00418790 f   fltk:Fl_Text_Display.obj
 0001:000179d0       ?position_to_xy@Fl_Text_Display@@IAEHHPAH0@Z 004189d0 f   fltk:Fl_Text_Display.obj
 0001:00017bd0       ?position_to_linecol@Fl_Text_Display@@IAEHHPAH0@Z 00418bd0 f   fltk:Fl_Text_Display.obj
 0001:00017cf0       ?in_selection@Fl_Text_Display@@QAEHHH@Z 00418cf0 f   fltk:Fl_Text_Display.obj
 0001:00017d90       ?wrapped_column@Fl_Text_Display@@QAEHHH@Z 00418d90 f   fltk:Fl_Text_Display.obj
 0001:00017e20       ?wrapped_row@Fl_Text_Display@@QAEHH@Z 00418e20 f   fltk:Fl_Text_Display.obj
 0001:00017e90       ?display_insert@Fl_Text_Display@@IAEXXZ 00418e90 f   fltk:Fl_Text_Display.obj
 0001:00018060       ?show_insert_position@Fl_Text_Display@@QAEXXZ 00419060 f   fltk:Fl_Text_Display.obj
 0001:000180c0       ?move_right@Fl_Text_Display@@QAEHXZ 004190c0 f   fltk:Fl_Text_Display.obj
 0001:00018110       ?move_left@Fl_Text_Display@@QAEHXZ 00419110 f   fltk:Fl_Text_Display.obj
 0001:00018140       ?move_up@Fl_Text_Display@@QAEHXZ 00419140 f   fltk:Fl_Text_Display.obj
 0001:00018270       ?move_down@Fl_Text_Display@@QAEHXZ 00419270 f   fltk:Fl_Text_Display.obj
 0001:00018390       ?count_lines@Fl_Text_Display@@QAEHHH_N@Z 00419390 f   fltk:Fl_Text_Display.obj
 0001:00018410       ?skip_lines@Fl_Text_Display@@QAEHHH_N@Z 00419410 f   fltk:Fl_Text_Display.obj
 0001:000184b0       ?line_end@Fl_Text_Display@@QAEHH_N@Z 004194b0 f   fltk:Fl_Text_Display.obj
 0001:00018560       ?line_start@Fl_Text_Display@@QAEHH@Z 00419560 f   fltk:Fl_Text_Display.obj
 0001:000185f0       ?rewind_lines@Fl_Text_Display@@QAEHHH@Z 004195f0 f   fltk:Fl_Text_Display.obj
 0001:000186c0       ?next_word@Fl_Text_Display@@QAEXXZ 004196c0 f   fltk:Fl_Text_Display.obj
 0001:00018800       ?previous_word@Fl_Text_Display@@QAEXXZ 00419800 f   fltk:Fl_Text_Display.obj
 0001:00018990       ?buffer_predelete_cb@Fl_Text_Display@@KAXHHPAX@Z 00419990 f   fltk:Fl_Text_Display.obj
 0001:000189f0       ?buffer_modified_cb@Fl_Text_Display@@KAXHHHHPBDPAX@Z 004199f0 f   fltk:Fl_Text_Display.obj
 0001:00018d90       ?maintain_absolute_top_line_number@Fl_Text_Display@@IAEXH@Z 00419d90 f   fltk:Fl_Text_Display.obj
 0001:00018dc0       ?get_absolute_top_line_number@Fl_Text_Display@@IAEHXZ 00419dc0 f   fltk:Fl_Text_Display.obj
 0001:00018e00       ?absolute_top_line_number@Fl_Text_Display@@IAEXH@Z 00419e00 f   fltk:Fl_Text_Display.obj
 0001:00018ea0       ?maintaining_absolute_top_line_number@Fl_Text_Display@@IAEHXZ 00419ea0 f   fltk:Fl_Text_Display.obj
 0001:00018ef0       ?reset_absolute_top_line_number@Fl_Text_Display@@IAEXXZ 00419ef0 f   fltk:Fl_Text_Display.obj
 0001:00018f20       ?position_to_line@Fl_Text_Display@@IAEHHPAH@Z 00419f20 f   fltk:Fl_Text_Display.obj
 0001:00019070       ?draw_vline@Fl_Text_Display@@IAEXHHHHH@Z 0041a070 f   fltk:Fl_Text_Display.obj
 0001:000198e0       ?draw_string@Fl_Text_Display@@IAEXHHHHPBDH@Z 0041a8e0 f   fltk:Fl_Text_Display.obj
 0001:00019c60       ?clear_rect@Fl_Text_Display@@IAEXHHHHH@Z 0041ac60 f   fltk:Fl_Text_Display.obj
 0001:00019d90       ?draw_cursor@Fl_Text_Display@@IAEXHH@Z 0041ad90 f   fltk:Fl_Text_Display.obj
 0001:0001a100       ?position_style@Fl_Text_Display@@QAEHHHHH@Z 0041b100 f   fltk:Fl_Text_Display.obj
 0001:0001a240       ?string_width@Fl_Text_Display@@IAEHPBDHH@Z 0041b240 f   fltk:Fl_Text_Display.obj
 0001:0001a310       ?xy_to_position@Fl_Text_Display@@IAEHHHH@Z 0041b310 f   fltk:Fl_Text_Display.obj
 0001:0001a4f0       ?xy_to_rowcol@Fl_Text_Display@@IAEXHHPAH0H@Z 0041b4f0 f   fltk:Fl_Text_Display.obj
 0001:0001a5b0       ?offset_line_starts@Fl_Text_Display@@IAEXH@Z 0041b5b0 f   fltk:Fl_Text_Display.obj
 0001:0001a7f0       ?update_line_starts@Fl_Text_Display@@IAEXHHHHHPAH@Z 0041b7f0 f   fltk:Fl_Text_Display.obj
 0001:0001ab80       ?calc_line_starts@Fl_Text_Display@@IAEXHH@Z 0041bb80 f   fltk:Fl_Text_Display.obj
 0001:0001ad00       ?calc_last_char@Fl_Text_Display@@IAEXXZ 0041bd00 f   fltk:Fl_Text_Display.obj
 0001:0001ad80       ?scroll@Fl_Text_Display@@QAEXHH@Z 0041bd80 f   fltk:Fl_Text_Display.obj
 0001:0001adf0       ?scroll_@Fl_Text_Display@@IAEXHH@Z 0041bdf0 f   fltk:Fl_Text_Display.obj
 0001:0001aec0       ?update_v_scrollbar@Fl_Text_Display@@IAEXXZ 0041bec0 f   fltk:Fl_Text_Display.obj
 0001:0001af30       ?update_h_scrollbar@Fl_Text_Display@@IAEXXZ 0041bf30 f   fltk:Fl_Text_Display.obj
 0001:0001afa0       ?v_scrollbar_cb@Fl_Text_Display@@KAXPAVFl_Scrollbar@@PAV1@@Z 0041bfa0 f   fltk:Fl_Text_Display.obj
 0001:0001aff0       ?h_scrollbar_cb@Fl_Text_Display@@KAXPAVFl_Scrollbar@@PAV1@@Z 0041bff0 f   fltk:Fl_Text_Display.obj
 0001:0001b040       ?draw_line_numbers@Fl_Text_Display@@IAEX_N@Z 0041c040 f   fltk:Fl_Text_Display.obj
 0001:0001b100       ?measure_vline@Fl_Text_Display@@IAEHH@Z 0041c100 f   fltk:Fl_Text_Display.obj
 0001:0001b2e0       ?empty_vlines@Fl_Text_Display@@IAEHXZ 0041c2e0 f   fltk:Fl_Text_Display.obj
 0001:0001b330       ?vline_length@Fl_Text_Display@@IAEHH@Z 0041c330 f   fltk:Fl_Text_Display.obj
 0001:0001b3e0       ?find_wrap_range@Fl_Text_Display@@IAEXPBDHHHPAH111@Z 0041c3e0 f   fltk:Fl_Text_Display.obj
 0001:0001b860       ?measure_deleted_lines@Fl_Text_Display@@IAEXHH@Z 0041c860 f   fltk:Fl_Text_Display.obj
 0001:0001b9e0       ?wrapped_line_counter@Fl_Text_Display@@IAEXPAVFl_Text_Buffer@@HHH_NHPAH2221@Z 0041c9e0 f   fltk:Fl_Text_Display.obj
 0001:0001be50       ?measure_proportional_character@Fl_Text_Display@@IAEHDHH@Z 0041ce50 f   fltk:Fl_Text_Display.obj
 0001:0001bf50       ?find_line_end@Fl_Text_Display@@IAEXH_NPAH1@Z 0041cf50 f   fltk:Fl_Text_Display.obj
 0001:0001c010       ?wrap_uses_character@Fl_Text_Display@@IAEHH@Z 0041d010 f   fltk:Fl_Text_Display.obj
 0001:0001c0c0       ?range_touches_selection@Fl_Text_Display@@IAEHPAVFl_Text_Selection@@HH@Z 0041d0c0 f   fltk:Fl_Text_Display.obj
 0001:0001c130       ?extend_range_for_styles@Fl_Text_Display@@IAEXPAH0@Z 0041d130 f   fltk:Fl_Text_Display.obj
 0001:0001c1f0       ?draw@Fl_Text_Display@@MAEXXZ 0041d1f0 f   fltk:Fl_Text_Display.obj
 0001:0001ca50       ?fl_text_drag_me@@YAXHPAVFl_Text_Display@@@Z 0041da50 f   fltk:Fl_Text_Display.obj
 0001:0001cd00       ?scroll_timer_cb@Fl_Text_Display@@KAXPAX@Z 0041dd00 f   fltk:Fl_Text_Display.obj
 0001:0001cea0       ?handle@Fl_Text_Display@@UAEHH@Z 0041dea0 f   fltk:Fl_Text_Display.obj
 0001:0001da60       ??_GFl_Text_Display@@UAEPAXI@Z 0041ea60 f i fltk:Fl_Text_Display.obj
 0001:0001da60       ??_EFl_Text_Display@@UAEPAXI@Z 0041ea60 f i fltk:Fl_Text_Display.obj
 0001:0001da90       ?compose@Fl@@SAHAAH@Z      0041ea90 f   fltk:Fl_compose.obj
 0001:0001dd40       ?layout@Fl_TooltipBox@@QAEXXZ 0041ed40 f   fltk:Fl_Tooltip.obj
 0001:0001dec0       ?draw@Fl_TooltipBox@@UAEXXZ 0041eec0 f   fltk:Fl_Tooltip.obj
 0001:0001df60       ?enter_@Fl_Tooltip@@SAXPAVFl_Widget@@@Z 0041ef60 f   fltk:Fl_Tooltip.obj
 0001:0001dfe0       ?current@Fl_Tooltip@@SAXPAVFl_Widget@@@Z 0041efe0 f   fltk:Fl_Tooltip.obj
 0001:0001e030       ?exit_@Fl_Tooltip@@SAXPAVFl_Widget@@@Z 0041f030 f   fltk:Fl_Tooltip.obj
 0001:0001e230       ?enter_area@Fl_Tooltip@@SAXPAVFl_Widget@@HHHHPBD@Z 0041f230 f   fltk:Fl_Tooltip.obj
 0001:0001e3b0       ?tooltip@Fl_Widget@@QAEXPBD@Z 0041f3b0 f   fltk:Fl_Tooltip.obj
 0001:0001e3f0       ??0Fl_TooltipBox@@QAE@XZ   0041f3f0 f i fltk:Fl_Tooltip.obj
 0001:0001e490       ??_GFl_Single_Window@@UAEPAXI@Z 0041f490 f i fltk:Fl_Tooltip.obj
 0001:0001e490       ??_EFl_Single_Window@@UAEPAXI@Z 0041f490 f i fltk:Fl_Tooltip.obj
 0001:0001e4c0       ??_EFl_Menu_Window@@UAEPAXI@Z 0041f4c0 f i fltk:Fl_Tooltip.obj
 0001:0001e4c0       ??_GFl_Menu_Window@@UAEPAXI@Z 0041f4c0 f i fltk:Fl_Tooltip.obj
 0001:0001e4f0       ?show@Fl_TooltipBox@@UAEXXZ 0041f4f0 f i fltk:Fl_Tooltip.obj
 0001:0001e510       ??_EFl_TooltipBox@@UAEPAXI@Z 0041f510 f i fltk:Fl_Tooltip.obj
 0001:0001e510       ??_GFl_TooltipBox@@UAEPAXI@Z 0041f510 f i fltk:Fl_Tooltip.obj
 0001:0001e540       ?fl_no_label@@YAXPBUFl_Label@@HHHHW4Fl_Align@@@Z 0041f540 f   fltk:fl_labeltype.obj
 0001:0001e550       ?fl_normal_label@@YAXPBUFl_Label@@HHHHW4Fl_Align@@@Z 0041f550 f   fltk:fl_labeltype.obj
 0001:0001e5b0       ?fl_normal_measure@@YAXPBUFl_Label@@AAH1@Z 0041f5b0 f   fltk:fl_labeltype.obj
 0001:0001e640       ?set_labeltype@Fl@@SAXW4Fl_Labeltype@@P6AXPBUFl_Label@@HHHHW4Fl_Align@@@ZP6AX1AAH4@Z@Z 0041f640 f   fltk:fl_labeltype.obj
 0001:0001e660       ?draw@Fl_Label@@QBEXHHHHW4Fl_Align@@@Z 0041f660 f   fltk:fl_labeltype.obj
 0001:0001e6b0       ?measure@Fl_Label@@QBEXAAH0@Z 0041f6b0 f   fltk:fl_labeltype.obj
 0001:0001e720       ?draw_label@Fl_Widget@@IBEXXZ 0041f720 f   fltk:fl_labeltype.obj
 0001:0001e7f0       ?draw_label@Fl_Widget@@IBEXHHHH@Z 0041f7f0 f   fltk:fl_labeltype.obj
 0001:0001e840       ?draw_label@Fl_Widget@@QBEXHHHHW4Fl_Align@@@Z 0041f840 f   fltk:fl_labeltype.obj
 0001:0001e8e0       ?fl_rect@@YAXHHHH@Z        0041f8e0 f   fltk:fl_rect.obj
 0001:0001e980       ?fl_rectf@@YAXHHHH@Z       0041f980 f   fltk:fl_rect.obj
 0001:0001e9f0       ?fl_xyline@@YAXHHH@Z       0041f9f0 f   fltk:fl_rect.obj
 0001:0001ea30       ?fl_xyline@@YAXHHHH@Z      0041fa30 f   fltk:fl_rect.obj
 0001:0001eaa0       ?fl_xyline@@YAXHHHHH@Z     0041faa0 f   fltk:fl_rect.obj
 0001:0001eb20       ?fl_yxline@@YAXHHH@Z       0041fb20 f   fltk:fl_rect.obj
 0001:0001eb70       ?fl_yxline@@YAXHHHH@Z      0041fb70 f   fltk:fl_rect.obj
 0001:0001ebe0       ?fl_yxline@@YAXHHHHH@Z     0041fbe0 f   fltk:fl_rect.obj
 0001:0001ec60       ?fl_line@@YAXHHHH@Z        0041fc60 f   fltk:fl_rect.obj
 0001:0001ecc0       ?fl_line@@YAXHHHHHH@Z      0041fcc0 f   fltk:fl_rect.obj
 0001:0001ed30       ?fl_loop@@YAXHHHHHH@Z      0041fd30 f   fltk:fl_rect.obj
 0001:0001ed90       ?fl_loop@@YAXHHHHHHHH@Z    0041fd90 f   fltk:fl_rect.obj
 0001:0001ee00       ?fl_polygon@@YAXHHHHHH@Z   0041fe00 f   fltk:fl_rect.obj
 0001:0001ee70       ?fl_polygon@@YAXHHHHHHHH@Z 0041fe70 f   fltk:fl_rect.obj
 0001:0001eef0       ?fl_point@@YAXHH@Z         0041fef0 f   fltk:fl_rect.obj
 0001:0001ef20       ?fl_restore_clip@@YAXXZ    0041ff20 f   fltk:fl_rect.obj
 0001:0001ef60       ?fl_clip_region@@YAXPAUHRGN__@@@Z 0041ff60 f   fltk:fl_rect.obj
 0001:0001efa0       ?fl_clip_region@@YAPAUHRGN__@@XZ 0041ffa0 f   fltk:fl_rect.obj
 0001:0001efc0       ?fl_push_clip@@YAXHHHH@Z   0041ffc0 f   fltk:fl_rect.obj
 0001:0001f070       ?fl_push_no_clip@@YAXXZ    00420070 f   fltk:fl_rect.obj
 0001:0001f0c0       ?fl_pop_clip@@YAXXZ        004200c0 f   fltk:fl_rect.obj
 0001:0001f120       ?fl_not_clipped@@YAHHHHH@Z 00420120 f   fltk:fl_rect.obj
 0001:0001f1a0       ?fl_clip_box@@YAHHHHHAAH000@Z 004201a0 f   fltk:fl_rect.obj
 0001:0001f2d0       ?add_awake_handler_@Fl@@SAHP6AXPAX@Z0@Z 004202d0 f   fltk:Fl_lock.obj
 0001:0001f3b0       ?get_awake_handler_@Fl@@SAHAAP6AXPAX@ZAAPAX@Z 004203b0 f   fltk:Fl_lock.obj
 0001:0001f440       ?awake@Fl@@SAHP6AXPAX@Z0@Z 00420440 f   fltk:Fl_lock.obj
 0001:0001f4d0       ?lock@Fl@@SAXXZ            004204d0 f   fltk:Fl_lock.obj
 0001:0001f540       ?unlock@Fl@@SAXXZ          00420540 f   fltk:Fl_lock.obj
 0001:0001f550       ?awake@Fl@@SAXPAX@Z        00420550 f   fltk:Fl_lock.obj
 0001:0001f570       ?screen_count@Fl@@SAHXZ    00420570 f   fltk:screen_xywh.obj
 0001:0001f6b0       ?screen_xywh@Fl@@SAXAAH000HH@Z 004206b0 f   fltk:screen_xywh.obj
 0001:0001f7d0       ?screen_xywh@Fl@@SAXAAH000H@Z 004207d0 f   fltk:screen_xywh.obj
 0001:0001f890       ?dnd@Fl@@SAHXZ             00420890 f   fltk:fl_dnd.obj
 0001:0001f9d0       ?QueryInterface@FLDropSource@@UAGJABU_GUID@@PAPAX@Z 004209d0 f i fltk:fl_dnd.obj
 0001:0001fa40       ?AddRef@FLDropSource@@UAGKXZ 00420a40 f i fltk:fl_dnd.obj
 0001:0001fa70       ?Release@FLDropSource@@UAGKXZ 00420a70 f i fltk:fl_dnd.obj
 0001:0001fac0       ?GiveFeedback@FLDropSource@@UAGJK@Z 00420ac0 f i fltk:fl_dnd.obj
 0001:0001fad0       ?QueryContinueDrag@FLDropSource@@UAGJHK@Z 00420ad0 f i fltk:fl_dnd.obj
 0001:0001fb00       ?QueryInterface@FLDataObject@@UAGJABU_GUID@@PAPAX@Z 00420b00 f i fltk:fl_dnd.obj
 0001:0001fb70       ?AddRef@FLDataObject@@UAGKXZ 00420b70 f i fltk:fl_dnd.obj
 0001:0001fba0       ?Release@FLDataObject@@UAGKXZ 00420ba0 f i fltk:fl_dnd.obj
 0001:0001fbf0       ?GetData@FLDataObject@@UAGJPAUtagFORMATETC@@PAUtagSTGMEDIUM@@@Z 00420bf0 f i fltk:fl_dnd.obj
 0001:0001fca0       ?QueryGetData@FLDataObject@@UAGJPAUtagFORMATETC@@@Z 00420ca0 f i fltk:fl_dnd.obj
 0001:0001fce0       ?GetDataHere@FLDataObject@@UAGJPAUtagFORMATETC@@PAUtagSTGMEDIUM@@@Z 00420ce0 f i fltk:fl_dnd.obj
 0001:0001fcf0       ?GetCanonicalFormatEtc@FLDataObject@@UAGJPAUtagFORMATETC@@0@Z 00420cf0 f i fltk:fl_dnd.obj
 0001:0001fd00       ?SetData@FLDataObject@@UAGJPAUtagFORMATETC@@PAUtagSTGMEDIUM@@H@Z 00420d00 f i fltk:fl_dnd.obj
 0001:0001fd10       ?EnumFormatEtc@FLDataObject@@UAGJKPAPAUIEnumFORMATETC@@@Z 00420d10 f i fltk:fl_dnd.obj
 0001:0001fd20       ?DAdvise@FLDataObject@@UAGJPAUtagFORMATETC@@KPAUIAdviseSink@@PAK@Z 00420d20 f i fltk:fl_dnd.obj
 0001:0001fd30       ?DUnadvise@FLDataObject@@UAGJK@Z 00420d30 f i fltk:fl_dnd.obj
 0001:0001fd40       ?EnumDAdvise@FLDataObject@@UAGJPAPAUIEnumSTATDATA@@@Z 00420d40 f i fltk:fl_dnd.obj
 0001:0001fd50       ?QueryInterface@FLDropTarget@@UAGJABU_GUID@@PAPAX@Z 00420d50 f i fltk:fl_dnd.obj
 0001:0001fdc0       ?AddRef@FLDropTarget@@UAGKXZ 00420dc0 f i fltk:fl_dnd.obj
 0001:0001fdf0       ?Release@FLDropTarget@@UAGKXZ 00420df0 f i fltk:fl_dnd.obj
 0001:0001fe40       ?DragEnter@FLDropTarget@@UAGJPAUIDataObject@@KU_POINTL@@PAK@Z 00420e40 f i fltk:fl_dnd.obj
 0001:0001ff40       ?DragOver@FLDropTarget@@UAGJKU_POINTL@@PAK@Z 00420f40 f i fltk:fl_dnd.obj
 0001:00020050       ?DragLeave@FLDropTarget@@UAGJXZ 00421050 f i fltk:fl_dnd.obj
 0001:000200e0       ?Drop@FLDropTarget@@UAGJPAUIDataObject@@KU_POINTL@@PAK@Z 004210e0 f i fltk:fl_dnd.obj
 0001:00020250       ?fillCurrentDragData@FLDropTarget@@CADPAUIDataObject@@@Z 00421250 f i fltk:fl_dnd.obj
 0001:000204d0       ?fl_cleanup_pens@@YAXXZ    004214d0 f   fltk:fl_color.obj
 0001:00020520       ?fl_save_pen@@YAXXZ        00421520 f   fltk:fl_color.obj
 0001:00020560       ?fl_restore_pen@@YAXXZ     00421560 f   fltk:fl_color.obj
 0001:000205b0       ?fl_color@@YAXW4Fl_Color@@@Z 004215b0 f   fltk:fl_color.obj
 0001:00020710       ?fl_color@@YAXEEE@Z        00421710 f   fltk:fl_color.obj
 0001:00020840       ?fl_brush@@YAPAUHBRUSH__@@XZ 00421840 f   fltk:fl_color.obj
 0001:00020850       ?fl_brush_action@@YAPAUHBRUSH__@@H@Z 00421850 f   fltk:fl_color.obj
 0001:00020ad0       ?free_color@Fl@@SAXW4Fl_Color@@H@Z 00421ad0 f   fltk:fl_color.obj
 0001:00020b00       ?set_color@Fl@@SAXW4Fl_Color@@I@Z 00421b00 f   fltk:fl_color.obj
 0001:00020b40       ?fl_select_palette@@YAPAUHPALETTE__@@XZ 00421b40 f   fltk:fl_color.obj
 0001:00020cd0       ?get_color@Fl@@SAIW4Fl_Color@@@Z 00421cd0 f   fltk:fl_color.obj
 0001:00020cf0       ?set_color@Fl@@SAXW4Fl_Color@@EEE@Z 00421cf0 f   fltk:fl_color.obj
 0001:00020d20       ?get_color@Fl@@SAXW4Fl_Color@@AAE11@Z 00421d20 f   fltk:fl_color.obj
 0001:00020d70       ?fl_color_average@@YA?AW4Fl_Color@@W41@0M@Z 00421d70 f   fltk:fl_color.obj
 0001:00020ef0       ?fl_inactive@@YA?AW4Fl_Color@@W41@@Z 00421ef0 f   fltk:fl_color.obj
 0001:00020f10       ?fl_contrast@@YA?AW4Fl_Color@@W41@0@Z 00421f10 f   fltk:fl_color.obj
 0001:000210f0       ?background@Fl@@SAXEEE@Z   004220f0 f   fltk:Fl_get_system_colors.obj
 0001:00021300       ?foreground@Fl@@SAXEEE@Z   00422300 f   fltk:Fl_get_system_colors.obj
 0001:00021330       ?background2@Fl@@SAXEEE@Z  00422330 f   fltk:Fl_get_system_colors.obj
 0001:00021380       ?fl_parse_color@@YAHPBDAAE11@Z 00422380 f   fltk:Fl_get_system_colors.obj
 0001:000214e0       ?get_system_colors@Fl@@SAXXZ 004224e0 f   fltk:Fl_get_system_colors.obj
 0001:00021610       ?scheme@Fl@@SAHPBD@Z       00422610 f   fltk:Fl_get_system_colors.obj
 0001:000216f0       ?reload_scheme@Fl@@SAHXZ   004226f0 f   fltk:Fl_get_system_colors.obj
 0001:00021c40       ??0Fl_Pixmap@@QAE@PBQBD@Z  00422c40 f i fltk:Fl_get_system_colors.obj
 0001:00021d10       ??_GFl_Pixmap@@UAEPAXI@Z   00422d10 f i fltk:Fl_get_system_colors.obj
 0001:00021d10       ??_EFl_Pixmap@@UAEPAXI@Z   00422d10 f i fltk:Fl_get_system_colors.obj
 0001:00021d40       ??0Fl_FontSize@@QAE@PBDH@Z 00422d40 f   fltk:fl_font.obj
 0001:00021ec0       ??1Fl_FontSize@@QAE@XZ     00422ec0 f   fltk:fl_font.obj
 0001:00021ef0       ?fl_font@@YAXHH@Z          00422ef0 f   fltk:fl_font.obj
 0001:00022060       ?fl_height@@YAHXZ          00423060 f   fltk:fl_font.obj
 0001:00022090       ?fl_descent@@YAHXZ         00423090 f   fltk:fl_font.obj
 0001:000220b0       ?fl_width@@YANPBDH@Z       004230b0 f   fltk:fl_font.obj
 0001:00022110       ?fl_width@@YANE@Z          00423110 f   fltk:fl_font.obj
 0001:00022140       ?fl_draw@@YAXPBDHHH@Z      00423140 f   fltk:fl_font.obj
 0001:000221c0       ?fl_draw@@YAXPBDHMM@Z      004231c0 f   fltk:fl_font.obj
 0001:000221f0       ?fl_width@@YANPBD@Z        004231f0 f   fltk:fl_font.obj
 0001:00022220       ?fl_draw@@YAXPBDHH@Z       00423220 f   fltk:fl_font.obj
 0001:00022250       ?fl_rectf@@YAXHHHHW4Fl_Color@@@Z 00423250 f i fltk:fl_boxtype.obj
 0001:00022280       ?draw_box_active@Fl@@SAHXZ 00423280 f   fltk:fl_boxtype.obj
 0001:00022290       ?fl_gray_ramp@@YAPAEXZ     00423290 f   fltk:fl_boxtype.obj
 0001:000222c0       ?fl_frame@@YAXPBDHHHH@Z    004232c0 f   fltk:fl_boxtype.obj
 0001:00022470       ?fl_frame2@@YAXPBDHHHH@Z   00423470 f   fltk:fl_boxtype.obj
 0001:00022620       ?fl_no_box@@YAXHHHHW4Fl_Color@@@Z 00423620 f   fltk:fl_boxtype.obj
 0001:00022630       ?fl_thin_down_frame@@YAXHHHHW4Fl_Color@@@Z 00423630 f   fltk:fl_boxtype.obj
 0001:00022660       ?fl_thin_down_box@@YAXHHHHW4Fl_Color@@@Z 00423660 f   fltk:fl_boxtype.obj
 0001:000226e0       ?fl_thin_up_frame@@YAXHHHHW4Fl_Color@@@Z 004236e0 f   fltk:fl_boxtype.obj
 0001:00022710       ?fl_thin_up_box@@YAXHHHHW4Fl_Color@@@Z 00423710 f   fltk:fl_boxtype.obj
 0001:00022790       ?fl_up_frame@@YAXHHHHW4Fl_Color@@@Z 00423790 f   fltk:fl_boxtype.obj
 0001:000227c0       ?fl_up_box@@YAXHHHHW4Fl_Color@@@Z 004237c0 f   fltk:fl_boxtype.obj
 0001:00022840       ?fl_down_frame@@YAXHHHHW4Fl_Color@@@Z 00423840 f   fltk:fl_boxtype.obj
 0001:00022870       ?fl_down_box@@YAXHHHHW4Fl_Color@@@Z 00423870 f   fltk:fl_boxtype.obj
 0001:000228d0       ?fl_engraved_frame@@YAXHHHHW4Fl_Color@@@Z 004238d0 f   fltk:fl_boxtype.obj
 0001:00022900       ?fl_engraved_box@@YAXHHHHW4Fl_Color@@@Z 00423900 f   fltk:fl_boxtype.obj
 0001:00022980       ?fl_embossed_frame@@YAXHHHHW4Fl_Color@@@Z 00423980 f   fltk:fl_boxtype.obj
 0001:000229b0       ?fl_embossed_box@@YAXHHHHW4Fl_Color@@@Z 004239b0 f   fltk:fl_boxtype.obj
 0001:00022a30       ?fl_rectbound@@YAXHHHHW4Fl_Color@@@Z 00423a30 f   fltk:fl_boxtype.obj
 0001:00022ad0       ?fl_border_frame@@YAXHHHHW4Fl_Color@@@Z 00423ad0 f   fltk:fl_boxtype.obj
 0001:00022b20       ?box_dx@Fl@@SAHW4Fl_Boxtype@@@Z 00423b20 f   fltk:fl_boxtype.obj
 0001:00022b40       ?box_dy@Fl@@SAHW4Fl_Boxtype@@@Z 00423b40 f   fltk:fl_boxtype.obj
 0001:00022b60       ?box_dw@Fl@@SAHW4Fl_Boxtype@@@Z 00423b60 f   fltk:fl_boxtype.obj
 0001:00022b80       ?box_dh@Fl@@SAHW4Fl_Boxtype@@@Z 00423b80 f   fltk:fl_boxtype.obj
 0001:00022ba0       ?fl_internal_boxtype@@YAXW4Fl_Boxtype@@P6AXHHHHW4Fl_Color@@@Z@Z 00423ba0 f   fltk:fl_boxtype.obj
 0001:00022be0       ?get_boxtype@Fl@@SAP6AXHHHHW4Fl_Color@@@ZW4Fl_Boxtype@@@Z 00423be0 f   fltk:fl_boxtype.obj
 0001:00022c00       ?set_boxtype@Fl@@SAXW4Fl_Boxtype@@P6AXHHHHW4Fl_Color@@@ZEEEE@Z 00423c00 f   fltk:fl_boxtype.obj
 0001:00022c60       ?set_boxtype@Fl@@SAXW4Fl_Boxtype@@0@Z 00423c60 f   fltk:fl_boxtype.obj
 0001:00022c90       ?fl_draw_box@@YAXW4Fl_Boxtype@@HHHHW4Fl_Color@@@Z 00423c90 f   fltk:fl_boxtype.obj
 0001:00022cd0       ?draw_box@Fl_Widget@@IBEXXZ 00423cd0 f   fltk:fl_boxtype.obj
 0001:00022d30       ?draw_box@Fl_Widget@@IBEXW4Fl_Boxtype@@W4Fl_Color@@@Z 00423d30 f   fltk:fl_boxtype.obj
 0001:00022d70       ?draw_box@Fl_Widget@@IBEXW4Fl_Boxtype@@HHHHW4Fl_Color@@@Z 00423d70 f   fltk:fl_boxtype.obj
 0001:00022dc0       _fl_strlcat                00423dc0 f   fltk:flstring.obj
 0001:00022e40       _fl_strlcpy                00423e40 f   fltk:flstring.obj
 0001:00022e90       ?size@Fl_Menu_Item@@QBEHXZ 00423e90 f   fltk:Fl_Menu.obj
 0001:00022f00       ?next@Fl_Menu_Item@@QBEPBU1@H@Z 00423f00 f   fltk:Fl_Menu.obj
 0001:00022fb0       ?measure@Fl_Menu_Item@@QBEHPAHPBVFl_Menu_@@@Z 00423fb0 f   fltk:Fl_Menu.obj
 0001:000230d0       ?draw@Fl_Menu_Item@@QBEXHHHHPBVFl_Menu_@@H@Z 004240d0 f   fltk:Fl_Menu.obj
 0001:00023910       ??0menutitle@@QAE@HHHHPBUFl_Menu_Item@@@Z 00424910 f   fltk:Fl_Menu.obj
 0001:00023a00       ??0menuwindow@@QAE@PBUFl_Menu_Item@@HHHH00HHH@Z 00424a00 f   fltk:Fl_Menu.obj
 0001:000241d0       ??1menuwindow@@UAE@XZ      004251d0 f   fltk:Fl_Menu.obj
 0001:00024260       ?position@menuwindow@@QAEXHH@Z 00425260 f   fltk:Fl_Menu.obj
 0001:00024300       ?autoscroll@menuwindow@@QAEXH@Z 00425300 f   fltk:Fl_Menu.obj
 0001:000243f0       ?drawentry@menuwindow@@AAEXPBUFl_Menu_Item@@HH@Z 004253f0 f   fltk:Fl_Menu.obj
 0001:00024710       ?draw@menutitle@@EAEXXZ    00425710 f   fltk:Fl_Menu.obj
 0001:00024750       ?draw@menuwindow@@EAEXXZ   00425750 f   fltk:Fl_Menu.obj
 0001:000248d0       ?set_selected@menuwindow@@QAEXH@Z 004258d0 f   fltk:Fl_Menu.obj
 0001:00024910       ?find_selected@menuwindow@@QAEHHH@Z 00425910 f   fltk:Fl_Menu.obj
 0001:00024aa0       ?titlex@menuwindow@@QAEHH@Z 00425aa0 f   fltk:Fl_Menu.obj
 0001:00024b10       ?is_inside@menuwindow@@QAEHHH@Z 00425b10 f   fltk:Fl_Menu.obj
 0001:00024b80       ?is_inside@menustate@@QAEHHH@Z 00425b80 f   fltk:Fl_Menu.obj
 0001:00024be0       ?handle@menuwindow@@UAEHH@Z 00425be0 f   fltk:Fl_Menu.obj
 0001:00025410       ?pulldown@Fl_Menu_Item@@QBEPBU1@HHHHPBU1@PBVFl_Menu_@@0H@Z 00426410 f   fltk:Fl_Menu.obj
 0001:00025ea0       ?popup@Fl_Menu_Item@@QBEPBU1@HHPBDPBU1@PBVFl_Menu_@@@Z 00426ea0 f   fltk:Fl_Menu.obj
 0001:00025ef0       ?find_shortcut@Fl_Menu_Item@@QBEPBU1@PAH@Z 00426ef0 f   fltk:Fl_Menu.obj
 0001:00025f90       ?test_shortcut@Fl_Menu_Item@@QBEPBU1@XZ 00426f90 f   fltk:Fl_Menu.obj
 0001:00026050       ??_Emenutitle@@UAEPAXI@Z   00427050 f i fltk:Fl_Menu.obj
 0001:00026050       ??_Gmenutitle@@UAEPAXI@Z   00427050 f i fltk:Fl_Menu.obj
 0001:00026080       ??_Gmenuwindow@@UAEPAXI@Z  00427080 f i fltk:Fl_Menu.obj
 0001:00026080       ??_Emenuwindow@@UAEPAXI@Z  00427080 f i fltk:Fl_Menu.obj
 0001:000260b0       ?fl_draw@@YAXPBDHHHHW4Fl_Align@@P6AX0HHH@ZPAVFl_Image@@H@Z 004270b0 f   fltk:fl_draw.obj
 0001:00026cd0       ?fl_draw@@YAXPBDHHHHW4Fl_Align@@PAVFl_Image@@H@Z 00427cd0 f   fltk:fl_draw.obj
 0001:00026d80       ?fl_measure@@YAXPBDAAH1H@Z 00427d80 f   fltk:fl_draw.obj
 0001:000270d0       ?grab@Fl@@SAXPAVFl_Window@@@Z 004280d0 f   fltk:Fl_grab.obj
 0001:00027170       ?test_shortcut@Fl@@SAHH@Z  00428170 f   fltk:fl_shortcut.obj
 0001:00027280       ?fl_shortcut_label@@YAPBDH@Z 00428280 f   fltk:fl_shortcut.obj
 0001:00027500       ?fl_old_shortcut@@YAHPBD@Z 00428500 f   fltk:fl_shortcut.obj
 0001:000275c0       ?label_shortcut@Fl_Widget@@SADPBD@Z 004285c0 f   fltk:fl_shortcut.obj
 0001:00027630       ?test_shortcut@Fl_Widget@@SAHPBD@Z 00428630 f   fltk:fl_shortcut.obj
 0001:00027690       ?test_shortcut@Fl_Widget@@QAEHXZ 00428690 f   fltk:fl_shortcut.obj
 0001:000276d0       ?hotspot@Fl_Window@@QAEXHHH@Z 004286d0 f   fltk:Fl_Window_hotspot.obj
 0001:000278b0       ?hotspot@Fl_Window@@QAEXPBVFl_Widget@@H@Z 004288b0 f   fltk:Fl_Window_hotspot.obj
 0001:00027930       _fl_vsnprintf              00428930 f   fltk:vsnprintf.obj
 0001:00028340       _fl_snprintf               00429340 f   fltk:vsnprintf.obj
 0001:00028380       ?draw@Fl_Box@@MAEXXZ       00429380 f   fltk:Fl_Box.obj
 0001:000283a0       ?handle@Fl_Box@@UAEHH@Z    004293a0 f   fltk:Fl_Box.obj
 0001:000283d0       ?fl_return_arrow@@YAHHHHH@Z 004293d0 f   fltk:Fl_Return_Button.obj
 0001:00028540       ?draw@Fl_Return_Button@@MAEXXZ 00429540 f   fltk:Fl_Return_Button.obj
 0001:000286d0       ?handle@Fl_Return_Button@@UAEHH@Z 004296d0 f   fltk:Fl_Return_Button.obj
 0001:00028750       ?_Fl_Slider@Fl_Slider@@AAEXXZ 00429750 f   fltk:Fl_Slider.obj
 0001:00028770       ??0Fl_Slider@@QAE@HHHHPBD@Z 00429770 f   fltk:Fl_Slider.obj
 0001:000287f0       ??0Fl_Slider@@QAE@EHHHHPBD@Z 004297f0 f   fltk:Fl_Slider.obj
 0001:000288a0       ?slider_size@Fl_Slider@@QAEXN@Z 004298a0 f   fltk:Fl_Slider.obj
 0001:00028900       ?bounds@Fl_Slider@@QAEXNN@Z 00429900 f   fltk:Fl_Slider.obj
 0001:00028960       ?scrollvalue@Fl_Slider@@QAEHHHHH@Z 00429960 f   fltk:Fl_Slider.obj
 0001:00028a00       ?draw_bg@Fl_Slider@@AAEXHHHH@Z 00429a00 f   fltk:Fl_Slider.obj
 0001:00028ac0       ?draw@Fl_Slider@@IAEXHHHH@Z 00429ac0 f   fltk:Fl_Slider.obj
 0001:000292f0       ?draw@Fl_Slider@@UAEXXZ    0042a2f0 f   fltk:Fl_Slider.obj
 0001:000293c0       ?handle@Fl_Slider@@IAEHHHHHH@Z 0042a3c0 f   fltk:Fl_Slider.obj
 0001:00029b10       ?handle@Fl_Slider@@UAEHH@Z 0042ab10 f   fltk:Fl_Slider.obj
 0001:00029bf0       ??_EFl_Slider@@UAEPAXI@Z   0042abf0 f i fltk:Fl_Slider.obj
 0001:00029bf0       ??_GFl_Slider@@UAEPAXI@Z   0042abf0 f i fltk:Fl_Slider.obj
 0001:00029c20       ??1Fl_Valuator@@UAE@XZ     0042ac20 f i fltk:Fl_Slider.obj
 0001:00029c40       ?draw@Fl_Light_Button@@MAEXXZ 0042ac40 f   fltk:Fl_Light_Button.obj
 0001:0002a710       ?handle@Fl_Light_Button@@UAEHH@Z 0042b710 f   fltk:Fl_Light_Button.obj
 0001:0002a750       ??0Fl_Light_Button@@QAE@HHHHPBD@Z 0042b750 f   fltk:Fl_Light_Button.obj
 0001:0002a7a0       ??_EFl_Light_Button@@UAEPAXI@Z 0042b7a0 f i fltk:Fl_Light_Button.obj
 0001:0002a7a0       ??_GFl_Light_Button@@UAEPAXI@Z 0042b7a0 f i fltk:Fl_Light_Button.obj
 0001:0002a7d0       ?fl_cursor@@YAXW4Fl_Cursor@@W4Fl_Color@@1@Z 0042b7d0 f   fltk:fl_cursor.obj
 0001:0002a800       ?default_cursor@Fl_Window@@QAEXW4Fl_Cursor@@W4Fl_Color@@1@Z 0042b800 f   fltk:fl_cursor.obj
 0001:0002a840       ?cursor@Fl_Window@@QAEXW4Fl_Cursor@@W4Fl_Color@@1@Z 0042b840 f   fltk:fl_cursor.obj
 0001:0002aae0       ?scrollbar_size@Fl@@SAHXZ  0042bae0 f   fltk:Fl_Browser_.obj
 0001:0002aaf0       ?scrollbar_size@Fl@@SAXH@Z 0042baf0 f   fltk:Fl_Browser_.obj
 0001:0002ab00       ?bbox@Fl_Browser_@@IBEXAAH000@Z 0042bb00 f   fltk:Fl_Browser_.obj
 0001:0002ac60       ?leftedge@Fl_Browser_@@IBEHXZ 0042bc60 f   fltk:Fl_Browser_.obj
 0001:0002ac90       ?resize@Fl_Browser_@@UAEXHHHH@Z 0042bc90 f   fltk:Fl_Browser_.obj
 0001:0002ad70       ?redraw_line@Fl_Browser_@@IAEXPAX@Z 0042bd70 f   fltk:Fl_Browser_.obj
 0001:0002adf0       ?update_top@Fl_Browser_@@AAEXXZ 0042bdf0 f   fltk:Fl_Browser_.obj
 0001:0002b010       ?position@Fl_Browser_@@QAEXH@Z 0042c010 f   fltk:Fl_Browser_.obj
 0001:0002b060       ?hposition@Fl_Browser_@@QAEXH@Z 0042c060 f   fltk:Fl_Browser_.obj
 0001:0002b0b0       ?displayed@Fl_Browser_@@IBEHPAX@Z 0042c0b0 f   fltk:Fl_Browser_.obj
 0001:0002b140       ?display@Fl_Browser_@@QAEXPAX@Z 0042c140 f   fltk:Fl_Browser_.obj
 0001:0002b340       ?draw@Fl_Browser_@@MAEXXZ  0042c340 f   fltk:Fl_Browser_.obj
 0001:0002c030       ?new_list@Fl_Browser_@@IAEXXZ 0042d030 f   fltk:Fl_Browser_.obj
 0001:0002c0b0       ?deleting@Fl_Browser_@@IAEXPAX@Z 0042d0b0 f   fltk:Fl_Browser_.obj
 0001:0002c190       ?replacing@Fl_Browser_@@IAEXPAX0@Z 0042d190 f   fltk:Fl_Browser_.obj
 0001:0002c200       ?swapping@Fl_Browser_@@IAEXPAX0@Z 0042d200 f   fltk:Fl_Browser_.obj
 0001:0002c280       ?inserting@Fl_Browser_@@IAEXPAX0@Z 0042d280 f   fltk:Fl_Browser_.obj
 0001:0002c2c0       ?find_item@Fl_Browser_@@IAEPAXH@Z 0042d2c0 f   fltk:Fl_Browser_.obj
 0001:0002c370       ?select@Fl_Browser_@@QAEHPAXHH@Z 0042d370 f   fltk:Fl_Browser_.obj
 0001:0002c520       ?deselect@Fl_Browser_@@QAEHH@Z 0042d520 f   fltk:Fl_Browser_.obj
 0001:0002c5e0       ?select_only@Fl_Browser_@@QAEHPAXH@Z 0042d5e0 f   fltk:Fl_Browser_.obj
 0001:0002c6a0       ?handle@Fl_Browser_@@UAEHH@Z 0042d6a0 f   fltk:Fl_Browser_.obj
 0001:0002d330       ??0Fl_Browser_@@IAE@HHHHPBD@Z 0042e330 f   fltk:Fl_Browser_.obj
 0001:0002d530       ?item_quick_height@Fl_Browser_@@MBEHPAX@Z 0042e530 f   fltk:Fl_Browser_.obj
 0001:0002d550       ?incr_height@Fl_Browser_@@MBEHXZ 0042e550 f   fltk:Fl_Browser_.obj
 0001:0002d580       ?full_height@Fl_Browser_@@MBEHXZ 0042e580 f   fltk:Fl_Browser_.obj
 0001:0002d5e0       ?full_width@Fl_Browser_@@MBEHXZ 0042e5e0 f   fltk:Fl_Browser_.obj
 0001:0002d600       ?item_select@Fl_Browser_@@MAEXPAXH@Z 0042e600 f   fltk:Fl_Browser_.obj
 0001:0002d610       ?item_selected@Fl_Browser_@@MBEHPAX@Z 0042e610 f   fltk:Fl_Browser_.obj
 0001:0002d630       ??_GFl_Browser_@@UAEPAXI@Z 0042e630 f i fltk:Fl_Browser_.obj
 0001:0002d630       ??_EFl_Browser_@@UAEPAXI@Z 0042e630 f i fltk:Fl_Browser_.obj
 0001:0002d6c0       ??0Fl_File_Input@@QAE@HHHHPBD@Z 0042e6c0 f   fltk:Fl_File_Input.obj
 0001:0002d730       ?draw_buttons@Fl_File_Input@@AAEXXZ 0042e730 f   fltk:Fl_File_Input.obj
 0001:0002da70       ?update_buttons@Fl_File_Input@@AAEXXZ 0042ea70 f   fltk:Fl_File_Input.obj
 0001:0002db80       ?value@Fl_File_Input@@QAEHPBDH@Z 0042eb80 f   fltk:Fl_File_Input.obj
 0001:0002dbb0       ?value@Fl_File_Input@@QAEHPBD@Z 0042ebb0 f   fltk:Fl_File_Input.obj
 0001:0002dbe0       ?draw@Fl_File_Input@@UAEXXZ 0042ebe0 f   fltk:Fl_File_Input.obj
 0001:0002dd50       ?handle@Fl_File_Input@@UAEHH@Z 0042ed50 f   fltk:Fl_File_Input.obj
 0001:0002de70       ?handle_button@Fl_File_Input@@AAEHH@Z 0042ee70 f   fltk:Fl_File_Input.obj
 0001:0002e120       ??_GFl_File_Input@@UAEPAXI@Z 0042f120 f i fltk:Fl_File_Input.obj
 0001:0002e120       ??_EFl_File_Input@@UAEPAXI@Z 0042f120 f i fltk:Fl_File_Input.obj
 0001:0002e150       ??0Fl_Preferences@@QAE@W4Root@0@PBD1@Z 0042f150 f   fltk:Fl_Preferences.obj
 0001:0002e230       ??0Fl_Preferences@@QAE@PBD00@Z 0042f230 f   fltk:Fl_Preferences.obj
 0001:0002e310       ??0Fl_Preferences@@QAE@AAV0@PBD@Z 0042f310 f   fltk:Fl_Preferences.obj
 0001:0002e340       ??0Fl_Preferences@@QAE@PAV0@PBD@Z 0042f340 f   fltk:Fl_Preferences.obj
 0001:0002e370       ??1Fl_Preferences@@QAE@XZ  0042f370 f   fltk:Fl_Preferences.obj
 0001:0002e3f0       ?groups@Fl_Preferences@@QAEHXZ 0042f3f0 f   fltk:Fl_Preferences.obj
 0001:0002e410       ?group@Fl_Preferences@@QAEPBDH@Z 0042f410 f   fltk:Fl_Preferences.obj
 0001:0002e430       ?groupExists@Fl_Preferences@@QAEDPBD@Z 0042f430 f   fltk:Fl_Preferences.obj
 0001:0002e460       ?deleteGroup@Fl_Preferences@@QAEDPBD@Z 0042f460 f   fltk:Fl_Preferences.obj
 0001:0002e4a0       ?entries@Fl_Preferences@@QAEHXZ 0042f4a0 f   fltk:Fl_Preferences.obj
 0001:0002e4c0       ?entry@Fl_Preferences@@QAEPBDH@Z 0042f4c0 f   fltk:Fl_Preferences.obj
 0001:0002e4e0       ?entryExists@Fl_Preferences@@QAEDPBD@Z 0042f4e0 f   fltk:Fl_Preferences.obj
 0001:0002e510       ?deleteEntry@Fl_Preferences@@QAEDPBD@Z 0042f510 f   fltk:Fl_Preferences.obj
 0001:0002e530       ?get@Fl_Preferences@@QAEDPBDAAHH@Z 0042f530 f   fltk:Fl_Preferences.obj
 0001:0002e580       ?set@Fl_Preferences@@QAEDPBDH@Z 0042f580 f   fltk:Fl_Preferences.obj
 0001:0002e5c0       ?get@Fl_Preferences@@QAEDPBDAAMM@Z 0042f5c0 f   fltk:Fl_Preferences.obj
 0001:0002e610       ?set@Fl_Preferences@@QAEDPBDM@Z 0042f610 f   fltk:Fl_Preferences.obj
 0001:0002e650       ?set@Fl_Preferences@@QAEDPBDMH@Z 0042f650 f   fltk:Fl_Preferences.obj
 0001:0002e6a0       ?get@Fl_Preferences@@QAEDPBDAANN@Z 0042f6a0 f   fltk:Fl_Preferences.obj
 0001:0002e6f0       ?set@Fl_Preferences@@QAEDPBDN@Z 0042f6f0 f   fltk:Fl_Preferences.obj
 0001:0002e730       ?set@Fl_Preferences@@QAEDPBDNH@Z 0042f730 f   fltk:Fl_Preferences.obj
 0001:0002e780       ?get@Fl_Preferences@@QAEDPBDPAD0H@Z 0042f780 f   fltk:Fl_Preferences.obj
 0001:0002e9e0       ?get@Fl_Preferences@@QAEDPBDAAPAD0@Z 0042f9e0 f   fltk:Fl_Preferences.obj
 0001:0002ea70       ?set@Fl_Preferences@@QAEDPBD0@Z 0042fa70 f   fltk:Fl_Preferences.obj
 0001:0002ecb0       ?get@Fl_Preferences@@QAEDPBDPAXPBXHH@Z 0042fcb0 f   fltk:Fl_Preferences.obj
 0001:0002ee70       ?get@Fl_Preferences@@QAEDPBDAAPAXPBXH@Z 0042fe70 f   fltk:Fl_Preferences.obj
 0001:0002eef0       ?set@Fl_Preferences@@QAEDPBDPBXH@Z 0042fef0 f   fltk:Fl_Preferences.obj
 0001:0002efa0       ?size@Fl_Preferences@@QAEHPBD@Z 0042ffa0 f   fltk:Fl_Preferences.obj
 0001:0002eff0       ?getUserdataPath@Fl_Preferences@@QAEDPADH@Z 0042fff0 f   fltk:Fl_Preferences.obj
 0001:0002f020       ?flush@Fl_Preferences@@QAEXXZ 00430020 f   fltk:Fl_Preferences.obj
 0001:0002f050       ??0Name@Fl_Preferences@@QAE@I@Z 00430050 f   fltk:Fl_Preferences.obj
 0001:0002f090       ??0Name@Fl_Preferences@@QAA@PBDZZ 00430090 f   fltk:Fl_Preferences.obj
 0001:0002f0e0       ??1Name@Fl_Preferences@@QAE@XZ 004300e0 f   fltk:Fl_Preferences.obj
 0001:0002f110       ??0RootNode@Fl_Preferences@@QAE@PAV1@W4Root@1@PBD2@Z 00430110 f   fltk:Fl_Preferences.obj
 0001:0002f390       ??0RootNode@Fl_Preferences@@QAE@PAV1@PBD11@Z 00430390 f   fltk:Fl_Preferences.obj
 0001:0002f480       ??1RootNode@Fl_Preferences@@QAE@XZ 00430480 f   fltk:Fl_Preferences.obj
 0001:0002f560       ?read@RootNode@Fl_Preferences@@QAEHXZ 00430560 f   fltk:Fl_Preferences.obj
 0001:0002f720       ?write@RootNode@Fl_Preferences@@QAEHXZ 00430720 f   fltk:Fl_Preferences.obj
 0001:0002f900       ?getPath@RootNode@Fl_Preferences@@QAEDPADH@Z 00430900 f   fltk:Fl_Preferences.obj
 0001:0002f9a0       ??0Node@Fl_Preferences@@QAE@PBD@Z 004309a0 f   fltk:Fl_Preferences.obj
 0001:0002fa20       ??1Node@Fl_Preferences@@QAE@XZ 00430a20 f   fltk:Fl_Preferences.obj
 0001:0002fb90       ?dirty@Node@Fl_Preferences@@QAEDXZ 00430b90 f   fltk:Fl_Preferences.obj
 0001:0002fbf0       ?write@Node@Fl_Preferences@@QAEHPAU_iobuf@@@Z 00430bf0 f   fltk:Fl_Preferences.obj
 0001:0002fda0       ?setParent@Node@Fl_Preferences@@QAEXPAV12@@Z 00430da0 f   fltk:Fl_Preferences.obj
 0001:0002fe10       ?addChild@Node@Fl_Preferences@@QAEPAV12@PBD@Z 00430e10 f   fltk:Fl_Preferences.obj
 0001:0002fe80       ?set@Node@Fl_Preferences@@QAEXPBD0@Z 00430e80 f   fltk:Fl_Preferences.obj
 0001:00030020       ?set@Node@Fl_Preferences@@QAEXPBD@Z 00431020 f   fltk:Fl_Preferences.obj
 0001:000300f0       ?add@Node@Fl_Preferences@@QAEXPBD@Z 004310f0 f   fltk:Fl_Preferences.obj
 0001:00030190       ?get@Node@Fl_Preferences@@QAEPBDPBD@Z 00431190 f   fltk:Fl_Preferences.obj
 0001:000301d0       ?getEntry@Node@Fl_Preferences@@QAEHPBD@Z 004311d0 f   fltk:Fl_Preferences.obj
 0001:00030230       ?deleteEntry@Node@Fl_Preferences@@QAEDPBD@Z 00431230 f   fltk:Fl_Preferences.obj
 0001:000302b0       ?find@Node@Fl_Preferences@@QAEPAV12@PBD@Z 004312b0 f   fltk:Fl_Preferences.obj
 0001:00030440       ?search@Node@Fl_Preferences@@QAEPAV12@PBDH@Z 00431440 f   fltk:Fl_Preferences.obj
 0001:000305a0       ?nChildren@Node@Fl_Preferences@@QAEHXZ 004315a0 f   fltk:Fl_Preferences.obj
 0001:000305e0       ?child@Node@Fl_Preferences@@QAEPBDH@Z 004315e0 f   fltk:Fl_Preferences.obj
 0001:00030670       ?remove@Node@Fl_Preferences@@QAEDXZ 00431670 f   fltk:Fl_Preferences.obj
 0001:00030740       ?full_height@Fl_File_Browser@@EBEHXZ 00431740 f   fltk:Fl_File_Browser.obj
 0001:000307a0       ?item_height@Fl_File_Browser@@EBEHPAX@Z 004317a0 f   fltk:Fl_File_Browser.obj
 0001:00030850       ?item_width@Fl_File_Browser@@EBEHPAX@Z 00431850 f   fltk:Fl_File_Browser.obj
 0001:00030c00       ?item_draw@Fl_File_Browser@@EBEXPAXHHHH@Z 00431c00 f   fltk:Fl_File_Browser.obj
 0001:00031170       ??0Fl_File_Browser@@QAE@HHHHPBD@Z 00432170 f   fltk:Fl_File_Browser.obj
 0001:000311f0       ?load@Fl_File_Browser@@QAEHPBDP6AHPAPAUdirent@@1@Z@Z 004321f0 f   fltk:Fl_File_Browser.obj
 0001:00031590       ?filter@Fl_File_Browser@@QAEXPBD@Z 00432590 f   fltk:Fl_File_Browser.obj
 0001:000315c0       ?incr_height@Fl_File_Browser@@EBEHXZ 004325c0 f i fltk:Fl_File_Browser.obj
 0001:000315e0       ??_EFl_File_Browser@@UAEPAXI@Z 004325e0 f i fltk:Fl_File_Browser.obj
 0001:000315e0       ??_GFl_File_Browser@@UAEPAXI@Z 004325e0 f i fltk:Fl_File_Browser.obj
 0001:00031610       ??1Fl_Browser@@UAE@XZ      00432610 f i fltk:Fl_File_Browser.obj
 0001:000316a0       ??_EFl_Browser@@UAEPAXI@Z  004326a0 f i fltk:Fl_File_Browser.obj
 0001:000316a0       ??_GFl_Browser@@UAEPAXI@Z  004326a0 f i fltk:Fl_File_Browser.obj
 0001:000316d0       ??1Fl_Browser_@@UAE@XZ     004326d0 f i fltk:Fl_File_Browser.obj
 0001:00031740       ?draw@Fl_Menu_Button@@MAEXXZ 00432740 f   fltk:Fl_Menu_Button.obj
 0001:00031900       ?popup@Fl_Menu_Button@@QAEPBUFl_Menu_Item@@XZ 00432900 f   fltk:Fl_Menu_Button.obj
 0001:00031a30       ?handle@Fl_Menu_Button@@UAEHH@Z 00432a30 f   fltk:Fl_Menu_Button.obj
 0001:00031c10       ??0Fl_Menu_Button@@QAE@HHHHPBD@Z 00432c10 f   fltk:Fl_Menu_Button.obj
 0001:00031c50       ??_EFl_Menu_Button@@UAEPAXI@Z 00432c50 f i fltk:Fl_Menu_Button.obj
 0001:00031c50       ??_GFl_Menu_Button@@UAEPAXI@Z 00432c50 f i fltk:Fl_Menu_Button.obj
 0001:00031c80       ?draw@Fl_Choice@@MAEXXZ    00432c80 f   fltk:Fl_Choice.obj
 0001:00032380       ??0Fl_Choice@@QAE@HHHHPBD@Z 00433380 f   fltk:Fl_Choice.obj
 0001:000323e0       ?value@Fl_Choice@@QAEHPBUFl_Menu_Item@@@Z 004333e0 f   fltk:Fl_Choice.obj
 0001:00032410       ?value@Fl_Choice@@QAEHH@Z  00433410 f   fltk:Fl_Choice.obj
 0001:00032480       ?handle@Fl_Choice@@UAEHH@Z 00433480 f   fltk:Fl_Choice.obj
 0001:00032710       ??_EFl_Choice@@UAEPAXI@Z   00433710 f i fltk:Fl_Choice.obj
 0001:00032710       ??_GFl_Choice@@UAEPAXI@Z   00433710 f i fltk:Fl_Choice.obj
 0001:00032740       ?show@Fl_Double_Window@@UAEXXZ 00433740 f   fltk:Fl_Double_Window.obj
 0001:00032760       ?fl_can_do_alpha_blending@@YADXZ 00433760 f   fltk:Fl_Double_Window.obj
 0001:000328b0       ?fl_makeDC@@YAPAUHDC__@@PAUHBITMAP__@@@Z 004338b0 f   fltk:Fl_Double_Window.obj
 0001:00032910       ?fl_copy_offscreen@@YAXHHHHPAUHBITMAP__@@HH@Z 00433910 f   fltk:Fl_Double_Window.obj
 0001:00032990       ?fl_copy_offscreen_with_alpha@@YAXHHHHPAUHBITMAP__@@HH@Z 00433990 f   fltk:Fl_Double_Window.obj
 0001:00032a60       ?flush@Fl_Double_Window@@UAEXXZ 00433a60 f   fltk:Fl_Double_Window.obj
 0001:00032a80       ?flush@Fl_Double_Window@@IAEXH@Z 00433a80 f   fltk:Fl_Double_Window.obj
 0001:00032be0       ?resize@Fl_Double_Window@@UAEXHHHH@Z 00433be0 f   fltk:Fl_Double_Window.obj
 0001:00032c70       ?hide@Fl_Double_Window@@UAEXXZ 00433c70 f   fltk:Fl_Double_Window.obj
 0001:00032cb0       ??1Fl_Double_Window@@UAE@XZ 00433cb0 f   fltk:Fl_Double_Window.obj
 0001:00032d10       ?position@Fl_Tile@@QAEXHHHH@Z 00433d10 f   fltk:Fl_Tile.obj
 0001:00032ed0       ?resize@Fl_Tile@@UAEXHHHH@Z 00433ed0 f   fltk:Fl_Tile.obj
 0001:000330e0       ?handle@Fl_Tile@@UAEHH@Z   004340e0 f   fltk:Fl_Tile.obj
 0001:00033560       ??1Fl_Image@@UAE@XZ        00434560 f   fltk:Fl_Image.obj
 0001:00033580       ?uncache@Fl_Image@@UAEXXZ  00434580 f   fltk:Fl_Image.obj
 0001:00033590       ?draw@Fl_Image@@UAEXHHHHHH@Z 00434590 f   fltk:Fl_Image.obj
 0001:000335b0       ?draw_empty@Fl_Image@@IAEXHH@Z 004345b0 f   fltk:Fl_Image.obj
 0001:00033690       ?copy@Fl_Image@@UAEPAV1@HH@Z 00434690 f   fltk:Fl_Image.obj
 0001:00033720       ?color_average@Fl_Image@@UAEXW4Fl_Color@@M@Z 00434720 f   fltk:Fl_Image.obj
 0001:00033730       ?desaturate@Fl_Image@@UAEXXZ 00434730 f   fltk:Fl_Image.obj
 0001:00033740       ?label@Fl_Image@@UAEXPAVFl_Widget@@@Z 00434740 f   fltk:Fl_Image.obj
 0001:00033760       ?label@Fl_Image@@UAEXPAUFl_Menu_Item@@@Z 00434760 f   fltk:Fl_Image.obj
 0001:00033790       ?labeltype@Fl_Image@@KAXPBUFl_Label@@HHHHW4Fl_Align@@@Z 00434790 f   fltk:Fl_Image.obj
 0001:00033860       ?measure@Fl_Image@@KAXPBUFl_Label@@AAH1@Z 00434860 f   fltk:Fl_Image.obj
 0001:000338a0       ??1Fl_RGB_Image@@UAE@XZ    004348a0 f   fltk:Fl_Image.obj
 0001:00033920       ?uncache@Fl_RGB_Image@@UAEXXZ 00434920 f   fltk:Fl_Image.obj
 0001:00033970       ?copy@Fl_RGB_Image@@UAEPAVFl_Image@@HH@Z 00434970 f   fltk:Fl_Image.obj
 0001:00034140       ?color_average@Fl_RGB_Image@@UAEXW4Fl_Color@@M@Z 00435140 f   fltk:Fl_Image.obj
 0001:00034520       ?desaturate@Fl_RGB_Image@@UAEXXZ 00435520 f   fltk:Fl_Image.obj
 0001:00034730       ?draw@Fl_RGB_Image@@UAEXHHHHHH@Z 00435730 f   fltk:Fl_Image.obj
 0001:00034c80       ?label@Fl_RGB_Image@@UAEXPAVFl_Widget@@@Z 00435c80 f   fltk:Fl_Image.obj
 0001:00034ca0       ?label@Fl_RGB_Image@@UAEXPAUFl_Menu_Item@@@Z 00435ca0 f   fltk:Fl_Image.obj
 0001:00034cd0       ??_EFl_RGB_Image@@UAEPAXI@Z 00435cd0 f i fltk:Fl_Image.obj
 0001:00034cd0       ??_GFl_RGB_Image@@UAEPAXI@Z 00435cd0 f i fltk:Fl_Image.obj
 0001:00034d00       ?fl_create_bitmask@@YAPAUHBITMAP__@@HHPBE@Z 00435d00 f   fltk:Fl_Bitmap.obj
 0001:00034fc0       ?fl_delete_bitmask@@YAXPAUHBITMAP__@@@Z 00435fc0 f   fltk:Fl_Bitmap.obj
 0001:00034fd0       ?fl_create_alphamask@@YAPAUHBITMAP__@@HHHHPBE@Z 00435fd0 f   fltk:Fl_Bitmap.obj
 0001:00035110       ?draw@Fl_Bitmap@@UAEXHHHHHH@Z 00436110 f   fltk:Fl_Bitmap.obj
 0001:000353f0       ??1Fl_Bitmap@@UAE@XZ       004363f0 f   fltk:Fl_Bitmap.obj
 0001:00035470       ?uncache@Fl_Bitmap@@UAEXXZ 00436470 f   fltk:Fl_Bitmap.obj
 0001:000354a0       ?label@Fl_Bitmap@@UAEXPAVFl_Widget@@@Z 004364a0 f   fltk:Fl_Bitmap.obj
 0001:000354c0       ?label@Fl_Bitmap@@UAEXPAUFl_Menu_Item@@@Z 004364c0 f   fltk:Fl_Bitmap.obj
 0001:000354f0       ?copy@Fl_Bitmap@@UAEPAVFl_Image@@HH@Z 004364f0 f   fltk:Fl_Bitmap.obj
 0001:000358f0       _fl_casenumericsort        004368f0 f   fltk:numericsort.obj
 0001:00035b40       _fl_numericsort            00436b40 f   fltk:numericsort.obj
 0001:00035b60       ?item_first@Fl_Browser@@MBEPAXXZ 00436b60 f   fltk:Fl_Browser.obj
 0001:00035b80       ?item_next@Fl_Browser@@MBEPAXPAX@Z 00436b80 f   fltk:Fl_Browser.obj
 0001:00035ba0       ?item_prev@Fl_Browser@@MBEPAXPAX@Z 00436ba0 f   fltk:Fl_Browser.obj
 0001:00035bc0       ?item_selected@Fl_Browser@@MBEHPAX@Z 00436bc0 f   fltk:Fl_Browser.obj
 0001:00035be0       ?item_select@Fl_Browser@@MAEXPAXH@Z 00436be0 f   fltk:Fl_Browser.obj
 0001:00035c20       ?find_line@Fl_Browser@@IBEPAUFL_BLINE@@H@Z 00436c20 f   fltk:Fl_Browser.obj
 0001:00035d50       ?lineno@Fl_Browser@@IBEHPAX@Z 00436d50 f   fltk:Fl_Browser.obj
 0001:00035ea0       ?_remove@Fl_Browser@@IAEPAUFL_BLINE@@H@Z 00436ea0 f   fltk:Fl_Browser.obj
 0001:00035f80       ?remove@Fl_Browser@@QAEXH@Z 00436f80 f   fltk:Fl_Browser.obj
 0001:00035fc0       ?insert@Fl_Browser@@IAEXHPAUFL_BLINE@@@Z 00436fc0 f   fltk:Fl_Browser.obj
 0001:00036140       ?insert@Fl_Browser@@QAEXHPBDPAX@Z 00437140 f   fltk:Fl_Browser.obj
 0001:000361b0       ?move@Fl_Browser@@QAEXHH@Z 004371b0 f   fltk:Fl_Browser.obj
 0001:000361f0       ?text@Fl_Browser@@QAEXHPBD@Z 004371f0 f   fltk:Fl_Browser.obj
 0001:00036330       ?data@Fl_Browser@@QAEXHPAX@Z 00437330 f   fltk:Fl_Browser.obj
 0001:00036370       ?item_height@Fl_Browser@@MBEHPAX@Z 00437370 f   fltk:Fl_Browser.obj
 0001:00036680       ?item_width@Fl_Browser@@MBEHPAX@Z 00437680 f   fltk:Fl_Browser.obj
 0001:00036920       ?full_height@Fl_Browser@@MBEHXZ 00437920 f   fltk:Fl_Browser.obj
 0001:00036940       ?incr_height@Fl_Browser@@MBEHXZ 00437940 f   fltk:Fl_Browser.obj
 0001:00036960       ?item_draw@Fl_Browser@@MBEXPAXHHHH@Z 00437960 f   fltk:Fl_Browser.obj
 0001:00036e10       ??0Fl_Browser@@QAE@HHHHPBD@Z 00437e10 f   fltk:Fl_Browser.obj
 0001:00036ec0       ?lineposition@Fl_Browser@@QAEXHW4Fl_Line_Position@1@@Z 00437ec0 f   fltk:Fl_Browser.obj
 0001:00036ff0       ?topline@Fl_Browser@@QBEHXZ 00437ff0 f   fltk:Fl_Browser.obj
 0001:00037020       ?clear@Fl_Browser@@QAEXXZ  00438020 f   fltk:Fl_Browser.obj
 0001:00037090       ?add@Fl_Browser@@QAEXPBDPAX@Z 00438090 f   fltk:Fl_Browser.obj
 0001:000370c0       ?text@Fl_Browser@@QBEPBDH@Z 004380c0 f   fltk:Fl_Browser.obj
 0001:00037100       ?data@Fl_Browser@@QBEPAXH@Z 00438100 f   fltk:Fl_Browser.obj
 0001:00037140       ?select@Fl_Browser@@QAEHHH@Z 00438140 f   fltk:Fl_Browser.obj
 0001:00037180       ?selected@Fl_Browser@@QBEHH@Z 00438180 f   fltk:Fl_Browser.obj
 0001:000371c0       ?show@Fl_Browser@@QAEXH@Z  004381c0 f   fltk:Fl_Browser.obj
 0001:00037240       ?hide@Fl_Browser@@QAEXH@Z  00438240 f   fltk:Fl_Browser.obj
 0001:000372c0       ?display@Fl_Browser@@QAEXHH@Z 004382c0 f   fltk:Fl_Browser.obj
 0001:00037310       ?visible@Fl_Browser@@QBEHH@Z 00438310 f   fltk:Fl_Browser.obj
 0001:00037350       ?value@Fl_Browser@@QBEHXZ  00438350 f   fltk:Fl_Browser.obj
 0001:00037380       ?swap@Fl_Browser@@IAEXPAUFL_BLINE@@0@Z 00438380 f   fltk:Fl_Browser.obj
 0001:00037560       ?swap@Fl_Browser@@QAEXHH@Z 00438560 f   fltk:Fl_Browser.obj
 0001:000375d0       ?fl_filename_absolute@@YAHPADHPBD@Z 004385d0 f   fltk:filename_absolute.obj
 0001:00037870       ?fl_filename_relative@@YAHPADHPBD@Z 00438870 f   fltk:filename_absolute.obj
 0001:00037e30       ?add@Fl_Menu_Item@@QAEHPBDHP6AXPAVFl_Widget@@PAX@Z2H@Z 00438e30 f   fltk:Fl_Menu_add.obj
 0001:000383a0       ?add@Fl_Menu_@@QAEHPBDHP6AXPAVFl_Widget@@PAX@Z2H@Z 004393a0 f   fltk:Fl_Menu_add.obj
 0001:000385c0       ?add@Fl_Menu_@@QAEHPBD@Z   004395c0 f   fltk:Fl_Menu_add.obj
 0001:000386f0       ?replace@Fl_Menu_@@QAEXHPBD@Z 004396f0 f   fltk:Fl_Menu_add.obj
 0001:00038780       ?remove@Fl_Menu_@@QAEXH@Z  00439780 f   fltk:Fl_Menu_add.obj
 0001:00038860       ??0Fl_File_Icon@@QAE@PBDHHPAF@Z 00439860 f   fltk:Fl_File_Icon.obj
 0001:00038900       ??1Fl_File_Icon@@QAE@XZ    00439900 f   fltk:Fl_File_Icon.obj
 0001:00038980       ?add@Fl_File_Icon@@QAEPAFF@Z 00439980 f   fltk:Fl_File_Icon.obj
 0001:00038a50       ?find@Fl_File_Icon@@SAPAV1@PBDH@Z 00439a50 f   fltk:Fl_File_Icon.obj
 0001:00038b20       ?draw@Fl_File_Icon@@QAEXHHHHW4Fl_Color@@H@Z 00439b20 f   fltk:Fl_File_Icon.obj
 0001:00038ff0       ?label@Fl_File_Icon@@QAEXPAVFl_Widget@@@Z 00439ff0 f   fltk:Fl_File_Icon.obj
 0001:00039020       ?labeltype@Fl_File_Icon@@SAXPBUFl_Label@@HHHHW4Fl_Align@@@Z 0043a020 f   fltk:Fl_File_Icon.obj
 0001:00039060       ?_fl_filename_isdir_quick@@YAHPBD@Z 0043a060 f   fltk:filename_isdir.obj
 0001:000390d0       ?fl_filename_isdir@@YAHPBD@Z 0043a0d0 f   fltk:filename_isdir.obj
 0001:00039280       ?fl_filename_expand@@YAHPADHPBD@Z 0043a280 f   fltk:filename_expand.obj
 0001:00039510       ?images@Fl_Shared_Image@@SAPAPAV1@XZ 0043a510 f   fltk:Fl_Shared_Image.obj
 0001:00039520       ?num_images@Fl_Shared_Image@@SAHXZ 0043a520 f   fltk:Fl_Shared_Image.obj
 0001:00039530       ?compare@Fl_Shared_Image@@KAHPAPAV1@0@Z 0043a530 f   fltk:Fl_Shared_Image.obj
 0001:00039610       ??0Fl_Shared_Image@@IAE@XZ 0043a610 f   fltk:Fl_Shared_Image.obj
 0001:000396a0       ??0Fl_Shared_Image@@IAE@PBDPAVFl_Image@@@Z 0043a6a0 f   fltk:Fl_Shared_Image.obj
 0001:000397c0       ?add@Fl_Shared_Image@@IAEXXZ 0043a7c0 f   fltk:Fl_Shared_Image.obj
 0001:000398a0       ?update@Fl_Shared_Image@@IAEXXZ 0043a8a0 f   fltk:Fl_Shared_Image.obj
 0001:00039920       ??1Fl_Shared_Image@@MAE@XZ 0043a920 f   fltk:Fl_Shared_Image.obj
 0001:000399d0       ?release@Fl_Shared_Image@@QAEXXZ 0043a9d0 f   fltk:Fl_Shared_Image.obj
 0001:00039ae0       ?reload@Fl_Shared_Image@@QAEXXZ 0043aae0 f   fltk:Fl_Shared_Image.obj
 0001:00039e30       ?copy@Fl_Shared_Image@@UAEPAVFl_Image@@HH@Z 0043ae30 f   fltk:Fl_Shared_Image.obj
 0001:00039f50       ?color_average@Fl_Shared_Image@@UAEXW4Fl_Color@@M@Z 0043af50 f   fltk:Fl_Shared_Image.obj
 0001:00039f90       ?desaturate@Fl_Shared_Image@@UAEXXZ 0043af90 f   fltk:Fl_Shared_Image.obj
 0001:00039fd0       ?draw@Fl_Shared_Image@@UAEXHHHHHH@Z 0043afd0 f   fltk:Fl_Shared_Image.obj
 0001:0003a040       ?uncache@Fl_Shared_Image@@UAEXXZ 0043b040 f   fltk:Fl_Shared_Image.obj
 0001:0003a070       ?find@Fl_Shared_Image@@SAPAV1@PBDHH@Z 0043b070 f   fltk:Fl_Shared_Image.obj
 0001:0003a1c0       ?get@Fl_Shared_Image@@SAPAV1@PBDHH@Z 0043b1c0 f   fltk:Fl_Shared_Image.obj
 0001:0003a310       ?add_handler@Fl_Shared_Image@@SAXP6APAVFl_Image@@PBDPAEH@Z@Z 0043b310 f   fltk:Fl_Shared_Image.obj
 0001:0003a400       ?remove_handler@Fl_Shared_Image@@SAXP6APAVFl_Image@@PBDPAEH@Z@Z 0043b400 f   fltk:Fl_Shared_Image.obj
 0001:0003a490       ??_GFl_Shared_Image@@MAEPAXI@Z 0043b490 f i fltk:Fl_Shared_Image.obj
 0001:0003a490       ??_EFl_Shared_Image@@MAEPAXI@Z 0043b490 f i fltk:Fl_Shared_Image.obj
 0001:0003a4c0       ?increment_cb@Fl_Scrollbar@@AAEXXZ 0043b4c0 f   fltk:Fl_Scrollbar.obj
 0001:0003a630       ?timeout_cb@Fl_Scrollbar@@CAXPAX@Z 0043b630 f   fltk:Fl_Scrollbar.obj
 0001:0003a670       ?handle@Fl_Scrollbar@@UAEHH@Z 0043b670 f   fltk:Fl_Scrollbar.obj
 0001:0003afa0       ?draw@Fl_Scrollbar@@MAEXXZ 0043bfa0 f   fltk:Fl_Scrollbar.obj
 0001:0003b740       ??0Fl_Scrollbar@@QAE@HHHHPBD@Z 0043c740 f   fltk:Fl_Scrollbar.obj
 0001:0003b7c0       ??1Fl_Scrollbar@@UAE@XZ    0043c7c0 f   fltk:Fl_Scrollbar.obj
 0001:0003b840       ??_GFl_Scrollbar@@UAEPAXI@Z 0043c840 f i fltk:Fl_Scrollbar.obj
 0001:0003b840       ??_EFl_Scrollbar@@UAEPAXI@Z 0043c840 f i fltk:Fl_Scrollbar.obj
 0001:0003b870       ??1Fl_Slider@@UAE@XZ       0043c870 f i fltk:Fl_Scrollbar.obj
 0001:0003b890       ??0Fl_Text_Buffer@@QAE@H@Z 0043c890 f   fltk:Fl_Text_Buffer.obj
 0001:0003b9b0       ??1Fl_Text_Buffer@@QAE@XZ  0043c9b0 f   fltk:Fl_Text_Buffer.obj
 0001:0003ba40       ?text@Fl_Text_Buffer@@QAEPADXZ 0043ca40 f   fltk:Fl_Text_Buffer.obj
 0001:0003bac0       ?text@Fl_Text_Buffer@@QAEXPBD@Z 0043cac0 f   fltk:Fl_Text_Buffer.obj
 0001:0003bbe0       ?text_range@Fl_Text_Buffer@@QAEPADHH@Z 0043cbe0 f   fltk:Fl_Text_Buffer.obj
 0001:0003bd20       ?character@Fl_Text_Buffer@@QAEDH@Z 0043cd20 f   fltk:Fl_Text_Buffer.obj
 0001:0003bd80       ?insert@Fl_Text_Buffer@@QAEXHPBD@Z 0043cd80 f   fltk:Fl_Text_Buffer.obj
 0001:0003be00       ?replace@Fl_Text_Buffer@@QAEXHHPBD@Z 0043ce00 f   fltk:Fl_Text_Buffer.obj
 0001:0003bec0       ?remove@Fl_Text_Buffer@@QAEXHH@Z 0043cec0 f   fltk:Fl_Text_Buffer.obj
 0001:0003bfa0       ?copy@Fl_Text_Buffer@@QAEXPAV1@HHH@Z 0043cfa0 f   fltk:Fl_Text_Buffer.obj
 0001:0003c0f0       ?undo@Fl_Text_Buffer@@QAEHPAH@Z 0043d0f0 f   fltk:Fl_Text_Buffer.obj
 0001:0003c2d0       ?canUndo@Fl_Text_Buffer@@QAEXD@Z 0043d2d0 f   fltk:Fl_Text_Buffer.obj
 0001:0003c2f0       ?insert_column@Fl_Text_Buffer@@QAEXHHPBDPAH1@Z 0043d2f0 f   fltk:Fl_Text_Buffer.obj
 0001:0003c3e0       ?overlay_rectangular@Fl_Text_Buffer@@QAEXHHHPBDPAH1@Z 0043d3e0 f   fltk:Fl_Text_Buffer.obj
 0001:0003c4e0       ?replace_rectangular@Fl_Text_Buffer@@QAEXHHHHPBD@Z 0043d4e0 f   fltk:Fl_Text_Buffer.obj
 0001:0003c6c0       ?remove_rectangular@Fl_Text_Buffer@@QAEXHHHH@Z 0043d6c0 f   fltk:Fl_Text_Buffer.obj
 0001:0003c760       ?clear_rectangular@Fl_Text_Buffer@@QAEXHHHH@Z 0043d760 f   fltk:Fl_Text_Buffer.obj
 0001:0003c7f0       ?text_in_rectangle@Fl_Text_Buffer@@QAEPADHHHH@Z 0043d7f0 f   fltk:Fl_Text_Buffer.obj
 0001:0003c930       ?tab_distance@Fl_Text_Buffer@@QAEXH@Z 0043d930 f   fltk:Fl_Text_Buffer.obj
 0001:0003c990       ?select@Fl_Text_Buffer@@QAEXHH@Z 0043d990 f   fltk:Fl_Text_Buffer.obj
 0001:0003c9e0       ?unselect@Fl_Text_Buffer@@QAEXXZ 0043d9e0 f   fltk:Fl_Text_Buffer.obj
 0001:0003ca30       ?select_rectangular@Fl_Text_Buffer@@QAEXHHHH@Z 0043da30 f   fltk:Fl_Text_Buffer.obj
 0001:0003ca90       ?selection_position@Fl_Text_Buffer@@QAEHPAH0@Z 0043da90 f   fltk:Fl_Text_Buffer.obj
 0001:0003cab0       ?selection_position@Fl_Text_Buffer@@QAEHPAH0000@Z 0043dab0 f   fltk:Fl_Text_Buffer.obj
 0001:0003cae0       ?selection_text@Fl_Text_Buffer@@QAEPADXZ 0043dae0 f   fltk:Fl_Text_Buffer.obj
 0001:0003cb00       ?remove_selection@Fl_Text_Buffer@@QAEXXZ 0043db00 f   fltk:Fl_Text_Buffer.obj
 0001:0003cb20       ?replace_selection@Fl_Text_Buffer@@QAEXPBD@Z 0043db20 f   fltk:Fl_Text_Buffer.obj
 0001:0003cb40       ?secondary_select@Fl_Text_Buffer@@QAEXHH@Z 0043db40 f   fltk:Fl_Text_Buffer.obj
 0001:0003cba0       ?secondary_unselect@Fl_Text_Buffer@@QAEXXZ 0043dba0 f   fltk:Fl_Text_Buffer.obj
 0001:0003cbf0       ?secondary_select_rectangular@Fl_Text_Buffer@@QAEXHHHH@Z 0043dbf0 f   fltk:Fl_Text_Buffer.obj
 0001:0003cc50       ?secondary_selection_position@Fl_Text_Buffer@@QAEHPAH0@Z 0043dc50 f   fltk:Fl_Text_Buffer.obj
 0001:0003cc70       ?secondary_selection_position@Fl_Text_Buffer@@QAEHPAH0000@Z 0043dc70 f   fltk:Fl_Text_Buffer.obj
 0001:0003cca0       ?secondary_selection_text@Fl_Text_Buffer@@QAEPADXZ 0043dca0 f   fltk:Fl_Text_Buffer.obj
 0001:0003ccc0       ?remove_secondary_selection@Fl_Text_Buffer@@QAEXXZ 0043dcc0 f   fltk:Fl_Text_Buffer.obj
 0001:0003cce0       ?replace_secondary_selection@Fl_Text_Buffer@@QAEXPBD@Z 0043dce0 f   fltk:Fl_Text_Buffer.obj
 0001:0003cd00       ?highlight@Fl_Text_Buffer@@QAEXHH@Z 0043dd00 f   fltk:Fl_Text_Buffer.obj
 0001:0003cd60       ?unhighlight@Fl_Text_Buffer@@QAEXXZ 0043dd60 f   fltk:Fl_Text_Buffer.obj
 0001:0003cdb0       ?highlight_rectangular@Fl_Text_Buffer@@QAEXHHHH@Z 0043ddb0 f   fltk:Fl_Text_Buffer.obj
 0001:0003ce10       ?highlight_position@Fl_Text_Buffer@@QAEHPAH0@Z 0043de10 f   fltk:Fl_Text_Buffer.obj
 0001:0003ce30       ?highlight_position@Fl_Text_Buffer@@QAEHPAH0000@Z 0043de30 f   fltk:Fl_Text_Buffer.obj
 0001:0003ce60       ?highlight_text@Fl_Text_Buffer@@QAEPADXZ 0043de60 f   fltk:Fl_Text_Buffer.obj
 0001:0003ce80       ?add_modify_callback@Fl_Text_Buffer@@QAEXP6AXHHHHPBDPAX@Z1@Z 0043de80 f   fltk:Fl_Text_Buffer.obj
 0001:0003cfa0       ?remove_modify_callback@Fl_Text_Buffer@@QAEXP6AXHHHHPBDPAX@Z1@Z 0043dfa0 f   fltk:Fl_Text_Buffer.obj
 0001:0003d1a0       ?add_predelete_callback@Fl_Text_Buffer@@QAEXP6AXHHPAX@Z0@Z 0043e1a0 f   fltk:Fl_Text_Buffer.obj
 0001:0003d2c0       ?remove_predelete_callback@Fl_Text_Buffer@@QAEXP6AXHHPAX@Z0@Z 0043e2c0 f   fltk:Fl_Text_Buffer.obj
 0001:0003d4c0       ?line_text@Fl_Text_Buffer@@QAEPADH@Z 0043e4c0 f   fltk:Fl_Text_Buffer.obj
 0001:0003d4f0       ?line_start@Fl_Text_Buffer@@QAEHH@Z 0043e4f0 f   fltk:Fl_Text_Buffer.obj
 0001:0003d520       ?line_end@Fl_Text_Buffer@@QAEHH@Z 0043e520 f   fltk:Fl_Text_Buffer.obj
 0001:0003d550       ?word_start@Fl_Text_Buffer@@QAEHH@Z 0043e550 f   fltk:Fl_Text_Buffer.obj
 0001:0003d5e0       ?word_end@Fl_Text_Buffer@@QAEHH@Z 0043e5e0 f   fltk:Fl_Text_Buffer.obj
 0001:0003d640       ?expand_character@Fl_Text_Buffer@@QAEHHHPAD@Z 0043e640 f   fltk:Fl_Text_Buffer.obj
 0001:0003d680       ?expand_character@Fl_Text_Buffer@@SAHDHPADHD@Z 0043e680 f   fltk:Fl_Text_Buffer.obj
 0001:0003d760       ?character_width@Fl_Text_Buffer@@SAHDHHD@Z 0043e760 f   fltk:Fl_Text_Buffer.obj
 0001:0003d7d0       ?count_displayed_characters@Fl_Text_Buffer@@QAEHHH@Z 0043e7d0 f   fltk:Fl_Text_Buffer.obj
 0001:0003d840       ?skip_displayed_characters@Fl_Text_Buffer@@QAEHHH@Z 0043e840 f   fltk:Fl_Text_Buffer.obj
 0001:0003d8c0       ?count_lines@Fl_Text_Buffer@@QAEHHH@Z 0043e8c0 f   fltk:Fl_Text_Buffer.obj
 0001:0003d970       ?skip_lines@Fl_Text_Buffer@@QAEHHH@Z 0043e970 f   fltk:Fl_Text_Buffer.obj
 0001:0003da30       ?rewind_lines@Fl_Text_Buffer@@QAEHHH@Z 0043ea30 f   fltk:Fl_Text_Buffer.obj
 0001:0003daf0       ?search_forward@Fl_Text_Buffer@@QAEHHPBDPAHH@Z 0043eaf0 f   fltk:Fl_Text_Buffer.obj
 0001:0003dc30       ?search_backward@Fl_Text_Buffer@@QAEHHPBDPAHH@Z 0043ec30 f   fltk:Fl_Text_Buffer.obj
 0001:0003dd70       ?findchars_forward@Fl_Text_Buffer@@QAEHHPBDPAH@Z 0043ed70 f   fltk:Fl_Text_Buffer.obj
 0001:0003de60       ?findchars_backward@Fl_Text_Buffer@@QAEHHPBDPAH@Z 0043ee60 f   fltk:Fl_Text_Buffer.obj
 0001:0003df70       ?substitute_null_characters@Fl_Text_Buffer@@QAEHPADH@Z 0043ef70 f   fltk:Fl_Text_Buffer.obj
 0001:0003e0d0       ?unsubstitute_null_characters@Fl_Text_Buffer@@QAEXPAD@Z 0043f0d0 f   fltk:Fl_Text_Buffer.obj
 0001:0003e230       ?insert_@Fl_Text_Buffer@@IAEHHPBD@Z 0043f230 f   fltk:Fl_Text_Buffer.obj
 0001:0003e360       ?remove_@Fl_Text_Buffer@@IAEXHH@Z 0043f360 f   fltk:Fl_Text_Buffer.obj
 0001:0003e580       ?insert_column_@Fl_Text_Buffer@@IAEXHHPBDPAH11@Z 0043f580 f   fltk:Fl_Text_Buffer.obj
 0001:0003e850       ?remove_rectangular_@Fl_Text_Buffer@@IAEXHHHHPAH0@Z 0043f850 f   fltk:Fl_Text_Buffer.obj
 0001:0003ea20       ?overlay_rectangular_@Fl_Text_Buffer@@IAEXHHHPBDPAH11@Z 0043fa20 f   fltk:Fl_Text_Buffer.obj
 0001:0003f3b0       ?set@Fl_Text_Selection@@QAEXHH@Z 004403b0 f   fltk:Fl_Text_Buffer.obj
 0001:0003f400       ?set_rectangular@Fl_Text_Selection@@QAEXHHHH@Z 00440400 f   fltk:Fl_Text_Buffer.obj
 0001:0003f450       ?position@Fl_Text_Selection@@QAEHPAH0@Z 00440450 f   fltk:Fl_Text_Buffer.obj
 0001:0003f490       ?position@Fl_Text_Selection@@QAEHPAH0000@Z 00440490 f   fltk:Fl_Text_Buffer.obj
 0001:0003f500       ?includes@Fl_Text_Selection@@QAEHHHH@Z 00440500 f   fltk:Fl_Text_Buffer.obj
 0001:0003f5c0       ?selection_text_@Fl_Text_Buffer@@IAEPADPAVFl_Text_Selection@@@Z 004405c0 f   fltk:Fl_Text_Buffer.obj
 0001:0003f640       ?remove_selection_@Fl_Text_Buffer@@IAEXPAVFl_Text_Selection@@@Z 00440640 f   fltk:Fl_Text_Buffer.obj
 0001:0003f6b0       ?replace_selection_@Fl_Text_Buffer@@IAEXPAVFl_Text_Selection@@PBD@Z 004406b0 f   fltk:Fl_Text_Buffer.obj
 0001:0003f810       ?call_modify_callbacks@Fl_Text_Buffer@@IAEXHHHHPBD@Z 00440810 f   fltk:Fl_Text_Buffer.obj
 0001:0003f870       ?call_predelete_callbacks@Fl_Text_Buffer@@IAEXHH@Z 00440870 f   fltk:Fl_Text_Buffer.obj
 0001:0003f8d0       ?redisplay_selection@Fl_Text_Buffer@@IAEXPAVFl_Text_Selection@@0@Z 004408d0 f   fltk:Fl_Text_Buffer.obj
 0001:0003fb10       ?move_gap@Fl_Text_Buffer@@IAEXH@Z 00440b10 f   fltk:Fl_Text_Buffer.obj
 0001:0003fbc0       ?reallocate_with_gap@Fl_Text_Buffer@@IAEXHH@Z 00440bc0 f   fltk:Fl_Text_Buffer.obj
 0001:0003fd10       ?update_selections@Fl_Text_Buffer@@IAEXHHH@Z 00440d10 f   fltk:Fl_Text_Buffer.obj
 0001:0003fd60       ?update@Fl_Text_Selection@@QAEXHHH@Z 00440d60 f   fltk:Fl_Text_Buffer.obj
 0001:0003fe60       ?findchar_forward@Fl_Text_Buffer@@QAEHHDPAH@Z 00440e60 f   fltk:Fl_Text_Buffer.obj
 0001:0003ff30       ?findchar_backward@Fl_Text_Buffer@@QAEHHDPAH@Z 00440f30 f   fltk:Fl_Text_Buffer.obj
 0001:00040160       ?rectangular_selection_boundaries@Fl_Text_Buffer@@IAEXHHHPAH0@Z 00441160 f   fltk:Fl_Text_Buffer.obj
 0001:000406f0       ?insertfile@Fl_Text_Buffer@@QAEHPBDHH@Z 004416f0 f   fltk:Fl_Text_Buffer.obj
 0001:000407c0       ?outputfile@Fl_Text_Buffer@@QAEHPBDHHH@Z 004417c0 f   fltk:Fl_Text_Buffer.obj
 0001:00040890       ?show@Fl_Menu_Window@@UAEXXZ 00441890 f   fltk:Fl_Menu_Window.obj
 0001:000408b0       ?flush@Fl_Menu_Window@@UAEXXZ 004418b0 f   fltk:Fl_Menu_Window.obj
 0001:000408d0       ?erase@Fl_Menu_Window@@QAEXXZ 004418d0 f   fltk:Fl_Menu_Window.obj
 0001:000408e0       ?hide@Fl_Menu_Window@@UAEXXZ 004418e0 f   fltk:Fl_Menu_Window.obj
 0001:00040900       ??1Fl_Menu_Window@@UAE@XZ  00441900 f   fltk:Fl_Menu_Window.obj
 0001:00040960       ??1Fl_Single_Window@@UAE@XZ 00441960 f i fltk:Fl_Menu_Window.obj
 0001:00040980       ?show@Fl_Single_Window@@UAEXXZ 00441980 f   fltk:Fl_Single_Window.obj
 0001:000409a0       ?flush@Fl_Single_Window@@UAEXXZ 004419a0 f   fltk:Fl_Single_Window.obj
 0001:000409c0       ?fl_arc_i@@YAXHHHHNN@Z     004419c0 f   fltk:fl_round_box.obj
 0001:000409f0       ?fl_round_down_box@@YAXHHHHW4Fl_Color@@@Z 004419f0 f   fltk:fl_round_box.obj
 0001:00040f90       ?fl_round_up_box@@YAXHHHHW4Fl_Color@@@Z 00441f90 f   fltk:fl_round_box.obj
 0001:00041120       ?fl_define_FL_ROUND_UP_BOX@@YA?AW4Fl_Boxtype@@XZ 00442120 f   fltk:fl_round_box.obj
 0001:00041150       ?gtk_round_up_box@@YAXHHHHW4Fl_Color@@@Z 00442150 f   fltk:fl_gtk.obj
 0001:000418e0       ?gtk_round_down_box@@YAXHHHHW4Fl_Color@@@Z 004428e0 f   fltk:fl_gtk.obj
 0001:00041a10       ?fl_define_FL_GTK_UP_BOX@@YA?AW4Fl_Boxtype@@XZ 00442a10 f   fltk:fl_gtk.obj
 0001:00042580       ?fl_define_FL_PLASTIC_UP_BOX@@YA?AW4Fl_Boxtype@@XZ 00443580 f   fltk:fl_plastic.obj
 0001:000441a0       ??0Fl_Tiled_Image@@QAE@PAVFl_Image@@HH@Z 004451a0 f   fltk:Fl_Tiled_Image.obj
 0001:00044280       ??1Fl_Tiled_Image@@UAE@XZ  00445280 f   fltk:Fl_Tiled_Image.obj
 0001:00044310       ?copy@Fl_Tiled_Image@@UAEPAVFl_Image@@HH@Z 00445310 f   fltk:Fl_Tiled_Image.obj
 0001:000443c0       ?color_average@Fl_Tiled_Image@@UAEXW4Fl_Color@@M@Z 004453c0 f   fltk:Fl_Tiled_Image.obj
 0001:00044440       ?desaturate@Fl_Tiled_Image@@UAEXXZ 00445440 f   fltk:Fl_Tiled_Image.obj
 0001:000444b0       ?draw@Fl_Tiled_Image@@UAEXHHHHHH@Z 004454b0 f   fltk:Fl_Tiled_Image.obj
 0001:00044610       ??_EFl_Tiled_Image@@UAEPAXI@Z 00445610 f i fltk:Fl_Tiled_Image.obj
 0001:00044610       ??_GFl_Tiled_Image@@UAEPAXI@Z 00445610 f i fltk:Fl_Tiled_Image.obj
 0001:00044640       ?measure@Fl_Pixmap@@IAEXXZ 00445640 f   fltk:Fl_Pixmap.obj
 0001:000446b0       ?draw@Fl_Pixmap@@UAEXHHHHHH@Z 004456b0 f   fltk:Fl_Pixmap.obj
 0001:00044a30       ??1Fl_Pixmap@@UAE@XZ       00445a30 f   fltk:Fl_Pixmap.obj
 0001:00044aa0       ?uncache@Fl_Pixmap@@UAEXXZ 00445aa0 f   fltk:Fl_Pixmap.obj
 0001:00044af0       ?label@Fl_Pixmap@@UAEXPAVFl_Widget@@@Z 00445af0 f   fltk:Fl_Pixmap.obj
 0001:00044b10       ?label@Fl_Pixmap@@UAEXPAUFl_Menu_Item@@@Z 00445b10 f   fltk:Fl_Pixmap.obj
 0001:00044b40       ?copy_data@Fl_Pixmap@@AAEXXZ 00445b40 f   fltk:Fl_Pixmap.obj
 0001:00044de0       ?copy@Fl_Pixmap@@UAEPAVFl_Image@@HH@Z 00445de0 f   fltk:Fl_Pixmap.obj
 0001:000453e0       ?color_average@Fl_Pixmap@@UAEXW4Fl_Color@@M@Z 004463e0 f   fltk:Fl_Pixmap.obj
 0001:00045960       ?delete_data@Fl_Pixmap@@AAEXXZ 00446960 f   fltk:Fl_Pixmap.obj
 0001:000459e0       ?set_data@Fl_Pixmap@@AAEXPBQBD@Z 004469e0 f   fltk:Fl_Pixmap.obj
 0001:00045a60       ?desaturate@Fl_Pixmap@@UAEXXZ 00446a60 f   fltk:Fl_Pixmap.obj
 0001:00045ee0       ??0Fl_Pixmap@@QAE@PBQAD@Z  00446ee0 f i fltk:Fl_Pixmap.obj
 0001:00045fb0       ?fl_arc@@YAXHHHHNN@Z       00446fb0 f   fltk:fl_arci.obj
 0001:00046180       ?fl_pie@@YAXHHHHNN@Z       00447180 f   fltk:fl_arci.obj
 0001:000463c0       ?fl_add_symbol@@YAHPBDP6AXW4Fl_Color@@@ZH@Z 004473c0 f   fltk:fl_symbols.obj
 0001:00046590       ?fl_draw_symbol@@YAHPBDHHHHW4Fl_Color@@@Z 00447590 f   fltk:fl_symbols.obj
 0001:00049f50       ?fl_filename_match@@YAHPBD0@Z 0044af50 f   fltk:filename_match.obj
 0001:0004a3c0       _fl_alphasort              0044b3c0 f   fltk:filename_list.obj
 0001:0004a3e0       _fl_casealphasort          0044b3e0 f   fltk:filename_list.obj
 0001:0004a400       ?fl_filename_list@@YAHPBDPAPAPAUdirent@@P6AHPAPAU1@2@Z@Z 0044b400 f   fltk:filename_list.obj
 0001:0004a430       ?fl_draw_image@@YAXPBEHHHHHH@Z 0044b430 f   fltk:fl_draw_image.obj
 0001:0004ae10       ?fl_draw_image@@YAXP6AXPAXHHHPAE@Z0HHHHH@Z 0044be10 f   fltk:fl_draw_image.obj
 0001:0004aed0       ?fl_draw_image_mono@@YAXPBEHHHHHH@Z 0044bed0 f   fltk:fl_draw_image.obj
 0001:0004af50       ?fl_draw_image_mono@@YAXP6AXPAXHHHPAE@Z0HHHHH@Z 0044bf50 f   fltk:fl_draw_image.obj
 0001:0004afd0       ?fl_rectf@@YAXHHHHEEE@Z    0044bfd0 f   fltk:fl_draw_image.obj
 0001:0004b050       ?fl_push_matrix@@YAXXZ     0044c050 f   fltk:fl_vertex.obj
 0001:0004b0a0       ?fl_pop_matrix@@YAXXZ      0044c0a0 f   fltk:fl_vertex.obj
 0001:0004b0f0       ?fl_mult_matrix@@YAXNNNNNN@Z 0044c0f0 f   fltk:fl_vertex.obj
 0001:0004b1e0       ?fl_scale@@YAXNN@Z         0044c1e0 f   fltk:fl_vertex.obj
 0001:0004b220       ?fl_scale@@YAXN@Z          0044c220 f   fltk:fl_vertex.obj
 0001:0004b260       ?fl_translate@@YAXNN@Z     0044c260 f   fltk:fl_vertex.obj
 0001:0004b2a0       ?fl_rotate@@YAXN@Z         0044c2a0 f   fltk:fl_vertex.obj
 0001:0004b3d0       ?fl_begin_points@@YAXXZ    0044c3d0 f   fltk:fl_vertex.obj
 0001:0004b3f0       ?fl_begin_line@@YAXXZ      0044c3f0 f   fltk:fl_vertex.obj
 0001:0004b410       ?fl_begin_loop@@YAXXZ      0044c410 f   fltk:fl_vertex.obj
 0001:0004b430       ?fl_begin_polygon@@YAXXZ   0044c430 f   fltk:fl_vertex.obj
 0001:0004b450       ?fl_transform_x@@YANNN@Z   0044c450 f   fltk:fl_vertex.obj
 0001:0004b470       ?fl_transform_y@@YANNN@Z   0044c470 f   fltk:fl_vertex.obj
 0001:0004b490       ?fl_transform_dx@@YANNN@Z  0044c490 f   fltk:fl_vertex.obj
 0001:0004b4b0       ?fl_transform_dy@@YANNN@Z  0044c4b0 f   fltk:fl_vertex.obj
 0001:0004b4d0       ?fl_transformed_vertex@@YAXNN@Z 0044c4d0 f   fltk:fl_vertex.obj
 0001:0004b5f0       ?fl_vertex@@YAXNN@Z        0044c5f0 f   fltk:fl_vertex.obj
 0001:0004b640       ?fl_end_points@@YAXXZ      0044c640 f   fltk:fl_vertex.obj
 0001:0004b6a0       ?fl_end_line@@YAXXZ        0044c6a0 f   fltk:fl_vertex.obj
 0001:0004b6e0       ?fl_end_loop@@YAXXZ        0044c6e0 f   fltk:fl_vertex.obj
 0001:0004b780       ?fl_end_polygon@@YAXXZ     0044c780 f   fltk:fl_vertex.obj
 0001:0004b7d0       ?fl_begin_complex_polygon@@YAXXZ 0044c7d0 f   fltk:fl_vertex.obj
 0001:0004b7f0       ?fl_gap@@YAXXZ             0044c7f0 f   fltk:fl_vertex.obj
 0001:0004b8d0       ?fl_end_complex_polygon@@YAXXZ 0044c8d0 f   fltk:fl_vertex.obj
 0001:0004b930       ?fl_circle@@YAXNNN@Z       0044c930 f   fltk:fl_vertex.obj
 0001:0004bb40       ??0Fl_XPM_Image@@QAE@PBD@Z 0044cb40 f   fltk:Fl_XPM_Image.obj
 0001:0004c0d0       ??_EFl_XPM_Image@@UAEPAXI@Z 0044d0d0 f i fltk:Fl_XPM_Image.obj
 0001:0004c0d0       ??_GFl_XPM_Image@@UAEPAXI@Z 0044d0d0 f i fltk:Fl_XPM_Image.obj
 0001:0004c100       ??0Fl_XBM_Image@@QAE@PBD@Z 0044d100 f   fltk:Fl_XBM_Image.obj
 0001:0004c460       ??_EFl_XBM_Image@@UAEPAXI@Z 0044d460 f i fltk:Fl_XBM_Image.obj
 0001:0004c460       ??_GFl_XBM_Image@@UAEPAXI@Z 0044d460 f i fltk:Fl_XBM_Image.obj
 0001:0004c490       ?fl_measure_pixmap@@YAHPBQADAAH1@Z 0044d490 f   fltk:fl_draw_pixmap.obj
 0001:0004c4b0       ?fl_measure_pixmap@@YAHPBQBDAAH1@Z 0044d4b0 f   fltk:fl_draw_pixmap.obj
 0001:0004c520       ?fl_draw_pixmap@@YAHPBQADHHW4Fl_Color@@@Z 0044d520 f   fltk:fl_draw_pixmap.obj
 0001:0004c540       ?fl_draw_pixmap@@YAHPBQBDHHW4Fl_Color@@@Z 0044d540 f   fltk:fl_draw_pixmap.obj
 0001:0004d000       ?fl_line_style@@YAXHHPAD@Z 0044e000 f   fltk:fl_line_style.obj
 0001:0004d160       _fl_scandir                0044e160 f   fltk:scandir.obj
 0001:0004d510       ?can_do@Fl_Gl_Window@@CAHHPBH@Z 0044e510 f   fltkgl:Fl_Gl_Window.obj
 0001:0004d530       ?show@Fl_Gl_Window@@UAEXXZ 0044e530 f   fltkgl:Fl_Gl_Window.obj
 0001:0004d610       ?invalidate@Fl_Gl_Window@@QAEXXZ 0044e610 f   fltkgl:Fl_Gl_Window.obj
 0001:0004d690       ?mode@Fl_Gl_Window@@AAEHHPBH@Z 0044e690 f   fltkgl:Fl_Gl_Window.obj
 0001:0004d770       ?make_current@Fl_Gl_Window@@QAEXXZ 0044e770 f   fltkgl:Fl_Gl_Window.obj
 0001:0004d8d0       ?ortho@Fl_Gl_Window@@QAEXXZ 0044e8d0 f   fltkgl:Fl_Gl_Window.obj
 0001:0004d990       ?swap_buffers@Fl_Gl_Window@@QAEXXZ 0044e990 f   fltkgl:Fl_Gl_Window.obj
 0001:0004d9d0       ?flush@Fl_Gl_Window@@UAEXXZ 0044e9d0 f   fltkgl:Fl_Gl_Window.obj
 0001:0004df10       ?resize@Fl_Gl_Window@@UAEXHHHH@Z 0044ef10 f   fltkgl:Fl_Gl_Window.obj
 0001:0004df90       ?context@Fl_Gl_Window@@QAEXPAXH@Z 0044ef90 f   fltkgl:Fl_Gl_Window.obj
 0001:0004e010       ?hide@Fl_Gl_Window@@UAEXXZ 0044f010 f   fltkgl:Fl_Gl_Window.obj
 0001:0004e070       ??1Fl_Gl_Window@@UAE@XZ    0044f070 f   fltkgl:Fl_Gl_Window.obj
 0001:0004e0d0       ?init@Fl_Gl_Window@@AAEXXZ 0044f0d0 f   fltkgl:Fl_Gl_Window.obj
 0001:0004e140       ?draw_overlay@Fl_Gl_Window@@EAEXXZ 0044f140 f   fltkgl:Fl_Gl_Window.obj
 0001:0004e150       ?find@Fl_Gl_Choice@@SAPAV1@HPBH@Z 0044f150 f   fltkgl:Fl_Gl_Choice.obj
 0001:0004e380       ?fl_create_gl_context@@YAPAUHGLRC__@@PAVFl_Window@@PBVFl_Gl_Choice@@H@Z 0044f380 f   fltkgl:Fl_Gl_Choice.obj
 0001:0004e4f0       ?fl_set_gl_context@@YAXPAVFl_Window@@PAUHGLRC__@@@Z 0044f4f0 f   fltkgl:Fl_Gl_Choice.obj
 0001:0004e540       ?fl_no_gl_context@@YAXXZ   0044f540 f   fltkgl:Fl_Gl_Choice.obj
 0001:0004e570       ?fl_delete_gl_context@@YAXPAUHGLRC__@@@Z 0044f570 f   fltkgl:Fl_Gl_Choice.obj
 0001:0004e640       ?gl_height@@YAHXZ          0044f640 f   fltkgl:gl_draw.obj
 0001:0004e650       ?gl_descent@@YAHXZ         0044f650 f   fltkgl:gl_draw.obj
 0001:0004e660       ?gl_width@@YANPBD@Z        0044f660 f   fltkgl:gl_draw.obj
 0001:0004e680       ?gl_width@@YANPBDH@Z       0044f680 f   fltkgl:gl_draw.obj
 0001:0004e6a0       ?gl_width@@YANE@Z          0044f6a0 f   fltkgl:gl_draw.obj
 0001:0004e6c0       ?gl_font@@YAXHH@Z          0044f6c0 f   fltkgl:gl_draw.obj
 0001:0004e790       ?gl_remove_displaylist_fonts@@YAXXZ 0044f790 f   fltkgl:gl_draw.obj
 0001:0004e8b0       ?gl_draw@@YAXPBDH@Z        0044f8b0 f   fltkgl:gl_draw.obj
 0001:0004e8d0       ?gl_draw@@YAXPBDHHH@Z      0044f8d0 f   fltkgl:gl_draw.obj
 0001:0004e900       ?gl_draw@@YAXPBDHMM@Z      0044f900 f   fltkgl:gl_draw.obj
 0001:0004e930       ?gl_draw@@YAXPBD@Z         0044f930 f   fltkgl:gl_draw.obj
 0001:0004e950       ?gl_draw@@YAXPBDHH@Z       0044f950 f   fltkgl:gl_draw.obj
 0001:0004e980       ?gl_draw@@YAXPBDMM@Z       0044f980 f   fltkgl:gl_draw.obj
 0001:0004e9b0       ?gl_draw@@YAXPBDHHHHW4Fl_Align@@@Z 0044f9b0 f   fltkgl:gl_draw.obj
 0001:0004ea20       ?gl_measure@@YAXPBDAAH1@Z  0044fa20 f   fltkgl:gl_draw.obj
 0001:0004ea40       ?gl_rect@@YAXHHHH@Z        0044fa40 f   fltkgl:gl_draw.obj
 0001:0004eaf0       ?gl_color@@YAXW4Fl_Color@@@Z 0044faf0 f   fltkgl:gl_draw.obj
 0001:0004ebb0       ?gl_draw_image@@YAXPBEHHHHHH@Z 0044fbb0 f   fltkgl:gl_draw.obj
 0001:0004ec20       ?GetOption@@YAHHPAPADPAD0@Z 0044fc20 f   getopt.obj
 0001:0004ed00       ?getopt@@YAHHPAPADPAD@Z    0044fd00 f   getopt.obj
 0001:0004edf0       _main                      0044fdf0 f   main.obj
 0001:0004eed0       ??$_Fputc@D@std@@YA_NDPAU_iobuf@@@Z 0044fed0 f i RayTracer.obj
 0001:0004eef0       ??$use_facet@V?$codecvt@DDU_Mbstatet@@@std@@@std@@YAABV?$codecvt@DDU_Mbstatet@@@0@ABVlocale@0@@Z 0044fef0 f i RayTracer.obj
 0001:0004eff0       ??0?$basic_string@DU?$char_traits@D@std@@V?$allocator@D@2@@std@@QAE@ABV01@@Z 0044fff0 f i RayTracer.obj
 0001:0004f080       ??0RayTracer@@QAE@XZ       00450080 f   RayTracer.obj
 0001:0004f0b0       ??0bad_cast@std@@QAE@ABV01@@Z 004500b0 f i RayTracer.obj
 0001:0004f0f0       ??0bad_cast@std@@QAE@XZ    004500f0 f i RayTracer.obj
 0001:0004f110       ??0exception@std@@QAE@ABV01@@Z 00450110 f i RayTracer.obj
 0001:0004f140       ??1?$basic_filebuf@DU?$char_traits@D@std@@@std@@UAE@XZ 00450140 f i RayTracer.obj
 0001:0004f200       ??1?$basic_ifstream@DU?$char_traits@D@std@@@std@@UAE@XZ 00450200 f i RayTracer.obj
 0001:0004f230       ??1?$basic_string@DU?$char_traits@D@std@@V?$allocator@D@2@@std@@QAE@XZ 00450230 f i RayTracer.obj
 0001:0004f280       ??1?$map@V?$basic_string@DU?$char_traits@D@std@@V?$allocator@D@2@@std@@VMaterial@@U?$less@V?$basic_string@DU?$char_traits@D@std@@V?$allocator@D@2@@std@@@2@V?$allocator@U?$pair@$$CBV?$basic_string@DU?$char_traits@D@std@@V?$allocator@D@2@@std@@VMaterial@@@std@@@2@@std@@QAE@XZ 00450280 f i RayTracer.obj
 0001:0004f2f0       ??1?$unique_ptr@V_Facet_base@std@@U?$default_delete@V_Facet_base@std@@@2@@std@@QAE@XZ 004502f0 f i RayTracer.obj
 0001:0004f300       ??1Parser@@QAE@XZ          00450300 f i RayTracer.obj
 0001:0004f3c0       ??1RayTracer@@QAE@XZ       004503c0 f   RayTracer.obj
 0001:0004f3e0       ??1TextureMapException@@QAE@XZ 004503e0 f i RayTracer.obj
 0001:0004f430       ??1Tokenizer@@QAE@XZ       00450430 f i RayTracer.obj
 0001:0004f480       ??1bad_cast@std@@UAE@XZ    00450480 f i RayTracer.obj
 0001:0004f4a0       ??1exception@std@@UAE@XZ   004504a0 f i RayTracer.obj
 0001:0004f4c0       ??1isect@@QAE@XZ           004504c0 f i RayTracer.obj
 0001:0004f4e0       ??1locale@std@@QAE@XZ      004504e0 f i RayTracer.obj
 0001:0004f530       ??_D?$basic_ifstream@DU?$char_traits@D@std@@@std@@QAEXXZ 00450530 f i RayTracer.obj
 0001:0004f568       ??_E?$basic_ifstream@DU?$char_traits@D@std@@@std@@$4PPPPPPPM@A@AEPAXI@Z 00450568 f i RayTracer.obj
 0001:0004f570       ??_G?$basic_filebuf@DU?$char_traits@D@std@@@std@@UAEPAXI@Z 00450570 f i RayTracer.obj
 0001:0004f570       ??_E?$basic_filebuf@DU?$char_traits@D@std@@@std@@UAEPAXI@Z 00450570 f i RayTracer.obj
 0001:0004f5a0       ??_E?$basic_ifstream@DU?$char_traits@D@std@@@std@@UAEPAXI@Z 004505a0 f i RayTracer.obj
 0001:0004f5a0       ??_G?$basic_ifstream@DU?$char_traits@D@std@@@std@@UAEPAXI@Z 004505a0 f i RayTracer.obj
 0001:0004f600       ??_Gbad_cast@std@@UAEPAXI@Z 00450600 f i RayTracer.obj
 0001:0004f600       ??_Ebad_cast@std@@UAEPAXI@Z 00450600 f i RayTracer.obj
 0001:0004f630       ??_Eexception@std@@UAEPAXI@Z 00450630 f i RayTracer.obj
 0001:0004f630       ??_Gexception@std@@UAEPAXI@Z 00450630 f i RayTracer.obj
 0001:0004f660       ?_Buyheadnode@?$_Tree_comp_alloc@V?$_Tmap_traits@V?$basic_string@DU?$char_traits@D@std@@V?$allocator@D@2@@std@@VMaterial@@U?$less@V?$basic_string@DU?$char_traits@D@std@@V?$allocator@D@2@@std@@@2@V?$allocator@U?$pair@$$CBV?$basic_string@DU?$char_traits@D@std@@V?$allocator@D@2@@std@@VMaterial@@@std@@@2@$0A@@std@@@std@@QAEPAU?$_Tree_node@U?$pair@$$CBV?$basic_string@DU?$char_traits@D@std@@V?$allocator@D@2@@std@@VMaterial@@@std@@PAX@2@XZ 00450660 f i RayTracer.obj
 0001:0004f680       ?_Endwrite@?$basic_filebuf@DU?$char_traits@D@std@@@std@@IAE_NXZ 00450680 f i RayTracer.obj
 0001:0004f740       ?_Erase@?$_Tree@V?$_Tmap_traits@V?$basic_string@DU?$char_traits@D@std@@V?$allocator@D@2@@std@@VMaterial@@U?$less@V?$basic_string@DU?$char_traits@D@std@@V?$allocator@D@2@@std@@@2@V?$allocator@U?$pair@$$CBV?$basic_string@DU?$char_traits@D@std@@V?$allocator@D@2@@std@@VMaterial@@@std@@@2@$0A@@std@@@std@@IAEXPAU?$_Tree_node@U?$pair@$$CBV?$basic_string@DU?$char_traits@D@std@@V?$allocator@D@2@@std@@VMaterial@@@std@@PAX@2@@Z 00450740 f i RayTracer.obj
 0001:0004f7d0       ?_Init@?$basic_filebuf@DU?$char_traits@D@std@@@std@@IAEXPAU_iobuf@@W4_Initfl@12@@Z 004507d0 f i RayTracer.obj
 0001:0004f860       ?_Lock@?$basic_filebuf@DU?$char_traits@D@std@@@std@@UAEXXZ 00450860 f i RayTracer.obj
 0001:0004f870       ?_Reset_back@?$basic_filebuf@DU?$char_traits@D@std@@@std@@AAEXXZ 00450870 f i RayTracer.obj
 0001:0004f8a0       ?_Tidy_deallocate@?$basic_string@DU?$char_traits@D@std@@V?$allocator@D@2@@std@@QAEXXZ 004508a0 f i RayTracer.obj
 0001:0004f8f0       ?_Unlock@?$basic_filebuf@DU?$char_traits@D@std@@@std@@UAEXXZ 004508f0 f i RayTracer.obj
 0001:0004f900       ?_Xlen@?$basic_string@DU?$char_traits@D@std@@V?$allocator@D@2@@std@@SAXXZ 00450900 f i RayTracer.obj
 0001:0004f910       ?allocate@?$allocator@D@std@@QAEPADI@Z 00450910 f i RayTracer.obj
 0001:0004f970       ?append@?$basic_string@DU?$char_traits@D@std@@V?$allocator@D@2@@std@@QAEAAV12@ABV12@@Z 00450970 f i RayTracer.obj
 0001:0004f990       ?append@?$basic_string@DU?$char_traits@D@std@@V?$allocator@D@2@@std@@QAEAAV12@QBDI@Z 00450990 f i RayTracer.obj
 0001:0004faf0       ?aspectRatio@RayTracer@@QAENXZ 00450af0 f   RayTracer.obj
 0001:0004fb30       ?assign@?$basic_string@DU?$char_traits@D@std@@V?$allocator@D@2@@std@@QAEAAV12@QBDI@Z 00450b30 f i RayTracer.obj
 0001:0004fc20       ?find_last_of@?$basic_string@DU?$char_traits@D@std@@V?$allocator@D@2@@std@@QBEIQBDI@Z 00450c20 f i RayTracer.obj
 0001:0004fd00       ?getBuffer@RayTracer@@QAEXAAPAEAAH1@Z 00450d00 f   RayTracer.obj
 0001:0004fd20       ?imbue@?$basic_filebuf@DU?$char_traits@D@std@@@std@@MAEXABVlocale@2@@Z 00450d20 f i RayTracer.obj
 0001:0004fd60       ?loadScene@RayTracer@@QAE_NPAD@Z 00450d60 f   RayTracer.obj
 0001:000504f0       ?overflow@?$basic_filebuf@DU?$char_traits@D@std@@@std@@MAEHH@Z 004514f0 f i RayTracer.obj
 0001:00050660       ?pbackfail@?$basic_filebuf@DU?$char_traits@D@std@@@std@@MAEHH@Z 00451660 f i RayTracer.obj
 0001:00050710       ?push_back@?$basic_string@DU?$char_traits@D@std@@V?$allocator@D@2@@std@@QAEXD@Z 00451710 f i RayTracer.obj
 0001:00050820       ?seekoff@?$basic_filebuf@DU?$char_traits@D@std@@@std@@MAE?AV?$fpos@U_Mbstatet@@@2@_JHH@Z 00451820 f i RayTracer.obj
 0001:00050900       ?seekpos@?$basic_filebuf@DU?$char_traits@D@std@@@std@@MAE?AV?$fpos@U_Mbstatet@@@2@V32@H@Z 00451900 f i RayTracer.obj
 0001:000509d0       ?setbuf@?$basic_filebuf@DU?$char_traits@D@std@@@std@@MAEPAV?$basic_streambuf@DU?$char_traits@D@std@@@2@PAD_J@Z 004519d0 f i RayTracer.obj
 0001:00050a20       ?sync@?$basic_filebuf@DU?$char_traits@D@std@@@std@@MAEHXZ 00451a20 f i RayTracer.obj
 0001:00050a50       ?trace@RayTracer@@QAE?AV?$Vec3@N@@NN@Z 00451a50 f   RayTracer.obj
 0001:00050b80       ?tracePixel@RayTracer@@QAEXHH@Z 00451b80 f   RayTracer.obj
 0001:00050d40       ?traceRay@RayTracer@@QAE?AV?$Vec3@N@@ABVray@@ABV2@H@Z 00451d40 f   RayTracer.obj
 0001:00051400       ?traceSetup@RayTracer@@QAEXHH@Z 00452400 f   RayTracer.obj
 0001:00051460       ?uflow@?$basic_filebuf@DU?$char_traits@D@std@@@std@@MAEHXZ 00452460 f i RayTracer.obj
 0001:00051680       ?underflow@?$basic_filebuf@DU?$char_traits@D@std@@@std@@MAEHXZ 00452680 f i RayTracer.obj
 0001:000516c0       ?what@exception@std@@UBEPBDXZ 004526c0 f i RayTracer.obj
 0001:000516d0       ?xsgetn@?$basic_filebuf@DU?$char_traits@D@std@@@std@@MAE_JPAD_J@Z 004526d0 f i RayTracer.obj
 0001:000517c0       ?xsputn@?$basic_filebuf@DU?$char_traits@D@std@@@std@@MAE_JPBD_J@Z 004527c0 f i RayTracer.obj
 0001:000518a0       ??$?6U?$char_traits@D@std@@@std@@YAAAV?$basic_ostream@DU?$char_traits@D@std@@@0@AAV10@PBD@Z 004528a0 f i CommandLineUI.obj
 0001:00051af0       ??$_Insert_string@DU?$char_traits@D@std@@I@std@@YAAAV?$basic_ostream@DU?$char_traits@D@std@@@0@AAV10@QBDI@Z 00452af0 f i CommandLineUI.obj
 0001:00051d00       ??$endl@DU?$char_traits@D@std@@@std@@YAAAV?$basic_ostream@DU?$char_traits@D@std@@@0@AAV10@@Z 00452d00 f i CommandLineUI.obj
 0001:00051d30       ??0CommandLineUI@@QAE@HPAPAD@Z 00452d30 f   CommandLineUI.obj
 0001:00051eb0       ??1_Sentry_base@?$basic_ostream@DU?$char_traits@D@std@@@std@@QAE@XZ 00452eb0 f i CommandLineUI.obj
 0001:00051f00       ??1sentry@?$basic_ostream@DU?$char_traits@D@std@@@std@@QAE@XZ 00452f00 f i CommandLineUI.obj
 0001:00051f70       ?alert@CommandLineUI@@UAEXABV?$basic_string@DU?$char_traits@D@std@@V?$allocator@D@2@@std@@@Z 00452f70 f   CommandLineUI.obj
 0001:00051fb0       ?run@CommandLineUI@@UAEHXZ 00452fb0 f   CommandLineUI.obj
 0001:00052120       ?setRayTracer@TraceUI@@UAEXPAVRayTracer@@@Z 00453120 f i CommandLineUI.obj
 0001:00052130       ?usage@CommandLineUI@@AAEXXZ 00453130 f   CommandLineUI.obj
 0001:00052290       ??$_Emplace_reallocate@I@?$vector@IV?$allocator@I@std@@@std@@QAEPAIQAI$$QAI@Z 00453290 f i debuggingView.obj
 0001:000523f0       ??0DebuggingView@@QAE@HHHHPAD@Z 004533f0 f   debuggingView.obj
 0001:000524f0       ??1DebuggingView@@UAE@XZ   004534f0 f   debuggingView.obj
 0001:00052520       ??_EDebuggingView@@UAEPAXI@Z 00453520 f i debuggingView.obj
 0001:00052520       ??_GDebuggingView@@UAEPAXI@Z 00453520 f i debuggingView.obj
 0001:00052560       ??_EFl_Gl_Window@@UAEPAXI@Z 00453560 f i debuggingView.obj
 0001:00052560       ??_GFl_Gl_Window@@UAEPAXI@Z 00453560 f i debuggingView.obj
 0001:00052590       ?_Xlength@?$vector@IV?$allocator@I@std@@@std@@CAXXZ 00453590 f i debuggingView.obj
 0001:000525a0       ?checkGLError@@YAXXZ       004535a0 f   debuggingView.obj
 0001:000525d0       ?draw@DebuggingView@@UAEXXZ 004535d0 f   debuggingView.obj
 0001:00052d00       ?drawAxes@DebuggingView@@QAEXXZ 00453d00 f   debuggingView.obj
 0001:00052ef0       ?drawCamera@DebuggingView@@QAEXXZ 00453ef0 f   debuggingView.obj
 0001:000538a0       ?drawLights@DebuggingView@@QAEXXZ 004548a0 f   debuggingView.obj
 0001:000538e0       ?drawRays@DebuggingView@@QAEXXZ 004548e0 f   debuggingView.obj
 0001:00053b40       ?drawScene@DebuggingView@@QAEXXZ 00454b40 f   debuggingView.obj
 0001:00053c70       ?handle@DebuggingView@@UAEHH@Z 00454c70 f   debuggingView.obj
 0001:00053d30       ?lightScene@DebuggingView@@QAEXXZ 00454d30 f   debuggingView.obj
 0001:00054100       ?makeRasterFont@@YAXXZ     00455100 f   debuggingView.obj
 0001:000541d0       ?printString@@YAXPAD@Z     004551d0 f   debuggingView.obj
 0001:000542f0       ?resetCamera@DebuggingView@@QAEXXZ 004552f0 f   debuggingView.obj
 0001:000543b0       ?setRayTracer@DebuggingView@@QAEXPAVRayTracer@@@Z 004553b0 f   debuggingView.obj
 0001:000543c0       ___local_stdio_printf_options 004553c0 f i debuggingView.obj
 0001:000543d0       _printf                    004553d0 f i debuggingView.obj
 0001:00054400       ?cb_Normal@DebuggingWindow@@CAXPAVFl_Menu_@@PAX@Z 00455400 f   debuggingWindow.obj
 0001:00054420       ?cb_Flat@DebuggingWindow@@CAXPAVFl_Menu_@@PAX@Z 00455420 f   debuggingWindow.obj
 0001:00054440       ?cb_Wireframe@DebuggingWindow@@CAXPAVFl_Menu_@@PAX@Z 00455440 f   debuggingWindow.obj
 0001:00054460       ?cb_High@DebuggingWindow@@CAXPAVFl_Menu_@@PAX@Z 00455460 f   debuggingWindow.obj
 0001:00054480       ?cb_Medium@DebuggingWindow@@CAXPAVFl_Menu_@@PAX@Z 00455480 f   debuggingWindow.obj
 0001:000544a0       ?cb_Low@DebuggingWindow@@CAXPAVFl_Menu_@@PAX@Z 004554a0 f   debuggingWindow.obj
 0001:000544c0       ?cb_Poor@DebuggingWindow@@CAXPAVFl_Menu_@@PAX@Z 004554c0 f   debuggingWindow.obj
 0001:000544e0       ?cb_Default@DebuggingWindow@@CAXPAVFl_Menu_@@PAX@Z 004554e0 f   debuggingWindow.obj
 0001:00054500       ?cb_Scene@DebuggingWindow@@CAXPAVFl_Menu_@@PAX@Z 00455500 f   debuggingWindow.obj
 0001:00054520       ?cb_Use@DebuggingWindow@@CAXPAVFl_Menu_@@PAX@Z 00455520 f   debuggingWindow.obj
 0001:00054550       ?cb_Geometry@DebuggingWindow@@CAXPAVFl_Menu_@@PAX@Z 00455550 f   debuggingWindow.obj
 0001:00054580       ?cb_Lights@DebuggingWindow@@CAXPAVFl_Menu_@@PAX@Z 00455580 f   debuggingWindow.obj
 0001:000545b0       ?cb_Camera@DebuggingWindow@@CAXPAVFl_Menu_@@PAX@Z 004555b0 f   debuggingWindow.obj
 0001:000545e0       ?cb_Axes@DebuggingWindow@@CAXPAVFl_Menu_@@PAX@Z 004555e0 f   debuggingWindow.obj
 0001:00054610       ?cb_Normals@DebuggingWindow@@CAXPAVFl_Menu_@@PAX@Z 00455610 f   debuggingWindow.obj
 0001:00054640       ?cb_Visibility@DebuggingWindow@@CAXPAVFl_Menu_@@PAX@Z 00455640 f   debuggingWindow.obj
 0001:00054670       ?cb_Reflection@DebuggingWindow@@CAXPAVFl_Menu_@@PAX@Z 00455670 f   debuggingWindow.obj
 0001:000546a0       ?cb_Refraction@DebuggingWindow@@CAXPAVFl_Menu_@@PAX@Z 004556a0 f   debuggingWindow.obj
 0001:000546d0       ?cb_Shadow@DebuggingWindow@@CAXPAVFl_Menu_@@PAX@Z 004556d0 f   debuggingWindow.obj
 0001:00054700       ??0DebuggingWindow@@QAE@XZ 00455700 f   debuggingWindow.obj
 0001:00054830       ??_EFl_Menu_Bar@@UAEPAXI@Z 00455830 f i debuggingWindow.obj
 0001:00054830       ??_GFl_Menu_Bar@@UAEPAXI@Z 00455830 f i debuggingWindow.obj
 0001:00054860       ?hide@DebuggingWindow@@QAEXXZ 00455860 f   debuggingWindow.obj
 0001:00054880       ?redraw@DebuggingWindow@@QAEXXZ 00455880 f   debuggingWindow.obj
 0001:00054890       ?show@DebuggingWindow@@QAEXXZ 00455890 f   debuggingWindow.obj
 0001:000548b0       ??$_Buynode@U?$pair@HI@std@@@?$_Tree_comp_alloc@V?$_Tmap_traits@HIU?$less@H@std@@V?$allocator@U?$pair@$$CBHI@std@@@2@$0A@@std@@@std@@QAEPAU?$_Tree_node@U?$pair@$$CBHI@std@@PAX@1@$$QAU?$pair@HI@1@@Z 004558b0 f i glObjects.obj
 0001:000548d0       ??$_Insert_at@AAU?$pair@$$CBHI@std@@PAU?$_Tree_node@U?$pair@$$CBHI@std@@PAX@2@@?$_Tree@V?$_Tmap_traits@HIU?$less@H@std@@V?$allocator@U?$pair@$$CBHI@std@@@2@$0A@@std@@@std@@IAE?AV?$_Tree_iterator@V?$_Tree_val@U?$_Tree_simple_types@U?$pair@$$CBHI@std@@@std@@@std@@@1@_NPAU?$_Tree_node@U?$pair@$$CBHI@std@@PAX@1@AAU?$pair@$$CBHI@1@1@Z 004558d0 f i glObjects.obj
 0001:00054a30       ??$_Insert_nohint@AAU?$pair@$$CBHI@std@@PAU?$_Tree_node@U?$pair@$$CBHI@std@@PAX@2@@?$_Tree@V?$_Tmap_traits@HIU?$less@H@std@@V?$allocator@U?$pair@$$CBHI@std@@@2@$0A@@std@@@std@@IAE?AU?$pair@V?$_Tree_iterator@V?$_Tree_val@U?$_Tree_simple_types@U?$pair@$$CBHI@std@@@std@@@std@@@std@@_N@1@_NAAU?$pair@$$CBHI@1@PAU?$_Tree_node@U?$pair@$$CBHI@std@@PAX@1@@Z 00455a30 f i glObjects.obj
 0001:00054bb0       ??1?$_Tree@V?$_Tmap_traits@HIU?$less@H@std@@V?$allocator@U?$pair@$$CBHI@std@@@2@$0A@@std@@@std@@QAE@XZ 00455bb0 f i glObjects.obj
 0001:00054c50       ?_Buyheadnode@?$_Tree_comp_alloc@V?$_Tmap_traits@HIU?$less@H@std@@V?$allocator@U?$pair@$$CBHI@std@@@2@$0A@@std@@@std@@QAEPAU?$_Tree_node@U?$pair@$$CBHI@std@@PAX@2@XZ 00455c50 f i glObjects.obj
 0001:00054c70       ?_Buynode0@?$_Tree_comp_alloc@V?$_Tmap_traits@HIU?$less@H@std@@V?$allocator@U?$pair@$$CBHI@std@@@2@$0A@@std@@@std@@QAEPAU?$_Tree_node@U?$pair@$$CBHI@std@@PAX@2@XZ 00455c70 f i glObjects.obj
 0001:00054c90       ?_Destroy_if_node@?$_Tree@V?$_Tmap_traits@HIU?$less@H@std@@V?$allocator@U?$pair@$$CBHI@std@@@2@$0A@@std@@@std@@IAEXPAU?$_Tree_node@U?$pair@$$CBHI@std@@PAX@2@@Z 00455c90 f i glObjects.obj
 0001:00054cb0       ?_Erase@?$_Tree@V?$_Tmap_traits@HIU?$less@H@std@@V?$allocator@U?$pair@$$CBHI@std@@@2@$0A@@std@@@std@@IAEXPAU?$_Tree_node@U?$pair@$$CBHI@std@@PAX@2@@Z 00455cb0 f i glObjects.obj
 0001:00054cf0       ?_Lrotate@?$_Tree_val@U?$_Tree_simple_types@U?$pair@$$CBHI@std@@@std@@@std@@QAEXPAU?$_Tree_node@U?$pair@$$CBHI@std@@PAX@2@@Z 00455cf0 f i glObjects.obj
 0001:00054d50       ?_Rrotate@?$_Tree_val@U?$_Tree_simple_types@U?$pair@$$CBHI@std@@@std@@@std@@QAEXPAU?$_Tree_node@U?$pair@$$CBHI@std@@PAX@2@@Z 00455d50 f i glObjects.obj
 0001:00054db0       ?arrow@@YAXXZ              00455db0 f   glObjects.obj
 0001:00054e90       ?drawTesselatedSquare@@YAXH@Z 00455e90 f   glObjects.obj
 0001:00054fe0       ?glDraw@DirectionalLight@@UBEXI@Z 00455fe0 f   glObjects.obj
 0001:000550e0       ?glDraw@DirectionalLight@@UBEXXZ 004560e0 f   glObjects.obj
 0001:000556a0       ?glDraw@Geometry@@UBEXH_N0@Z 004566a0 f   glObjects.obj
 0001:00055820       ?glDraw@PointLight@@UBEXI@Z 00456820 f   glObjects.obj
 0001:00055920       ?glDraw@PointLight@@UBEXXZ 00456920 f   glObjects.obj
 0001:00055bb0       ?glDraw@Scene@@QBEXH_N0@Z  00456bb0 f   glObjects.obj
 0001:00055bf0       ?glDraw@SceneObject@@UBEXH_N0@Z 00456bf0 f   glObjects.obj
 0001:00055d80       ?glDrawLocal@Box@@MBEXH_N0@Z 00456d80 f   glObjects.obj
 0001:000560b0       ?glDrawLocal@Cone@@MBEXH_N0@Z 004570b0 f   glObjects.obj
 0001:00056240       ?glDrawLocal@Cylinder@@MBEXH_N0@Z 00457240 f   glObjects.obj
 0001:000564b0       ?glDrawLocal@Sphere@@MBEXH_N0@Z 004574b0 f   glObjects.obj
 0001:00056630       ?glDrawLocal@Square@@MBEXH_N0@Z 00457630 f   glObjects.obj
 0001:00056780       ?glDrawLocal@Trimesh@@MBEXH_N0@Z 00457780 f   glObjects.obj
 0001:000569d0       ?setGLMaterial@@YAXABVMaterial@@PBVSceneObject@@@Z 004579d0 f   glObjects.obj
 0001:00056be0       ?setMaterialProperty@@YAXIV?$Vec3@N@@@Z 00457be0 f   glObjects.obj
 0001:00056c50       ?cb_load_scene@GraphicalUI@@CAXPAVFl_Menu_@@PAX@Z 00457c50 f   GraphicalUI.obj
 0001:00056e20       ?cb_save_image@GraphicalUI@@CAXPAVFl_Menu_@@PAX@Z 00457e20 f   GraphicalUI.obj
 0001:00057340       ?cb_exit@GraphicalUI@@CAXPAVFl_Menu_@@PAX@Z 00458340 f   GraphicalUI.obj
 0001:00057390       ?cb_about@GraphicalUI@@CAXPAVFl_Menu_@@PAX@Z 00458390 f   GraphicalUI.obj
 0001:000573a0       ??0GraphicalUI@@QAE@XZ     004583a0 f   GraphicalUI.obj
 0001:00057790       ??1Dialog2@@UAE@XZ         00458790 f i GraphicalUI.obj
 0001:000577a0       ??1Fl_Button@@UAE@XZ       004587a0 f i GraphicalUI.obj
 0001:000577b0       ??1Fl_Int_Input@@UAE@XZ    004587b0 f i GraphicalUI.obj
 0001:000577c0       ??_EDialog2@@UAEPAXI@Z     004587c0 f i GraphicalUI.obj
 0001:000577c0       ??_GDialog2@@UAEPAXI@Z     004587c0 f i GraphicalUI.obj
 0001:000577f0       ??_GFl_Int_Input@@UAEPAXI@Z 004587f0 f i GraphicalUI.obj
 0001:000577f0       ??_EFl_Int_Input@@UAEPAXI@Z 004587f0 f i GraphicalUI.obj
 0001:00057820       ?Button_CB@Dialog2@@CAXPAVFl_Widget@@PAX@Z 00458820 f i GraphicalUI.obj
 0001:00057830       ?_Xran@?$_String_val@U?$_Simple_types@D@std@@@std@@SAXXZ 00458830 f i GraphicalUI.obj
 0001:00057840       ?alert@GraphicalUI@@UAEXABV?$basic_string@DU?$char_traits@D@std@@V?$allocator@D@2@@std@@@Z 00458840 f   GraphicalUI.obj
 0001:00057860       ?cb_debuggingDisplayCheckButton@GraphicalUI@@CAXPAVFl_Widget@@PAX@Z 00458860 f   GraphicalUI.obj
 0001:00057890       ?cb_depthSlides@GraphicalUI@@CAXPAVFl_Widget@@PAX@Z 00458890 f   GraphicalUI.obj
 0001:000578b0       ?cb_exit2@GraphicalUI@@CAXPAVFl_Widget@@PAX@Z 004588b0 f   GraphicalUI.obj
 0001:00057900       ?cb_render@GraphicalUI@@CAXPAVFl_Widget@@PAX@Z 00458900 f   GraphicalUI.obj
 0001:00057b30       ?cb_sizeSlides@GraphicalUI@@CAXPAVFl_Widget@@PAX@Z 00458b30 f   GraphicalUI.obj
 0001:00057bb0       ?cb_stop@GraphicalUI@@CAXPAVFl_Widget@@PAX@Z 00458bb0 f   GraphicalUI.obj
 0001:00057bc0       ?run@GraphicalUI@@UAEHXZ   00458bc0 f   GraphicalUI.obj
 0001:00057be0       ?setRayTracer@GraphicalUI@@UAEXPAVRayTracer@@@Z 00458be0 f   GraphicalUI.obj
 0001:00057c10       ?stopTracing@GraphicalUI@@SAXXZ 00458c10 f   GraphicalUI.obj
 0001:00057c40       ?whoami@GraphicalUI@@CAPAV1@PAVFl_Menu_@@@Z 00458c40 f   GraphicalUI.obj
 0001:00057c50       _sprintf                   00458c50 f i GraphicalUI.obj
 0001:00057c90       ??$makeHTrans@M@@YAXAAV?$Mat4@M@@ABV?$Vec3@M@@@Z 00458c90 f i ModelerCamera.obj
 0001:00057d20       ??0?$Mat4@M@@QAE@XZ        00458d20 f i ModelerCamera.obj
 0001:00057da0       ??0ModelerCamera@@QAE@XZ   00458da0 f   ModelerCamera.obj
 0001:00057e30       ?applyViewingTransform@ModelerCamera@@QAEXXZ 00458e30 f   ModelerCamera.obj
 0001:00057ed0       ?calculateViewingTransformParameters@ModelerCamera@@IAEXXZ 00458ed0 f   ModelerCamera.obj
 0001:00058200       ?clickMouse@ModelerCamera@@QAEXW4MouseAction_t@@HH@Z 00459200 f   ModelerCamera.obj
 0001:00058230       ?dragMouse@ModelerCamera@@QAEXHH@Z 00459230 f   ModelerCamera.obj
 0001:00058530       ?releaseMouse@ModelerCamera@@QAEXHH@Z 00459530 f   ModelerCamera.obj
 0001:00058540       ?reset@ModelerCamera@@QAEXXZ 00459540 f   ModelerCamera.obj
 0001:00058580       ??$?6U?$char_traits@D@std@@@std@@YAAAV?$basic_ostream@DU?$char_traits@D@std@@@0@AAV10@D@Z 00459580 f i buffer.obj
 0001:000587a0       ??$getline@DU?$char_traits@D@std@@V?$allocator@D@2@@std@@YAAAV?$basic_istream@DU?$char_traits@D@std@@@0@$$QAV10@AAV?$basic_string@DU?$char_traits@D@std@@V?$allocator@D@2@@0@D@Z 004597a0 f i buffer.obj
 0001:00058910       ??0Buffer@@QAE@AAV?$basic_istream@DU?$char_traits@D@std@@@std@@_N1@Z 00459910 f   buffer.obj
 0001:00058970       ??1_Sentry_base@?$basic_istream@DU?$char_traits@D@std@@@std@@QAE@XZ 00459970 f i buffer.obj
 0001:000589c0       ??1sentry@?$basic_istream@DU?$char_traits@D@std@@@std@@QAE@XZ 004599c0 f i buffer.obj
 0001:00058a10       ?GetCh@Buffer@@QAEDXZ      00459a10 f   buffer.obj
 0001:00058ad0       ?GetLine@Buffer@@IAEXXZ    00459ad0 f   buffer.obj
 0001:00058b90       ?PrintLine@Buffer@@QBEXAAV?$basic_ostream@DU?$char_traits@D@std@@@std@@@Z 00459b90 f   buffer.obj
 0001:00058bf0       ??$_render_resize@II@CImgDisplay@cimg_library@@SAXPBIIIPAIII@Z 00459bf0 f i imageio.obj
 0001:00058df0       ??$assign@E@?$CImg@E@cimg_library@@QAEAAU01@ABU01@@Z 00459df0 f i imageio.obj
 0001:00058e80       ??$assign@E@?$CImgl@E@cimg_library@@QAEAAU01@ABU01@_N@Z 00459e80 f i imageio.obj
 0001:00058f90       ??$assign@E@CImgDisplay@cimg_library@@QAEAAU01@ABU?$CImg@E@1@PBDII_N2@Z 00459f90 f i imageio.obj
 0001:00059150       ??$assign@E@CImgStats@cimg_library@@QAEAAU01@ABU?$CImg@E@1@_N@Z 0045a150 f i imageio.obj
 0001:00059460       ??$assign@M@CImgStats@cimg_library@@QAEAAU01@ABU?$CImg@M@1@_N@Z 0045a460 f i imageio.obj
 0001:00059730       ??$dialog@E@cimg@cimg_library@@YAHPBD0000000ABU?$CImg@E@1@_N@Z 0045a730 f i imageio.obj
 0001:0005b390       ??$display@E@CImgDisplay@cimg_library@@QAEAAU01@ABU?$CImg@E@1@@Z 0045c390 f i imageio.obj
 0001:0005b3f0       ??$draw_image@EE@?$CImg@E@cimg_library@@QAEAAU01@ABU01@0HHHHEM@Z 0045c3f0 f i imageio.obj
 0001:0005bb50       ??$draw_text@E@?$CImg@E@cimg_library@@QAEAAU01@QBDHHQBE1ABU?$CImgl@E@1@M@Z 0045cb50 f i imageio.obj
 0001:0005c170       ??$endian_swap@F@cimg@cimg_library@@YAXQAFI@Z 0045d170 f i imageio.obj
 0001:0005c1a0       ??$endian_swap@G@cimg@cimg_library@@YAXQAGI@Z 0045d1a0 f i imageio.obj
 0001:0005c1d0       ??$endian_swap@H@cimg@cimg_library@@YAXQAHI@Z 0045d1d0 f i imageio.obj
 0001:0005c1f0       ??$endian_swap@I@cimg@cimg_library@@YAXQAII@Z 0045d1f0 f i imageio.obj
 0001:0005c210       ??$endian_swap@J@cimg@cimg_library@@YAXQAJI@Z 0045d210 f i imageio.obj
 0001:0005c230       ??$endian_swap@K@cimg@cimg_library@@YAXQAKI@Z 0045d230 f i imageio.obj
 0001:0005c250       ??$endian_swap@M@cimg@cimg_library@@YAXQAMI@Z 0045d250 f i imageio.obj
 0001:0005c270       ??$endian_swap@N@cimg@cimg_library@@YAXQANI@Z 0045d270 f i imageio.obj
 0001:0005c2d0       ??$fread@D@cimg@cimg_library@@YAHPADIPAU_iobuf@@@Z 0045d2d0 f i imageio.obj
 0001:0005c360       ??$fread@E@cimg@cimg_library@@YAHPAEIPAU_iobuf@@@Z 0045d360 f i imageio.obj
 0001:0005c3f0       ??$fread@F@cimg@cimg_library@@YAHPAFIPAU_iobuf@@@Z 0045d3f0 f i imageio.obj
 0001:0005c480       ??$fread@G@cimg@cimg_library@@YAHPAGIPAU_iobuf@@@Z 0045d480 f i imageio.obj
 0001:0005c510       ??$fread@H@cimg@cimg_library@@YAHPAHIPAU_iobuf@@@Z 0045d510 f i imageio.obj
 0001:0005c5a0       ??$fread@I@cimg@cimg_library@@YAHPAIIPAU_iobuf@@@Z 0045d5a0 f i imageio.obj
 0001:0005c630       ??$fread@J@cimg@cimg_library@@YAHPAJIPAU_iobuf@@@Z 0045d630 f i imageio.obj
 0001:0005c6c0       ??$fread@K@cimg@cimg_library@@YAHPAKIPAU_iobuf@@@Z 0045d6c0 f i imageio.obj
 0001:0005c750       ??$fread@M@cimg@cimg_library@@YAHPAMIPAU_iobuf@@@Z 0045d750 f i imageio.obj
 0001:0005c7e0       ??$fread@N@cimg@cimg_library@@YAHPANIPAU_iobuf@@@Z 0045d7e0 f i imageio.obj
 0001:0005c870       ??$fwrite@E@cimg@cimg_library@@YAHPBEIPAU_iobuf@@@Z 0045d870 f i imageio.obj
 0001:0005c910       ??$fwrite@G@cimg@cimg_library@@YAHPBGIPAU_iobuf@@@Z 0045d910 f i imageio.obj
 0001:0005c9b0       ??$render@E@CImgDisplay@cimg_library@@QAEAAU01@ABU?$CImg@E@1@@Z 0045d9b0 f i imageio.obj
 0001:0005cd00       ??0?$CImg@E@cimg_library@@QAE@ABU01@@Z 0045dd00 f i imageio.obj
 0001:0005cda0       ??0?$CImg@E@cimg_library@@QAE@IIII@Z 0045dda0 f i imageio.obj
 0001:0005ce20       ??0?$CImg@E@cimg_library@@QAE@QBD@Z 0045de20 f i imageio.obj
 0001:0005cec0       ??0?$CImg@E@cimg_library@@QAE@XZ 0045dec0 f i imageio.obj
 0001:0005cef0       ??0?$CImg@G@cimg_library@@QAE@IIII@Z 0045def0 f i imageio.obj
 0001:0005cf80       ??0?$CImg@I@cimg_library@@QAE@IIII@Z 0045df80 f i imageio.obj
 0001:0005d010       ??0?$CImg@I@cimg_library@@QAE@XZ 0045e010 f i imageio.obj
 0001:0005d040       ??0?$CImg@M@cimg_library@@QAE@ABU01@@Z 0045e040 f i imageio.obj
 0001:0005d100       ??0?$CImg@M@cimg_library@@QAE@IIII@Z 0045e100 f i imageio.obj
 0001:0005d190       ??0?$CImg@M@cimg_library@@QAE@XZ 0045e190 f i imageio.obj
 0001:0005d1c0       ??0?$CImgl@E@cimg_library@@QAE@ABU01@@Z 0045e1c0 f i imageio.obj
 0001:0005d1f0       ??0CImgArgumentException@cimg_library@@QAA@PBDZZ 0045e1f0 f i imageio.obj
 0001:0005d2e0       ??0CImgIOException@cimg_library@@QAA@PBDZZ 0045e2e0 f i imageio.obj
 0001:0005d3d0       ??0CImgInstanceException@cimg_library@@QAA@PBDZZ 0045e3d0 f i imageio.obj
 0001:0005d4c0       ??1?$CImg@E@cimg_library@@QAE@XZ 0045e4c0 f i imageio.obj
 0001:0005d4e0       ??1?$CImg@G@cimg_library@@QAE@XZ 0045e4e0 f i imageio.obj
 0001:0005d500       ??1?$CImg@I@cimg_library@@QAE@XZ 0045e500 f i imageio.obj
 0001:0005d520       ??1?$CImg@M@cimg_library@@QAE@XZ 0045e520 f i imageio.obj
 0001:0005d540       ??1?$CImgl@E@cimg_library@@QAE@XZ 0045e540 f i imageio.obj
 0001:0005d5b0       ??1?$CImgl@I@cimg_library@@QAE@XZ 0045e5b0 f i imageio.obj
 0001:0005d620       ??1?$CImgl@M@cimg_library@@QAE@XZ 0045e620 f i imageio.obj
 0001:0005d690       ??1CImgDisplay@cimg_library@@QAE@XZ 0045e690 f i imageio.obj
 0001:0005d6a0       ??4?$CImg@I@cimg_library@@QAEAAU01@ABU01@@Z 0045e6a0 f i imageio.obj
 0001:0005d840       ??4?$CImg@M@cimg_library@@QAEAAU01@ABU01@@Z 0045e840 f i imageio.obj
 0001:0005d9e0       ??_E?$CImg@E@cimg_library@@QAEPAXI@Z 0045e9e0 f i imageio.obj
 0001:0005da90       ??_E?$CImg@I@cimg_library@@QAEPAXI@Z 0045ea90 f i imageio.obj
 0001:0005db40       ??_E?$CImg@M@cimg_library@@QAEPAXI@Z 0045eb40 f i imageio.obj
 0001:0005dbf0       ?Win32attr@cimg@cimg_library@@YAAAUWin32info@12@XZ 0045ebf0 f i imageio.obj
 0001:0005dc50       ?_events_thread@CImgDisplay@cimg_library@@SGKPAX@Z 0045ec50 f i imageio.obj
 0001:0005df50       ?_handle_events@CImgDisplay@cimg_library@@SGJPAUHWND__@@IIJ@Z 0045ef50 f i imageio.obj
 0001:0005e260       ?_init_fullscreen@CImgDisplay@cimg_library@@QAEXXZ 0045f260 f i imageio.obj
 0001:0005e410       ?_load_inr@?$CImg@E@cimg_library@@SAXPAU_iobuf@@QAHPAM@Z 0045f410 f i imageio.obj
 0001:0005eb40       ?assign@?$CImg@E@cimg_library@@QAEAAU12@IIII@Z 0045fb40 f i imageio.obj
 0001:0005ec50       ?assign@?$CImg@E@cimg_library@@QAEAAU12@IIIIABE@Z 0045fc50 f i imageio.obj
 0001:0005ecb0       ?assign@?$CImgl@E@cimg_library@@QAEAAU12@I@Z 0045fcb0 f i imageio.obj
 0001:0005ee00       ?assign@?$CImgl@E@cimg_library@@QAEAAU12@IIIII@Z 0045fe00 f i imageio.obj
 0001:0005efb0       ?assign@?$CImgl@E@cimg_library@@QAEAAU12@XZ 0045ffb0 f i imageio.obj
 0001:0005f040       ?assign@CImgDisplay@cimg_library@@QAEAAU12@XZ 00460040 f i imageio.obj
 0001:0005f150       ?assign_lowlevel@CImgDisplay@cimg_library@@QAEAAU12@IIPBDII_N1@Z 00460150 f i imageio.obj
 0001:0005f2c0       ?convert_path@cimg@cimg_library@@YAPBDXZ 004602c0 f i imageio.obj
 0001:0005f760       ?draw_image@?$CImg@E@cimg_library@@QAEAAU12@ABU12@HHHHM@Z 00460760 f i imageio.obj
 0001:0005fd90       ?draw_line@?$CImg@E@cimg_library@@QAEAAU12@HHHHQBEIM@Z 00460d90 f i imageio.obj
 0001:00060310       ?draw_rectangle@?$CImg@E@cimg_library@@QAEAAU12@HHHHHHQBEM@Z 00461310 f i imageio.obj
 0001:00060720       ?draw_text@?$CImg@E@cimg_library@@QAEAAU12@QBDHHQBE1IM@Z 00461720 f i imageio.obj
 0001:000607e0       ?fclose@cimg@cimg_library@@YAHPAU_iobuf@@@Z 004617e0 f i imageio.obj
 0001:00060850       ?fill@?$CImg@E@cimg_library@@QAEAAU12@ABE@Z 00461850 f i imageio.obj
 0001:000608a0       ?fopen@cimg@cimg_library@@YAPAU_iobuf@@QBD0@Z 004618a0 f i imageio.obj
 0001:00060970       ?get_append@?$CImgl@E@cimg_library@@QBE?AU?$CImg@E@2@DD@Z 00461970 f i imageio.obj
 0001:00061280       ?get_crop@?$CImg@E@cimg_library@@QBE?AU12@IIIIIIII_N@Z 00462280 f i imageio.obj
 0001:00061930       ?get_crop_font@?$CImgl@E@cimg_library@@QBE?AU12@XZ 00462930 f i imageio.obj
 0001:00061d10       ?get_font@?$CImgl@E@cimg_library@@SA?AU12@I_N@Z 00462d10 f i imageio.obj
 0001:00062800       ?get_font@?$CImgl@E@cimg_library@@SA?AU12@QBIIIII_N@Z 00463800 f i imageio.obj
 0001:00062be0       ?get_load@?$CImg@E@cimg_library@@SA?AU12@PBD@Z 00463be0 f i imageio.obj
 0001:00063080       ?get_load@?$CImgl@E@cimg_library@@SA?AU12@PBD@Z 00464080 f i imageio.obj
 0001:00063320       ?get_load_analyze@?$CImg@E@cimg_library@@SA?AU12@PBDPAM@Z 00464320 f i imageio.obj
 0001:00063be0       ?get_load_ascii@?$CImg@E@cimg_library@@SA?AU12@PBD@Z 00464be0 f i imageio.obj
 0001:00063e00       ?get_load_bmp@?$CImg@E@cimg_library@@SA?AU12@PBD@Z 00464e00 f i imageio.obj
 0001:000647e0       ?get_load_cimg@?$CImgl@E@cimg_library@@SA?AU12@PBD@Z 004657e0 f i imageio.obj
 0001:000670f0       ?get_load_convert@?$CImg@E@cimg_library@@SA?AU12@PBD@Z 004680f0 f i imageio.obj
 0001:00067380       ?get_load_dicom@?$CImg@E@cimg_library@@SA?AU12@PBD@Z 00468380 f i imageio.obj
 0001:00067650       ?get_load_dlm@?$CImg@E@cimg_library@@SA?AU12@PBD@Z 00468650 f i imageio.obj
 0001:00067a60       ?get_load_inr@?$CImg@E@cimg_library@@SA?AU12@PBDPAM@Z 00468a60 f i imageio.obj
 0001:000689b0       ?get_load_pandore@?$CImg@E@cimg_library@@SA?AU12@PBD@Z 004699b0 f i imageio.obj
 0001:0006abb0       ?get_load_parrec@?$CImgl@E@cimg_library@@SA?AU12@PBD@Z 0046bbb0 f i imageio.obj
 0001:0006bc10       ?get_load_pnm@?$CImg@E@cimg_library@@SA?AU12@PBD@Z 0046cc10 f i imageio.obj
 0001:0006c3d0       ?get_logo40x38@?$CImg@E@cimg_library@@SA?AU12@XZ 0046d3d0 f i imageio.obj
 0001:0006c640       ?get_norm_pointwise@?$CImg@E@cimg_library@@QBE?AU?$CImg@M@2@H@Z 0046d640 f i imageio.obj
 0001:0006caa0       ?get_norm_pointwise@?$CImg@M@cimg_library@@QBE?AU12@H@Z 0046daa0 f i imageio.obj
 0001:0006cf50       ?get_projections2d@?$CImg@E@cimg_library@@QBE?AU12@III@Z 0046df50 f i imageio.obj
 0001:0006d200       ?get_resize@?$CImg@E@cimg_library@@QBE?AU12@HHHHI@Z 0046e200 f i imageio.obj
 0001:0006f050       ?insert@?$CImgl@E@cimg_library@@QAEAAU12@ABU12@I@Z 00470050 f i imageio.obj
 0001:0006f140       ?insert@?$CImgl@E@cimg_library@@QAEAAU12@ABU?$CImg@E@2@I_N@Z 00470140 f i imageio.obj
 0001:0006f420       ?insert@?$CImgl@I@cimg_library@@QAEAAU12@ABU?$CImg@I@2@I_N@Z 00470420 f i imageio.obj
 0001:0006f700       ?insert@?$CImgl@M@cimg_library@@QAEAAU12@ABU?$CImg@M@2@I_N@Z 00470700 f i imageio.obj
 0001:0006f9e0       ?is_empty@?$CImg@E@cimg_library@@QBE_NXZ 004709e0 f i imageio.obj
 0001:0006fa10       ?is_empty@?$CImg@I@cimg_library@@QBE_NXZ 00470a10 f i imageio.obj
 0001:0006fa40       ?is_empty@?$CImg@M@cimg_library@@QBE_NXZ 00470a40 f i imageio.obj
 0001:0006fa70       ?load@@YAPAEPBDAAH1@Z      00470a70 f   imageio.obj
 0001:0006fba0       ?mirror@?$CImg@E@cimg_library@@QAEAAU12@D@Z 00470ba0 f i imageio.obj
 0001:00070030       ?move@CImgDisplay@cimg_library@@QAEAAU12@HH@Z 00471030 f i imageio.obj
 0001:000701c0       ?normalize@?$CImg@M@cimg_library@@QAEAAU12@ABM0@Z 004711c0 f i imageio.obj
 0001:00070310       ?paint@CImgDisplay@cimg_library@@QAEAAU12@XZ 00471310 f i imageio.obj
 0001:00070360       ?pixel_type@?$CImg@E@cimg_library@@SAPBDXZ 00471360 f i imageio.obj
 0001:00070370       ?pixel_type@?$CImg@I@cimg_library@@SAPBDXZ 00471370 f i imageio.obj
 0001:00070380       ?pixel_type@?$CImg@M@cimg_library@@SAPBDXZ 00471380 f i imageio.obj
 0001:00070390       ?pixel_type@?$CImgl@E@cimg_library@@SAPBDXZ 00471390 f i imageio.obj
 0001:000703a0       ?pixel_type@?$CImgl@I@cimg_library@@SAPBDXZ 004713a0 f i imageio.obj
 0001:000703b0       ?pixel_type@?$CImgl@M@cimg_library@@SAPBDXZ 004713b0 f i imageio.obj
 0001:000703c0       ?resize@?$CImg@E@cimg_library@@QAEAAU12@HHHHI@Z 004713c0 f i imageio.obj
 0001:00070520       ?resize@CImgDisplay@cimg_library@@QAEAAU12@HH_N@Z 00471520 f i imageio.obj
 0001:00070780       ?save@@YAXPBDPBEHH0H@Z     00471780 f   imageio.obj
 0001:00070980       ?save_convert@?$CImg@E@cimg_library@@QBEABU12@PBDI@Z 00471980 f i imageio.obj
 0001:00070ca0       ?save_pnm@?$CImg@E@cimg_library@@QBEABU12@PBD@Z 00471ca0 f i imageio.obj
 0001:00071180       ?save_pnm@?$CImg@M@cimg_library@@QBEABU12@PBD@Z 00472180 f i imageio.obj
 0001:00071690       ?strcasecmp@cimg@cimg_library@@YAHPBD0@Z 00472690 f i imageio.obj
 0001:00071700       ?strlen@cimg@cimg_library@@YAHPBD@Z 00472700 f i imageio.obj
 0001:00071720       ?strncasecmp@cimg@cimg_library@@YAHPBD0H@Z 00472720 f i imageio.obj
 0001:000717b0       ?strncmp@cimg@cimg_library@@YAHPBD0H@Z 004727b0 f i imageio.obj
 0001:00071960       ?swap@?$CImg@E@cimg_library@@QAEAAU12@AAU12@@Z 00472960 f i imageio.obj
 0001:000719e0       ?system@cimg@cimg_library@@YAXPBD@Z 004729e0 f i imageio.obj
 0001:00071a60       ?warn@cimg@cimg_library@@YAX_NPBDZZ 00472a60 f i imageio.obj
 0001:00071ac0       ___local_stdio_scanf_options 00472ac0 f i imageio.obj
 0001:00071ad0       _fprintf                   00472ad0 f i imageio.obj
 0001:00071b00       _fscanf                    00472b00 f i imageio.obj
 0001:00071b30       _sscanf                    00472b30 f i imageio.obj
 0001:00071b60       ??0Camera@@QAE@XZ          00472b60 f   camera.obj
 0001:00071c20       ?rayThrough@Camera@@QAEXNNAAVray@@@Z 00472c20 f   camera.obj
 0001:00071d30       ?setAspectRatio@Camera@@QAEXN@Z 00472d30 f   camera.obj
 0001:00071ed0       ?setEye@Camera@@QAEXABV?$Vec3@N@@@Z 00472ed0 f   camera.obj
 0001:00071f00       ?setFOV@Camera@@QAEXN@Z    00472f00 f   camera.obj
 0001:000720c0       ?setLook@Camera@@QAEXABV?$Vec3@N@@0@Z 004730c0 f   camera.obj
 0001:00072340       ?setLook@Camera@@QAEXNNNN@Z 00473340 f   camera.obj
 0001:000725f0       ?setLookSimple@Camera@@QAE_NABV?$Vec3@N@@0@Z 004735f0 f   camera.obj
 0001:00072830       ?update@Camera@@AAEXXZ     00473830 f   camera.obj
 0001:000729c0       ?distanceAttenuation@DirectionalLight@@UBENABV?$Vec3@N@@@Z 004739c0 f   light.obj
 0001:000729d0       ?distanceAttenuation@PointLight@@UBENABV?$Vec3@N@@@Z 004739d0 f   light.obj
 0001:00072a80       ?getColor@DirectionalLight@@UBE?AV?$Vec3@N@@XZ 00473a80 f   light.obj
 0001:00072aa0       ?getColor@PointLight@@UBE?AV?$Vec3@N@@XZ 00473aa0 f   light.obj
 0001:00072ac0       ?getDirection@DirectionalLight@@UBE?AV?$Vec3@N@@ABV2@@Z 00473ac0 f   light.obj
 0001:00072af0       ?getDirection@PointLight@@UBE?AV?$Vec3@N@@ABV2@@Z 00473af0 f   light.obj
 0001:00072b80       ?shadowAttenuation@DirectionalLight@@UBE?AV?$Vec3@N@@ABV2@@Z 00473b80 f   light.obj
 0001:00072da0       ?shadowAttenuation@PointLight@@UBE?AV?$Vec3@N@@ABV2@@Z 00473da0 f   light.obj
 0001:00073070       ??0?$basic_string@DU?$char_traits@D@std@@V?$allocator@D@2@@std@@QAE@QBD@Z 00474070 f i material.obj
 0001:000730b0       ??0TextureMap@@QAE@V?$basic_string@DU?$char_traits@D@std@@V?$allocator@D@2@@std@@@Z 004740b0 f   material.obj
 0001:000731e0       ??0TextureMapException@@QAE@ABV0@@Z 004741e0 f i material.obj
 0001:00073200       ??0TextureMapException@@QAE@V?$basic_string@DU?$char_traits@D@std@@V?$allocator@D@2@@std@@@Z 00474200 f i material.obj
 0001:00073290       ?append@?$basic_string@DU?$char_traits@D@std@@V?$allocator@D@2@@std@@QAEAAV12@QBD@Z 00474290 f i material.obj
 0001:000732c0       ?getMappedValue@TextureMap@@QBE?AV?$Vec3@N@@ABV?$Vec2@N@@@Z 004742c0 f   material.obj
 0001:000734d0       ?getPixelAt@TextureMap@@ABE?AV?$Vec3@N@@HH@Z 004744d0 f   material.obj
 0001:00073560       ?intensityValue@MaterialParameter@@QBENABVisect@@@Z 00474560 f   material.obj
 0001:00073620       ?shade@Material@@UBE?AV?$Vec3@N@@PAVScene@@ABVray@@ABVisect@@@Z 00474620 f   material.obj
 0001:00073ca0       ?shininess@Material@@QBENABVisect@@@Z 00474ca0 f i material.obj
 0001:00073dc0       ?value@MaterialParameter@@QBE?AV?$Vec3@N@@ABVisect@@@Z 00474dc0 f   material.obj
 0001:00073e10       ?getMaterial@isect@@QBEABVMaterial@@XZ 00474e10 f   ray.obj
 0001:00073e20       ??$_Buynode@ABUpiecewise_construct_t@std@@V?$tuple@ABV?$basic_string@DU?$char_traits@D@std@@V?$allocator@D@2@@std@@@2@V?$tuple@$$V@2@@?$_Tree_comp_alloc@V?$_Tmap_traits@V?$basic_string@DU?$char_traits@D@std@@V?$allocator@D@2@@std@@PAVTextureMap@@U?$less@V?$basic_string@DU?$char_traits@D@std@@V?$allocator@D@2@@std@@@2@V?$allocator@U?$pair@$$CBV?$basic_string@DU?$char_traits@D@std@@V?$allocator@D@2@@std@@PAVTextureMap@@@std@@@2@$0A@@std@@@std@@QAEPAU?$_Tree_node@U?$pair@$$CBV?$basic_string@DU?$char_traits@D@std@@V?$allocator@D@2@@std@@PAVTextureMap@@@std@@PAX@1@ABUpiecewise_construct_t@1@$$QAV?$tuple@ABV?$basic_string@DU?$char_traits@D@std@@V?$allocator@D@2@@std@@@1@$$QAV?$tuple@$$V@1@@Z 00474e20 f i scene.obj
 0001:00073eb0       ??$_Emplace_reallocate@U?$pair@Vray@@Visect@@@std@@@?$vector@U?$pair@Vray@@Visect@@@std@@V?$allocator@U?$pair@Vray@@Visect@@@std@@@2@@std@@QAEPAU?$pair@Vray@@Visect@@@1@QAU21@$$QAU21@@Z 00474eb0 f i scene.obj
 0001:000741b0       ??$_Insert_at@AAU?$pair@$$CBV?$basic_string@DU?$char_traits@D@std@@V?$allocator@D@2@@std@@PAVTextureMap@@@std@@PAU?$_Tree_node@U?$pair@$$CBV?$basic_string@DU?$char_traits@D@std@@V?$allocator@D@2@@std@@PAVTextureMap@@@std@@PAX@2@@?$_Tree@V?$_Tmap_traits@V?$basic_string@DU?$char_traits@D@std@@V?$allocator@D@2@@std@@PAVTextureMap@@U?$less@V?$basic_string@DU?$char_traits@D@std@@V?$allocator@D@2@@std@@@2@V?$allocator@U?$pair@$$CBV?$basic_string@DU?$char_traits@D@std@@V?$allocator@D@2@@std@@PAVTextureMap@@@std@@@2@$0A@@std@@@std@@IAE?AV?$_Tree_iterator@V?$_Tree_val@U?$_Tree_simple_types@U?$pair@$$CBV?$basic_string@DU?$char_traits@D@std@@V?$allocator@D@2@@std@@PAVTextureMap@@@std@@@std@@@std@@@1@_NPAU?$_Tree_node@U?$pair@$$CBV?$basic_string@DU?$char_traits@D@std@@V?$allocator@D@2@@std@@PAVTextureMap@@@std@@PAX@1@AAU?$pair@$$CBV?$basic_string@DU?$char_traits@D@std@@V?$allocator@D@2@@std@@PAVTextureMap@@@1@1@Z 004751b0 f i scene.obj
 0001:00074310       ??$_Insert_hint@AAU?$pair@$$CBV?$basic_string@DU?$char_traits@D@std@@V?$allocator@D@2@@std@@PAVTextureMap@@@std@@PAU?$_Tree_node@U?$pair@$$CBV?$basic_string@DU?$char_traits@D@std@@V?$allocator@D@2@@std@@PAVTextureMap@@@std@@PAX@2@@?$_Tree@V?$_Tmap_traits@V?$basic_string@DU?$char_traits@D@std@@V?$allocator@D@2@@std@@PAVTextureMap@@U?$less@V?$basic_string@DU?$char_traits@D@std@@V?$allocator@D@2@@std@@@2@V?$allocator@U?$pair@$$CBV?$basic_string@DU?$char_traits@D@std@@V?$allocator@D@2@@std@@PAVTextureMap@@@std@@@2@$0A@@std@@@std@@IAE?AV?$_Tree_iterator@V?$_Tree_val@U?$_Tree_simple_types@U?$pair@$$CBV?$basic_string@DU?$char_traits@D@std@@V?$allocator@D@2@@std@@PAVTextureMap@@@std@@@std@@@std@@@1@V?$_Tree_const_iterator@V?$_Tree_val@U?$_Tree_simple_types@U?$pair@$$CBV?$basic_string@DU?$char_traits@D@std@@V?$allocator@D@2@@std@@PAVTextureMap@@@std@@@std@@@std@@@1@AAU?$pair@$$CBV?$basic_string@DU?$char_traits@D@std@@V?$allocator@D@2@@std@@PAVTextureMap@@@1@PAU?$_Tree_node@U?$pair@$$CBV?$basic_string@DU?$char_traits@D@std@@V?$allocator@D@2@@std@@PAVTextureMap@@@std@@PAX@1@@Z 00475310 f i scene.obj
 0001:00074560       ??$_Insert_nohint@AAU?$pair@$$CBV?$basic_string@DU?$char_traits@D@std@@V?$allocator@D@2@@std@@PAVTextureMap@@@std@@PAU?$_Tree_node@U?$pair@$$CBV?$basic_string@DU?$char_traits@D@std@@V?$allocator@D@2@@std@@PAVTextureMap@@@std@@PAX@2@@?$_Tree@V?$_Tmap_traits@V?$basic_string@DU?$char_traits@D@std@@V?$allocator@D@2@@std@@PAVTextureMap@@U?$less@V?$basic_string@DU?$char_traits@D@std@@V?$allocator@D@2@@std@@@2@V?$allocator@U?$pair@$$CBV?$basic_string@DU?$char_traits@D@std@@V?$allocator@D@2@@std@@PAVTextureMap@@@std@@@2@$0A@@std@@@std@@IAE?AU?$pair@V?$_Tree_iterator@V?$_Tree_val@U?$_Tree_simple_types@U?$pair@$$CBV?$basic_string@DU?$char_traits@D@std@@V?$allocator@D@2@@std@@PAVTextureMap@@@std@@@std@@@std@@@std@@_N@1@_NAAU?$pair@$$CBV?$basic_string@DU?$char_traits@D@std@@V?$allocator@D@2@@std@@PAVTextureMap@@@1@PAU?$_Tree_node@U?$pair@$$CBV?$basic_string@DU?$char_traits@D@std@@V?$allocator@D@2@@std@@PAVTextureMap@@@std@@PAX@1@@Z 00475560 f i scene.obj
 0001:00074710       ??$_Traits_compare@U?$char_traits@D@std@@@std@@YAHQBDI0I@Z 00475710 f i scene.obj
 0001:000747a0       ??0Material@@QAE@ABV0@@Z   004757a0 f i scene.obj
 0001:00074940       ??0isect@@QAE@ABV0@@Z      00475940 f i scene.obj
 0001:000749f0       ??1?$_Uninitialized_backout_al@PAU?$pair@Vray@@Visect@@@std@@V?$allocator@U?$pair@Vray@@Visect@@@std@@@2@@std@@QAE@XZ 004759f0 f i scene.obj
 0001:00074a20       ??1?$pair@Vray@@Visect@@@std@@QAE@XZ 00475a20 f i scene.obj
 0001:00074a40       ??1Scene@@UAE@XZ           00475a40 f   scene.obj
 0001:00074db0       ??1TransformNode@@QAE@XZ   00475db0 f i scene.obj
 0001:00074e50       ??4BoundingBox@@QAEXABV0@@Z 00475e50 f   scene.obj
 0001:00074ea0       ??A?$map@V?$basic_string@DU?$char_traits@D@std@@V?$allocator@D@2@@std@@PAVTextureMap@@U?$less@V?$basic_string@DU?$char_traits@D@std@@V?$allocator@D@2@@std@@@2@V?$allocator@U?$pair@$$CBV?$basic_string@DU?$char_traits@D@std@@V?$allocator@D@2@@std@@PAVTextureMap@@@std@@@2@@std@@QAEAAPAVTextureMap@@ABV?$basic_string@DU?$char_traits@D@std@@V?$allocator@D@2@@1@@Z 00475ea0 f i scene.obj
 0001:00074f30       ??E?$_Tree_const_iterator@V?$_Tree_val@U?$_Tree_simple_types@U?$pair@$$CBV?$basic_string@DU?$char_traits@D@std@@V?$allocator@D@2@@std@@PAVTextureMap@@@std@@@std@@@std@@@std@@QAEAAV01@XZ 00475f30 f i scene.obj
 0001:00074f90       ??F?$_Tree_const_iterator@V?$_Tree_val@U?$_Tree_simple_types@U?$pair@$$CBV?$basic_string@DU?$char_traits@D@std@@V?$allocator@D@2@@std@@PAVTextureMap@@@std@@@std@@@std@@@std@@QAEAAV01@XZ 00475f90 f i scene.obj
 0001:00075020       ??R?$less@V?$basic_string@DU?$char_traits@D@std@@V?$allocator@D@2@@std@@@std@@QBE_NABV?$basic_string@DU?$char_traits@D@std@@V?$allocator@D@2@@1@0@Z 00476020 f i scene.obj
 0001:00075060       ??_EScene@@UAEPAXI@Z       00476060 f i scene.obj
 0001:00075060       ??_GScene@@UAEPAXI@Z       00476060 f i scene.obj
 0001:00075090       ?_Buynode0@?$_Tree_comp_alloc@V?$_Tmap_traits@V?$basic_string@DU?$char_traits@D@std@@V?$allocator@D@2@@std@@PAVTextureMap@@U?$less@V?$basic_string@DU?$char_traits@D@std@@V?$allocator@D@2@@std@@@2@V?$allocator@U?$pair@$$CBV?$basic_string@DU?$char_traits@D@std@@V?$allocator@D@2@@std@@PAVTextureMap@@@std@@@2@$0A@@std@@@std@@QAEPAU?$_Tree_node@U?$pair@$$CBV?$basic_string@DU?$char_traits@D@std@@V?$allocator@D@2@@std@@PAVTextureMap@@@std@@PAX@2@XZ 00476090 f i scene.obj
 0001:000750b0       ?_Destroy@?$vector@U?$pair@Vray@@Visect@@@std@@V?$allocator@U?$pair@Vray@@Visect@@@std@@@2@@std@@AAEXPAU?$pair@Vray@@Visect@@@2@0@Z 004760b0 f i scene.obj
 0001:000750e0       ?_Destroy_if_node@?$_Tree@V?$_Tmap_traits@V?$basic_string@DU?$char_traits@D@std@@V?$allocator@D@2@@std@@PAVTextureMap@@U?$less@V?$basic_string@DU?$char_traits@D@std@@V?$allocator@D@2@@std@@@2@V?$allocator@U?$pair@$$CBV?$basic_string@DU?$char_traits@D@std@@V?$allocator@D@2@@std@@PAVTextureMap@@@std@@@2@$0A@@std@@@std@@IAEXPAU?$_Tree_node@U?$pair@$$CBV?$basic_string@DU?$char_traits@D@std@@V?$allocator@D@2@@std@@PAVTextureMap@@@std@@PAX@2@@Z 004760e0 f i scene.obj
 0001:00075140       ?_Erase@?$_Tree@V?$_Tmap_traits@V?$basic_string@DU?$char_traits@D@std@@V?$allocator@D@2@@std@@PAVTextureMap@@U?$less@V?$basic_string@DU?$char_traits@D@std@@V?$allocator@D@2@@std@@@2@V?$allocator@U?$pair@$$CBV?$basic_string@DU?$char_traits@D@std@@V?$allocator@D@2@@std@@PAVTextureMap@@@std@@@2@$0A@@std@@@std@@IAEXPAU?$_Tree_node@U?$pair@$$CBV?$basic_string@DU?$char_traits@D@std@@V?$allocator@D@2@@std@@PAVTextureMap@@@std@@PAX@2@@Z 00476140 f i scene.obj
 0001:000751d0       ?_Freenode0@?$_Tree_comp_alloc@V?$_Tmap_traits@V?$basic_string@DU?$char_traits@D@std@@V?$allocator@D@2@@std@@PAVTextureMap@@U?$less@V?$basic_string@DU?$char_traits@D@std@@V?$allocator@D@2@@std@@@2@V?$allocator@U?$pair@$$CBV?$basic_string@DU?$char_traits@D@std@@V?$allocator@D@2@@std@@PAVTextureMap@@@std@@@2@$0A@@std@@@std@@QAEXPAU?$_Tree_node@U?$pair@$$CBV?$basic_string@DU?$char_traits@D@std@@V?$allocator@D@2@@std@@PAVTextureMap@@@std@@PAX@2@@Z 004761d0 f i scene.obj
 0001:000751f0       ?_Lrotate@?$_Tree_val@U?$_Tree_simple_types@U?$pair@$$CBV?$basic_string@DU?$char_traits@D@std@@V?$allocator@D@2@@std@@PAVTextureMap@@@std@@@std@@@std@@QAEXPAU?$_Tree_node@U?$pair@$$CBV?$basic_string@DU?$char_traits@D@std@@V?$allocator@D@2@@std@@PAVTextureMap@@@std@@PAX@2@@Z 004761f0 f i scene.obj
 0001:00075250       ?_Rrotate@?$_Tree_val@U?$_Tree_simple_types@U?$pair@$$CBV?$basic_string@DU?$char_traits@D@std@@V?$allocator@D@2@@std@@PAVTextureMap@@@std@@@std@@@std@@QAEXPAU?$_Tree_node@U?$pair@$$CBV?$basic_string@DU?$char_traits@D@std@@V?$allocator@D@2@@std@@PAVTextureMap@@@std@@PAX@2@@Z 00476250 f i scene.obj
 0001:000752b0       ?_Umove@?$vector@U?$pair@Vray@@Visect@@@std@@V?$allocator@U?$pair@Vray@@Visect@@@std@@@2@@std@@AAEPAU?$pair@Vray@@Visect@@@2@PAU32@00@Z 004762b0 f i scene.obj
 0001:00075380       ?_Xlength@?$vector@U?$pair@Vray@@Visect@@@std@@V?$allocator@U?$pair@Vray@@Visect@@@std@@@2@@std@@CAXXZ 00476380 f i scene.obj
 0001:00075390       ?deallocate@?$allocator@U?$pair@Vray@@Visect@@@std@@@std@@QAEXQAU?$pair@Vray@@Visect@@@2@I@Z 00476390 f i scene.obj
 0001:000753e0       ?getTexture@Scene@@QAEPAVTextureMap@@V?$basic_string@DU?$char_traits@D@std@@V?$allocator@D@2@@std@@@Z 004763e0 f   scene.obj
 0001:00075510       ?hasBoundingBoxCapability@Geometry@@UBE_NXZ 00476510 f   scene.obj
 0001:00075520       ?intersect@BoundingBox@@QBE_NABVray@@AAN1@Z 00476520 f   scene.obj
 0001:00075650       ?intersect@Geometry@@QBE_NABVray@@AAVisect@@@Z 00476650 f   scene.obj
 0001:000759b0       ?intersect@Scene@@QBE_NABVray@@AAVisect@@@Z 004769b0 f   scene.obj
 0001:00075db0       ?intersects@BoundingBox@@QBE_NABV1@@Z 00476db0 f   scene.obj
 0001:00075e40       ?intersects@BoundingBox@@QBE_NABV?$Vec3@N@@@Z 00476e40 f   scene.obj
 0001:00075ec0       ?lower_bound@?$_Tree@V?$_Tmap_traits@V?$basic_string@DU?$char_traits@D@std@@V?$allocator@D@2@@std@@PAVTextureMap@@U?$less@V?$basic_string@DU?$char_traits@D@std@@V?$allocator@D@2@@std@@@2@V?$allocator@U?$pair@$$CBV?$basic_string@DU?$char_traits@D@std@@V?$allocator@D@2@@std@@PAVTextureMap@@@std@@@2@$0A@@std@@@std@@QAE?AV?$_Tree_iterator@V?$_Tree_val@U?$_Tree_simple_types@U?$pair@$$CBV?$basic_string@DU?$char_traits@D@std@@V?$allocator@D@2@@std@@PAVTextureMap@@@std@@@std@@@std@@@2@ABV?$basic_string@DU?$char_traits@D@std@@V?$allocator@D@2@@2@@Z 00476ec0 f i scene.obj
 0001:00075f20       ?intersectLocal@Box@@UBE_NABVray@@AAVisect@@@Z 00476f20 f   Box.obj
 0001:000761a0       ?intersectLocal@Cone@@UBE_NABVray@@AAVisect@@@Z 004771a0 f   Cone.obj
 0001:000766c0       ?isGoodRoot@Cone@@IBE_NV?$Vec3@N@@@Z 004776c0 f   Cone.obj
 0001:000766f0       ??4isect@@QAEAAV0@ABV0@@Z  004776f0 f i Cylinder.obj
 0001:00076ad0       ?intersectBody@Cylinder@@QBE_NABVray@@AAVisect@@@Z 00477ad0 f   Cylinder.obj
 0001:00076de0       ?intersectCaps@Cylinder@@QBE_NABVray@@AAVisect@@@Z 00477de0 f   Cylinder.obj
 0001:00076f10       ?intersectLocal@Cylinder@@UBE_NABVray@@AAVisect@@@Z 00477f10 f   Cylinder.obj
 0001:00077130       ?intersectLocal@Sphere@@UBE_NABVray@@AAVisect@@@Z 00478130 f   Sphere.obj
 0001:00077340       ?intersectLocal@Square@@UBE_NABVray@@AAVisect@@@Z 00478340 f   Square.obj
 0001:00077460       ??$_Emplace_reallocate@ABQAVGeometry@@@?$vector@PAVGeometry@@V?$allocator@PAVGeometry@@@std@@@std@@QAEPAPAVGeometry@@QAPAV2@ABQAV2@@Z 00478460 f i trimesh.obj
 0001:000775c0       ??$_Emplace_reallocate@ABQAVMaterial@@@?$vector@PAVMaterial@@V?$allocator@PAVMaterial@@@std@@@std@@QAEPAPAVMaterial@@QAPAV2@ABQAV2@@Z 004785c0 f i trimesh.obj
 0001:00077720       ??$_Emplace_reallocate@ABQAVTrimeshFace@@@?$vector@PAVTrimeshFace@@V?$allocator@PAVTrimeshFace@@@std@@@std@@QAEPAPAVTrimeshFace@@QAPAV2@ABQAV2@@Z 00478720 f i trimesh.obj
 0001:00077880       ??$_Emplace_reallocate@ABV?$Vec3@N@@@?$vector@V?$Vec3@N@@V?$allocator@V?$Vec3@N@@@std@@@std@@QAEPAV?$Vec3@N@@QAV2@ABV2@@Z 00478880 f i trimesh.obj
 0001:00077a10       ??$_Resize@V<lambda_c51c6576791b1836d6db5ed62ad0b334>@@@?$vector@V?$Vec3@N@@V?$allocator@V?$Vec3@N@@@std@@@std@@AAEXIV<lambda_c51c6576791b1836d6db5ed62ad0b334>@@@Z 00478a10 f i trimesh.obj
 0001:00077b60       ??0?$vector@V?$Vec3@N@@V?$allocator@V?$Vec3@N@@@std@@@std@@QAE@ABV01@@Z 00478b60 f i trimesh.obj
 0001:00077c00       ??1MaterialSceneObject@@UAE@XZ 00478c00 f i trimesh.obj
 0001:00077c30       ??1SceneElement@@UAE@XZ    00478c30 f i trimesh.obj
 0001:00077c40       ??1Trimesh@@UAE@XZ         00478c40 f   trimesh.obj
 0001:00077d40       ??D@YA?AVMaterial@@NV0@@Z  00478d40 f i trimesh.obj
 0001:00077eb0       ??YMaterial@@QAEAAV0@ABV0@@Z 00478eb0 f i trimesh.obj
 0001:00078090       ??_GGeometry@@UAEPAXI@Z    00479090 f i trimesh.obj
 0001:00078090       ??_EGeometry@@UAEPAXI@Z    00479090 f i trimesh.obj
 0001:000780c0       ??_EMaterialSceneObject@@UAEPAXI@Z 004790c0 f i trimesh.obj
 0001:000780c0       ??_GMaterialSceneObject@@UAEPAXI@Z 004790c0 f i trimesh.obj
 0001:00078100       ??_ESceneElement@@UAEPAXI@Z 00479100 f i trimesh.obj
 0001:00078100       ??_GSceneElement@@UAEPAXI@Z 00479100 f i trimesh.obj
 0001:00078130       ??_ESceneObject@@UAEPAXI@Z 00479130 f i trimesh.obj
 0001:00078130       ??_GSceneObject@@UAEPAXI@Z 00479130 f i trimesh.obj
 0001:00078160       ??_GTrimesh@@UAEPAXI@Z     00479160 f i trimesh.obj
 0001:00078160       ??_ETrimesh@@UAEPAXI@Z     00479160 f i trimesh.obj
 0001:00078280       ??_GTrimeshFace@@UAEPAXI@Z 00479280 f i trimesh.obj
 0001:00078280       ??_ETrimeshFace@@UAEPAXI@Z 00479280 f i trimesh.obj
 0001:000782c0       ?ComputeBoundingBox@Geometry@@UAEXXZ 004792c0 f i trimesh.obj
 0001:00078800       ?ComputeLocalBoundingBox@Geometry@@UAE?AVBoundingBox@@XZ 00479800 f i trimesh.obj
 0001:00078840       ?ComputeLocalBoundingBox@TrimeshFace@@UAE?AVBoundingBox@@XZ 00479840 f i trimesh.obj
 0001:00078960       ?_Change_array@?$vector@V?$Vec3@N@@V?$allocator@V?$Vec3@N@@@std@@@std@@AAEXQAV?$Vec3@N@@II@Z 00479960 f i trimesh.obj
 0001:000789e0       ?_Tidy@?$vector@V?$Vec3@N@@V?$allocator@V?$Vec3@N@@@std@@@std@@AAEXXZ 004799e0 f i trimesh.obj
 0001:00078a50       ?_Xlength@?$vector@PAVGeometry@@V?$allocator@PAVGeometry@@@std@@@std@@CAXXZ 00479a50 f i trimesh.obj
 0001:00078a60       ?_Xlength@?$vector@PAVMaterial@@V?$allocator@PAVMaterial@@@std@@@std@@CAXXZ 00479a60 f i trimesh.obj
 0001:00078a70       ?_Xlength@?$vector@PAVTrimeshFace@@V?$allocator@PAVTrimeshFace@@@std@@@std@@CAXXZ 00479a70 f i trimesh.obj
 0001:00078a80       ?_Xlength@?$vector@V?$Vec3@N@@V?$allocator@V?$Vec3@N@@@std@@@std@@CAXXZ 00479a80 f i trimesh.obj
 0001:00078a90       ?addFace@Trimesh@@QAE_NHHH@Z 00479a90 f   trimesh.obj
 0001:00078c00       ?addMaterial@Trimesh@@QAEXPAVMaterial@@@Z 00479c00 f   trimesh.obj
 0001:00078c30       ?addNormal@Trimesh@@QAEXABV?$Vec3@N@@@Z 00479c30 f   trimesh.obj
 0001:00078c80       ?addVertex@Trimesh@@QAEXABV?$Vec3@N@@@Z 00479c80 f   trimesh.obj
 0001:00078cd0       ?allocate@?$allocator@V?$Vec3@N@@@std@@QAEPAV?$Vec3@N@@I@Z 00479cd0 f i trimesh.obj
 0001:00078d40       ?doubleCheck@Trimesh@@QAEPADXZ 00479d40 f   trimesh.obj
 0001:00078dc0       ?generateNormals@Trimesh@@QAEXXZ 00479dc0 f   trimesh.obj
 0001:00079040       ?getMaterial@MaterialSceneObject@@UBEABVMaterial@@XZ 0047a040 f i trimesh.obj
 0001:00079050       ?glDraw@SceneElement@@UBEXH_N0@Z 0047a050 f i trimesh.obj
 0001:00079060       ?glDrawLocal@Geometry@@UBEXH_N0@Z 0047a060 f i trimesh.obj
 0001:00079070       ?hasBoundingBoxCapability@TrimeshFace@@UBE_NXZ 0047a070 f i trimesh.obj
 0001:00079080       ?hasPerVertexNormals@Trimesh@@QAE_NXZ 0047a080 f   trimesh.obj
 0001:00079090       ?intersectLocal@Trimesh@@UBE_NABVray@@AAVisect@@@Z 0047a090 f i trimesh.obj
 0001:000790a0       ?intersectLocal@TrimeshFace@@UBE_NABVray@@AAVisect@@@Z 0047a0a0 f   trimesh.obj
 0001:000799b0       ?setMaterial@MaterialSceneObject@@UAEXPAVMaterial@@@Z 0047a9b0 f i trimesh.obj
 0001:000799e0       ??$?6DU?$char_traits@D@std@@V?$allocator@D@1@@std@@YAAAV?$basic_ostream@DU?$char_traits@D@std@@@0@AAV10@ABV?$basic_string@DU?$char_traits@D@std@@V?$allocator@D@2@@0@@Z 0047a9e0 f i Parser.obj
 0001:00079a00       ??$?DN@@YA?AV?$Mat4@N@@ABV0@0@Z 0047aa00 f i Parser.obj
 0001:00079d60       ??$_Buynode@ABUpiecewise_construct_t@std@@V?$tuple@$$QAV?$basic_string@DU?$char_traits@D@std@@V?$allocator@D@2@@std@@@2@V?$tuple@$$V@2@@?$_Tree_comp_alloc@V?$_Tmap_traits@V?$basic_string@DU?$char_traits@D@std@@V?$allocator@D@2@@std@@VMaterial@@U?$less@V?$basic_string@DU?$char_traits@D@std@@V?$allocator@D@2@@std@@@2@V?$allocator@U?$pair@$$CBV?$basic_string@DU?$char_traits@D@std@@V?$allocator@D@2@@std@@VMaterial@@@std@@@2@$0A@@std@@@std@@QAEPAU?$_Tree_node@U?$pair@$$CBV?$basic_string@DU?$char_traits@D@std@@V?$allocator@D@2@@std@@VMaterial@@@std@@PAX@1@ABUpiecewise_construct_t@1@$$QAV?$tuple@$$QAV?$basic_string@DU?$char_traits@D@std@@V?$allocator@D@2@@std@@@1@$$QAV?$tuple@$$V@1@@Z 0047ad60 f i Parser.obj
 0001:00079dc0       ??$_Buynode@ABUpiecewise_construct_t@std@@V?$tuple@ABV?$basic_string@DU?$char_traits@D@std@@V?$allocator@D@2@@std@@@2@V?$tuple@$$V@2@@?$_Tree_comp_alloc@V?$_Tmap_traits@V?$basic_string@DU?$char_traits@D@std@@V?$allocator@D@2@@std@@VMaterial@@U?$less@V?$basic_string@DU?$char_traits@D@std@@V?$allocator@D@2@@std@@@2@V?$allocator@U?$pair@$$CBV?$basic_string@DU?$char_traits@D@std@@V?$allocator@D@2@@std@@VMaterial@@@std@@@2@$0A@@std@@@std@@QAEPAU?$_Tree_node@U?$pair@$$CBV?$basic_string@DU?$char_traits@D@std@@V?$allocator@D@2@@std@@VMaterial@@@std@@PAX@1@ABUpiecewise_construct_t@1@$$QAV?$tuple@ABV?$basic_string@DU?$char_traits@D@std@@V?$allocator@D@2@@std@@@1@$$QAV?$tuple@$$V@1@@Z 0047adc0 f i Parser.obj
 0001:00079e50       ??$_Buynode@N@?$_List_buy@NV?$allocator@N@std@@@std@@QAEPAU?$_List_node@NPAX@1@PAU21@0$$QAN@Z 0047ae50 f i Parser.obj
 0001:00079e70       ??$_Buynode@V?$Vec3@N@@@?$_List_buy@V?$Vec3@N@@V?$allocator@V?$Vec3@N@@@std@@@std@@QAEPAU?$_List_node@V?$Vec3@N@@PAX@1@PAU21@0$$QAV?$Vec3@N@@@Z 0047ae70 f i Parser.obj
 0001:00079eb0       ??$_Emplace_reallocate@ABQAVLight@@@?$vector@PAVLight@@V?$allocator@PAVLight@@@std@@@std@@QAEPAPAVLight@@QAPAV2@ABQAV2@@Z 0047aeb0 f i Parser.obj
 0001:0007a010       ??$_Emplace_reallocate@ABQAVTransformNode@@@?$vector@PAVTransformNode@@V?$allocator@PAVTransformNode@@@std@@@std@@QAEPAPAVTransformNode@@QAPAV2@ABQAV2@@Z 0047b010 f i Parser.obj
 0001:0007a170       ??$_Insert_at@AAU?$pair@$$CBV?$basic_string@DU?$char_traits@D@std@@V?$allocator@D@2@@std@@VMaterial@@@std@@PAU?$_Tree_node@U?$pair@$$CBV?$basic_string@DU?$char_traits@D@std@@V?$allocator@D@2@@std@@VMaterial@@@std@@PAX@2@@?$_Tree@V?$_Tmap_traits@V?$basic_string@DU?$char_traits@D@std@@V?$allocator@D@2@@std@@VMaterial@@U?$less@V?$basic_string@DU?$char_traits@D@std@@V?$allocator@D@2@@std@@@2@V?$allocator@U?$pair@$$CBV?$basic_string@DU?$char_traits@D@std@@V?$allocator@D@2@@std@@VMaterial@@@std@@@2@$0A@@std@@@std@@IAE?AV?$_Tree_iterator@V?$_Tree_val@U?$_Tree_simple_types@U?$pair@$$CBV?$basic_string@DU?$char_traits@D@std@@V?$allocator@D@2@@std@@VMaterial@@@std@@@std@@@std@@@1@_NPAU?$_Tree_node@U?$pair@$$CBV?$basic_string@DU?$char_traits@D@std@@V?$allocator@D@2@@std@@VMaterial@@@std@@PAX@1@AAU?$pair@$$CBV?$basic_string@DU?$char_traits@D@std@@V?$allocator@D@2@@std@@VMaterial@@@1@1@Z 0047b170 f i Parser.obj
 0001:0007a2d0       ??$_Insert_hint@AAU?$pair@$$CBV?$basic_string@DU?$char_traits@D@std@@V?$allocator@D@2@@std@@VMaterial@@@std@@PAU?$_Tree_node@U?$pair@$$CBV?$basic_string@DU?$char_traits@D@std@@V?$allocator@D@2@@std@@VMaterial@@@std@@PAX@2@@?$_Tree@V?$_Tmap_traits@V?$basic_string@DU?$char_traits@D@std@@V?$allocator@D@2@@std@@VMaterial@@U?$less@V?$basic_string@DU?$char_traits@D@std@@V?$allocator@D@2@@std@@@2@V?$allocator@U?$pair@$$CBV?$basic_string@DU?$char_traits@D@std@@V?$allocator@D@2@@std@@VMaterial@@@std@@@2@$0A@@std@@@std@@IAE?AV?$_Tree_iterator@V?$_Tree_val@U?$_Tree_simple_types@U?$pair@$$CBV?$basic_string@DU?$char_traits@D@std@@V?$allocator@D@2@@std@@VMaterial@@@std@@@std@@@std@@@1@V?$_Tree_const_iterator@V?$_Tree_val@U?$_Tree_simple_types@U?$pair@$$CBV?$basic_string@DU?$char_traits@D@std@@V?$allocator@D@2@@std@@VMaterial@@@std@@@std@@@std@@@1@AAU?$pair@$$CBV?$basic_string@DU?$char_traits@D@std@@V?$allocator@D@2@@std@@VMaterial@@@1@PAU?$_Tree_node@U?$pair@$$CBV?$basic_string@DU?$char_traits@D@std@@V?$allocator@D@2@@std@@VMaterial@@@std@@PAX@1@@Z 0047b2d0 f i Parser.obj
 0001:0007a520       ??$_Insert_nohint@AAU?$pair@$$CBV?$basic_string@DU?$char_traits@D@std@@V?$allocator@D@2@@std@@VMaterial@@@std@@PAU?$_Tree_node@U?$pair@$$CBV?$basic_string@DU?$char_traits@D@std@@V?$allocator@D@2@@std@@VMaterial@@@std@@PAX@2@@?$_Tree@V?$_Tmap_traits@V?$basic_string@DU?$char_traits@D@std@@V?$allocator@D@2@@std@@VMaterial@@U?$less@V?$basic_string@DU?$char_traits@D@std@@V?$allocator@D@2@@std@@@2@V?$allocator@U?$pair@$$CBV?$basic_string@DU?$char_traits@D@std@@V?$allocator@D@2@@std@@VMaterial@@@std@@@2@$0A@@std@@@std@@IAE?AU?$pair@V?$_Tree_iterator@V?$_Tree_val@U?$_Tree_simple_types@U?$pair@$$CBV?$basic_string@DU?$char_traits@D@std@@V?$allocator@D@2@@std@@VMaterial@@@std@@@std@@@std@@@std@@_N@1@_NAAU?$pair@$$CBV?$basic_string@DU?$char_traits@D@std@@V?$allocator@D@2@@std@@VMaterial@@@1@PAU?$_Tree_node@U?$pair@$$CBV?$basic_string@DU?$char_traits@D@std@@V?$allocator@D@2@@std@@VMaterial@@@std@@PAX@1@@Z 0047b520 f i Parser.obj
 0001:0007a6d0       ??0?$Mat3@N@@QAE@XZ        0047b6d0 f i Parser.obj
 0001:0007a740       ??0?$auto_ptr@VMaterial@@@std@@QAE@PAVMaterial@@@Z 0047b740 f i Parser.obj
 0001:0007a750       ??0?$basic_ostringstream@DU?$char_traits@D@std@@V?$allocator@D@2@@std@@QAE@H@Z 0047b750 f i Parser.obj
 0001:0007a830       ??0Material@@QAE@XZ        0047b830 f i Parser.obj
 0001:0007a8f0       ??0ParserException@@QAE@ABV0@@Z 0047b8f0 f i Parser.obj
 0001:0007a910       ??0ParserException@@QAE@ABV?$basic_string@DU?$char_traits@D@std@@V?$allocator@D@2@@std@@@Z 0047b910 f i Parser.obj
 0001:0007a930       ??0ParserFatalException@@QAE@ABV0@@Z 0047b930 f i Parser.obj
 0001:0007a950       ??0ParserFatalException@@QAE@ABV?$basic_string@DU?$char_traits@D@std@@V?$allocator@D@2@@std@@@Z 0047b950 f i Parser.obj
 0001:0007a970       ??0SyntaxErrorException@@QAE@ABV0@@Z 0047b970 f i Parser.obj
 0001:0007a9d0       ??0TransformNode@@IAE@PAV0@ABV?$Mat4@N@@@Z 0047b9d0 f i Parser.obj
 0001:0007aba0       ??1?$auto_ptr@VMaterial@@@std@@QAE@XZ 0047bba0 f i Parser.obj
 0001:0007abb0       ??1?$auto_ptr@VToken@@@std@@QAE@XZ 0047bbb0 f i Parser.obj
 0001:0007abc0       ??1?$basic_ostringstream@DU?$char_traits@D@std@@V?$allocator@D@2@@std@@UAE@XZ 0047bbc0 f i Parser.obj
 0001:0007abf0       ??1?$basic_stringbuf@DU?$char_traits@D@std@@V?$allocator@D@2@@std@@UAE@XZ 0047bbf0 f i Parser.obj
 0001:0007aca0       ??1?$list@NV?$allocator@N@std@@@std@@QAE@XZ 0047bca0 f i Parser.obj
 0001:0007acf0       ??1?$list@V?$Vec3@N@@V?$allocator@V?$Vec3@N@@@std@@@std@@QAE@XZ 0047bcf0 f i Parser.obj
 0001:0007ad40       ??1?$vector@PAVGeometry@@V?$allocator@PAVGeometry@@@std@@@std@@QAE@XZ 0047bd40 f i Parser.obj
 0001:0007ada0       ??1?$vector@PAVLight@@V?$allocator@PAVLight@@@std@@@std@@QAE@XZ 0047bda0 f i Parser.obj
 0001:0007ae00       ??1ParserException@@QAE@XZ 0047be00 f i Parser.obj
 0001:0007ae50       ??1ParserFatalException@@QAE@XZ 0047be50 f i Parser.obj
 0001:0007aea0       ??1SyntaxErrorException@@QAE@XZ 0047bea0 f i Parser.obj
 0001:0007af30       ??1TransformRoot@@QAE@XZ   0047bf30 f i Parser.obj
 0001:0007af40       ??4?$auto_ptr@VMaterial@@@std@@QAEAAV01@AAV01@@Z 0047bf40 f i Parser.obj
 0001:0007af70       ??A?$Vec3@N@@QBENH@Z       0047bf70 f i Parser.obj
 0001:0007af80       ??C?$auto_ptr@VToken@@@std@@QBEPAVToken@@XZ 0047bf80 f i Parser.obj
 0001:0007af90       ??D?$_List_const_iterator@V?$_List_val@U?$_List_simple_types@V?$Vec3@N@@@std@@@std@@@std@@QBEABV?$Vec3@N@@XZ 0047bf90 f i Parser.obj
 0001:0007afa0       ??E?$_Tree_const_iterator@V?$_Tree_val@U?$_Tree_simple_types@U?$pair@$$CBV?$basic_string@DU?$char_traits@D@std@@V?$allocator@D@2@@std@@VMaterial@@@std@@@std@@@std@@@std@@QAEAAV01@XZ 0047bfa0 f i Parser.obj
 0001:0007b000       ??F?$_Tree_const_iterator@V?$_Tree_val@U?$_Tree_simple_types@U?$pair@$$CBV?$basic_string@DU?$char_traits@D@std@@V?$allocator@D@2@@std@@VMaterial@@@std@@@std@@@std@@@std@@QAEAAV01@XZ 0047c000 f i Parser.obj
 0001:0007b090       ??_D?$basic_ostringstream@DU?$char_traits@D@std@@V?$allocator@D@2@@std@@QAEXXZ 0047c090 f i Parser.obj
 0001:0007b0c8       ??_E?$basic_ostringstream@DU?$char_traits@D@std@@V?$allocator@D@2@@std@@$4PPPPPPPM@A@AEPAXI@Z 0047c0c8 f i Parser.obj
 0001:0007b0d0       ??_G?$basic_ostringstream@DU?$char_traits@D@std@@V?$allocator@D@2@@std@@UAEPAXI@Z 0047c0d0 f i Parser.obj
 0001:0007b0d0       ??_E?$basic_ostringstream@DU?$char_traits@D@std@@V?$allocator@D@2@@std@@UAEPAXI@Z 0047c0d0 f i Parser.obj
 0001:0007b130       ??_E?$basic_stringbuf@DU?$char_traits@D@std@@V?$allocator@D@2@@std@@UAEPAXI@Z 0047c130 f i Parser.obj
 0001:0007b130       ??_G?$basic_stringbuf@DU?$char_traits@D@std@@V?$allocator@D@2@@std@@UAEPAXI@Z 0047c130 f i Parser.obj
 0001:0007b160       ??_EBox@@UAEPAXI@Z         0047c160 f i Parser.obj
 0001:0007b160       ??_GBox@@UAEPAXI@Z         0047c160 f i Parser.obj
 0001:0007b1a0       ??_ECone@@UAEPAXI@Z        0047c1a0 f i Parser.obj
 0001:0007b1a0       ??_GCone@@UAEPAXI@Z        0047c1a0 f i Parser.obj
 0001:0007b1e0       ??_ECylinder@@UAEPAXI@Z    0047c1e0 f i Parser.obj
 0001:0007b1e0       ??_GCylinder@@UAEPAXI@Z    0047c1e0 f i Parser.obj
 0001:0007b220       ??_GDirectionalLight@@UAEPAXI@Z 0047c220 f i Parser.obj
 0001:0007b220       ??_EDirectionalLight@@UAEPAXI@Z 0047c220 f i Parser.obj
 0001:0007b250       ??_ELight@@UAEPAXI@Z       0047c250 f i Parser.obj
 0001:0007b250       ??_GLight@@UAEPAXI@Z       0047c250 f i Parser.obj
 0001:0007b280       ??_EPointLight@@UAEPAXI@Z  0047c280 f i Parser.obj
 0001:0007b280       ??_GPointLight@@UAEPAXI@Z  0047c280 f i Parser.obj
 0001:0007b2b0       ??_ESphere@@UAEPAXI@Z      0047c2b0 f i Parser.obj
 0001:0007b2b0       ??_GSphere@@UAEPAXI@Z      0047c2b0 f i Parser.obj
 0001:0007b2f0       ??_GSquare@@UAEPAXI@Z      0047c2f0 f i Parser.obj
 0001:0007b2f0       ??_ESquare@@UAEPAXI@Z      0047c2f0 f i Parser.obj
 0001:0007b330       ?ComputeLocalBoundingBox@Box@@UAE?AVBoundingBox@@XZ 0047c330 f i Parser.obj
 0001:0007b360       ?ComputeLocalBoundingBox@Cone@@UAE?AVBoundingBox@@XZ 0047c360 f i Parser.obj
 0001:0007b3c0       ?ComputeLocalBoundingBox@Cylinder@@UAE?AVBoundingBox@@XZ 0047c3c0 f i Parser.obj
 0001:0007b3f0       ?ComputeLocalBoundingBox@Sphere@@UAE?AVBoundingBox@@XZ 0047c3f0 f i Parser.obj
 0001:0007b420       ?ComputeLocalBoundingBox@Square@@UAE?AVBoundingBox@@XZ 0047c420 f i Parser.obj
 0001:0007b460       ?_Buyheadnode@?$_Tree_comp_alloc@V?$_Tmap_traits@V?$basic_string@DU?$char_traits@D@std@@V?$allocator@D@2@@std@@PAVTextureMap@@U?$less@V?$basic_string@DU?$char_traits@D@std@@V?$allocator@D@2@@std@@@2@V?$allocator@U?$pair@$$CBV?$basic_string@DU?$char_traits@D@std@@V?$allocator@D@2@@std@@PAVTextureMap@@@std@@@2@$0A@@std@@@std@@QAEPAU?$_Tree_node@U?$pair@$$CBV?$basic_string@DU?$char_traits@D@std@@V?$allocator@D@2@@std@@PAVTextureMap@@@std@@PAX@2@XZ 0047c460 f i Parser.obj
 0001:0007b480       ?_Buynode0@?$_List_alloc@U?$_List_base_types@NV?$allocator@N@std@@@std@@@std@@QAEPAU?$_List_node@NPAX@2@PAU32@0@Z 0047c480 f i Parser.obj
 0001:0007b4b0       ?_Buynode0@?$_List_alloc@U?$_List_base_types@V?$Vec3@N@@V?$allocator@V?$Vec3@N@@@std@@@std@@@std@@QAEPAU?$_List_node@V?$Vec3@N@@PAX@2@PAU32@0@Z 0047c4b0 f i Parser.obj
 0001:0007b4e0       ?_Buynode0@?$_Tree_comp_alloc@V?$_Tmap_traits@V?$basic_string@DU?$char_traits@D@std@@V?$allocator@D@2@@std@@VMaterial@@U?$less@V?$basic_string@DU?$char_traits@D@std@@V?$allocator@D@2@@std@@@2@V?$allocator@U?$pair@$$CBV?$basic_string@DU?$char_traits@D@std@@V?$allocator@D@2@@std@@VMaterial@@@std@@@2@$0A@@std@@@std@@QAEPAU?$_Tree_node@U?$pair@$$CBV?$basic_string@DU?$char_traits@D@std@@V?$allocator@D@2@@std@@VMaterial@@@std@@PAX@2@XZ 0047c4e0 f i Parser.obj
 0001:0007b500       ?_Destroy_if_node@?$_Tree@V?$_Tmap_traits@V?$basic_string@DU?$char_traits@D@std@@V?$allocator@D@2@@std@@VMaterial@@U?$less@V?$basic_string@DU?$char_traits@D@std@@V?$allocator@D@2@@std@@@2@V?$allocator@U?$pair@$$CBV?$basic_string@DU?$char_traits@D@std@@V?$allocator@D@2@@std@@VMaterial@@@std@@@2@$0A@@std@@@std@@IAEXPAU?$_Tree_node@U?$pair@$$CBV?$basic_string@DU?$char_traits@D@std@@V?$allocator@D@2@@std@@VMaterial@@@std@@PAX@2@@Z 0047c500 f i Parser.obj
 0001:0007b570       ?_Freenode0@?$_Tree_comp_alloc@V?$_Tmap_traits@V?$basic_string@DU?$char_traits@D@std@@V?$allocator@D@2@@std@@VMaterial@@U?$less@V?$basic_string@DU?$char_traits@D@std@@V?$allocator@D@2@@std@@@2@V?$allocator@U?$pair@$$CBV?$basic_string@DU?$char_traits@D@std@@V?$allocator@D@2@@std@@VMaterial@@@std@@@2@$0A@@std@@@std@@QAEXPAU?$_Tree_node@U?$pair@$$CBV?$basic_string@DU?$char_traits@D@std@@V?$allocator@D@2@@std@@VMaterial@@@std@@PAX@2@@Z 0047c570 f i Parser.obj
 0001:0007b590       ?_Lrotate@?$_Tree_val@U?$_Tree_simple_types@U?$pair@$$CBV?$basic_string@DU?$char_traits@D@std@@V?$allocator@D@2@@std@@VMaterial@@@std@@@std@@@std@@QAEXPAU?$_Tree_node@U?$pair@$$CBV?$basic_string@DU?$char_traits@D@std@@V?$allocator@D@2@@std@@VMaterial@@@std@@PAX@2@@Z 0047c590 f i Parser.obj
 0001:0007b5f0       ?_Rrotate@?$_Tree_val@U?$_Tree_simple_types@U?$pair@$$CBV?$basic_string@DU?$char_traits@D@std@@V?$allocator@D@2@@std@@VMaterial@@@std@@@std@@@std@@QAEXPAU?$_Tree_node@U?$pair@$$CBV?$basic_string@DU?$char_traits@D@std@@V?$allocator@D@2@@std@@VMaterial@@@std@@PAX@2@@Z 0047c5f0 f i Parser.obj
 0001:0007b650       ?_Xlength@?$vector@PAVLight@@V?$allocator@PAVLight@@@std@@@std@@CAXXZ 0047c650 f i Parser.obj
 0001:0007b660       ?_Xlength@?$vector@PAVTransformNode@@V?$allocator@PAVTransformNode@@@std@@@std@@CAXXZ 0047c660 f i Parser.obj
 0001:0007b670       ?deallocate@?$allocator@D@std@@QAEXQADI@Z 0047c670 f i Parser.obj
 0001:0007b6b0       ?glDraw@Light@@UBEXI@Z     0047c6b0 f i Parser.obj
 0001:0007b6c0       ?glDraw@Light@@UBEXXZ      0047c6c0 f i Parser.obj
 0001:0007b6d0       ?hasBoundingBoxCapability@Box@@UBE_NXZ 0047c6d0 f i Parser.obj
 0001:0007b6e0       ?hasBoundingBoxCapability@Cone@@UBE_NXZ 0047c6e0 f i Parser.obj
 0001:0007b6f0       ?hasBoundingBoxCapability@Cylinder@@UBE_NXZ 0047c6f0 f i Parser.obj
 0001:0007b700       ?hasBoundingBoxCapability@Sphere@@UBE_NXZ 0047c700 f i Parser.obj
 0001:0007b710       ?hasBoundingBoxCapability@Square@@UBE_NXZ 0047c710 f i Parser.obj
 0001:0007b720       ?inverse@?$Mat3@N@@QBE?AV1@XZ 0047c720 f i Parser.obj
 0001:0007ba30       ?inverse@?$Mat4@N@@QBE?AV1@XZ 0047ca30 f i Parser.obj
 0001:0007beb0       ?lower_bound@?$_Tree@V?$_Tmap_traits@V?$basic_string@DU?$char_traits@D@std@@V?$allocator@D@2@@std@@VMaterial@@U?$less@V?$basic_string@DU?$char_traits@D@std@@V?$allocator@D@2@@std@@@2@V?$allocator@U?$pair@$$CBV?$basic_string@DU?$char_traits@D@std@@V?$allocator@D@2@@std@@VMaterial@@@std@@@2@$0A@@std@@@std@@QAE?AV?$_Tree_iterator@V?$_Tree_val@U?$_Tree_simple_types@U?$pair@$$CBV?$basic_string@DU?$char_traits@D@std@@V?$allocator@D@2@@std@@VMaterial@@@std@@@std@@@std@@@2@ABV?$basic_string@DU?$char_traits@D@std@@V?$allocator@D@2@@2@@Z 0047ceb0 f i Parser.obj
 0001:0007bf10       ?overflow@?$basic_stringbuf@DU?$char_traits@D@std@@V?$allocator@D@2@@std@@MAEHH@Z 0047cf10 f i Parser.obj
 0001:0007c060       ?parseAmbientLight@Parser@@AAEXPAVScene@@@Z 0047d060 f   Parser.obj
 0001:0007c1d0       ?parseBoolean@Parser@@AAE_NXZ 0047d1d0 f   Parser.obj
 0001:0007c2a0       ?parseBooleanExpression@Parser@@AAE_NXZ 0047d2a0 f   Parser.obj
 0001:0007c3b0       ?parseBox@Parser@@AAEXPAVScene@@PAVTransformNode@@ABVMaterial@@@Z 0047d3b0 f   Parser.obj
 0001:0007c600       ?parseCamera@Parser@@AAEXPAVScene@@@Z 0047d600 f   Parser.obj
 0001:0007cb50       ?parseCone@Parser@@AAEXPAVScene@@PAVTransformNode@@ABVMaterial@@@Z 0047db50 f   Parser.obj
 0001:0007d060       ?parseCylinder@Parser@@AAEXPAVScene@@PAVTransformNode@@ABVMaterial@@@Z 0047e060 f   Parser.obj
 0001:0007d2c0       ?parseDirectionalLight@Parser@@AAEPAVDirectionalLight@@PAVScene@@@Z 0047e2c0 f   Parser.obj
 0001:0007d660       ?parseFaces@Parser@@AAEXAAV?$list@V?$Vec3@N@@V?$allocator@V?$Vec3@N@@@std@@@std@@@Z 0047e660 f   Parser.obj
 0001:0007d790       ?parseGeometry@Parser@@AAEXPAVScene@@PAVTransformNode@@ABVMaterial@@@Z 0047e790 f   Parser.obj
 0001:0007d920       ?parseGroup@Parser@@AAEXPAVScene@@PAVTransformNode@@ABVMaterial@@@Z 0047e920 f   Parser.obj
 0001:0007dab0       ?parseIdent@Parser@@AAE?AV?$basic_string@DU?$char_traits@D@std@@V?$allocator@D@2@@std@@XZ 0047eab0 f   Parser.obj
 0001:0007db30       ?parseIdentExpression@Parser@@AAE?AV?$basic_string@DU?$char_traits@D@std@@V?$allocator@D@2@@std@@XZ 0047eb30 f   Parser.obj
 0001:0007dc10       ?parseMaterial@Parser@@AAEPAVMaterial@@PAVScene@@ABV2@@Z 0047ec10 f   Parser.obj
 0001:0007e4f0       ?parseMaterialExpression@Parser@@AAEPAVMaterial@@PAVScene@@ABV2@@Z 0047f4f0 f   Parser.obj
 0001:0007e550       ?parsePointLight@Parser@@AAEPAVPointLight@@PAVScene@@@Z 0047f550 f   Parser.obj
 0001:0007e910       ?parseRotate@Parser@@AAEXPAVScene@@PAVTransformNode@@ABVMaterial@@@Z 0047f910 f   Parser.obj
 0001:0007ed70       ?parseScalar@Parser@@AAENXZ 0047fd70 f   Parser.obj
 0001:0007edf0       ?parseScalarExpression@Parser@@AAENXZ 0047fdf0 f   Parser.obj
 0001:0007eec0       ?parseScalarList@Parser@@AAE?AV?$list@NV?$allocator@N@std@@@std@@XZ 0047fec0 f   Parser.obj
 0001:0007f0d0       ?parseScalarMaterialParameter@Parser@@AAE?AVMaterialParameter@@PAVScene@@@Z 004800d0 f   Parser.obj
 0001:0007f2c0       ?parseScale@Parser@@AAEXPAVScene@@PAVTransformNode@@ABVMaterial@@@Z 004802c0 f   Parser.obj
 0001:0007f600       ?parseScene@Parser@@QAEPAVScene@@XZ 00480600 f   Parser.obj
 0001:0007fb90       ?parseSphere@Parser@@AAEXPAVScene@@PAVTransformNode@@ABVMaterial@@@Z 00480b90 f   Parser.obj
 0001:0007fdf0       ?parseSquare@Parser@@AAEXPAVScene@@PAVTransformNode@@ABVMaterial@@@Z 00480df0 f   Parser.obj
 0001:00080040       ?parseTransform@Parser@@AAEXPAVScene@@PAVTransformNode@@ABVMaterial@@@Z 00481040 f   Parser.obj
 0001:00080210       ?parseTransformableElement@Parser@@AAEXPAVScene@@PAVTransformNode@@ABVMaterial@@@Z 00481210 f   Parser.obj
 0001:000805a0       ?parseTranslate@Parser@@AAEXPAVScene@@PAVTransformNode@@ABVMaterial@@@Z 004815a0 f   Parser.obj
 0001:000808a0       ?parseTrimesh@Parser@@AAEXPAVScene@@PAVTransformNode@@ABVMaterial@@@Z 004818a0 f   Parser.obj
 0001:00081180       ?parseVec3d@Parser@@AAE?AV?$Vec3@N@@XZ 00482180 f   Parser.obj
 0001:00081320       ?parseVec3dExpression@Parser@@AAE?AV?$Vec3@N@@XZ 00482320 f   Parser.obj
 0001:00081380       ?parseVec3dMaterialParameter@Parser@@AAE?AVMaterialParameter@@PAVScene@@@Z 00482380 f   Parser.obj
 0001:000815a0       ?parseVec4d@Parser@@AAE?AV?$Vec4@N@@XZ 004825a0 f   Parser.obj
 0001:000817b0       ?parseVec4dExpression@Parser@@AAE?AV?$Vec4@N@@XZ 004827b0 f   Parser.obj
 0001:00081810       ?pbackfail@?$basic_stringbuf@DU?$char_traits@D@std@@V?$allocator@D@2@@std@@MAEHH@Z 00482810 f i Parser.obj
 0001:00081870       ?seekoff@?$basic_stringbuf@DU?$char_traits@D@std@@V?$allocator@D@2@@std@@MAE?AV?$fpos@U_Mbstatet@@@2@_JHH@Z 00482870 f i Parser.obj
 0001:000819d0       ?seekpos@?$basic_stringbuf@DU?$char_traits@D@std@@V?$allocator@D@2@@std@@MAE?AV?$fpos@U_Mbstatet@@@2@V32@H@Z 004829d0 f i Parser.obj
 0001:00081ac0       ?str@?$basic_ostringstream@DU?$char_traits@D@std@@V?$allocator@D@2@@std@@QBE?AV?$basic_string@DU?$char_traits@D@std@@V?$allocator@D@2@@2@XZ 00482ac0 f i Parser.obj
 0001:00081b80       ?underflow@?$basic_stringbuf@DU?$char_traits@D@std@@V?$allocator@D@2@@std@@MAEHXZ 00482b80 f i Parser.obj
 0001:00081be0       ??0SyntaxErrorException@@QAE@ABV?$basic_string@DU?$char_traits@D@std@@V?$allocator@D@2@@std@@ABVTokenizer@@@Z 00482be0 f   ParserException.obj
 0001:00081f30       ??$_Buynode@ABUpiecewise_construct_t@std@@V?$tuple@$$QAH@2@V?$tuple@$$V@2@@?$_Tree_comp_alloc@V?$_Tmap_traits@HV?$basic_string@DU?$char_traits@D@std@@V?$allocator@D@2@@std@@U?$less@H@2@V?$allocator@U?$pair@$$CBHV?$basic_string@DU?$char_traits@D@std@@V?$allocator@D@2@@std@@@std@@@2@$0A@@std@@@std@@QAEPAU?$_Tree_node@U?$pair@$$CBHV?$basic_string@DU?$char_traits@D@std@@V?$allocator@D@2@@std@@@std@@PAX@1@ABUpiecewise_construct_t@1@$$QAV?$tuple@$$QAH@1@$$QAV?$tuple@$$V@1@@Z 00482f30 f i Token.obj
 0001:00081f60       ??$_Buynode@ABUpiecewise_construct_t@std@@V?$tuple@$$QAV?$basic_string@DU?$char_traits@D@std@@V?$allocator@D@2@@std@@@2@V?$tuple@$$V@2@@?$_Tree_comp_alloc@V?$_Tmap_traits@V?$basic_string@DU?$char_traits@D@std@@V?$allocator@D@2@@std@@W4SYMBOL@@U?$less@V?$basic_string@DU?$char_traits@D@std@@V?$allocator@D@2@@std@@@2@V?$allocator@U?$pair@$$CBV?$basic_string@DU?$char_traits@D@std@@V?$allocator@D@2@@std@@W4SYMBOL@@@std@@@2@$0A@@std@@@std@@QAEPAU?$_Tree_node@U?$pair@$$CBV?$basic_string@DU?$char_traits@D@std@@V?$allocator@D@2@@std@@W4SYMBOL@@@std@@PAX@1@ABUpiecewise_construct_t@1@$$QAV?$tuple@$$QAV?$basic_string@DU?$char_traits@D@std@@V?$allocator@D@2@@std@@@1@$$QAV?$tuple@$$V@1@@Z 00482f60 f i Token.obj
 0001:00081fb0       ??$_Insert_at@AAU?$pair@$$CBHV?$basic_string@DU?$char_traits@D@std@@V?$allocator@D@2@@std@@@std@@PAU?$_Tree_node@U?$pair@$$CBHV?$basic_string@DU?$char_traits@D@std@@V?$allocator@D@2@@std@@@std@@PAX@2@@?$_Tree@V?$_Tmap_traits@HV?$basic_string@DU?$char_traits@D@std@@V?$allocator@D@2@@std@@U?$less@H@2@V?$allocator@U?$pair@$$CBHV?$basic_string@DU?$char_traits@D@std@@V?$allocator@D@2@@std@@@std@@@2@$0A@@std@@@std@@IAE?AV?$_Tree_iterator@V?$_Tree_val@U?$_Tree_simple_types@U?$pair@$$CBHV?$basic_string@DU?$char_traits@D@std@@V?$allocator@D@2@@std@@@std@@@std@@@std@@@1@_NPAU?$_Tree_node@U?$pair@$$CBHV?$basic_string@DU?$char_traits@D@std@@V?$allocator@D@2@@std@@@std@@PAX@1@AAU?$pair@$$CBHV?$basic_string@DU?$char_traits@D@std@@V?$allocator@D@2@@std@@@1@1@Z 00482fb0 f i Token.obj
 0001:00082110       ??$_Insert_at@AAU?$pair@$$CBV?$basic_string@DU?$char_traits@D@std@@V?$allocator@D@2@@std@@W4SYMBOL@@@std@@PAU?$_Tree_node@U?$pair@$$CBV?$basic_string@DU?$char_traits@D@std@@V?$allocator@D@2@@std@@W4SYMBOL@@@std@@PAX@2@@?$_Tree@V?$_Tmap_traits@V?$basic_string@DU?$char_traits@D@std@@V?$allocator@D@2@@std@@W4SYMBOL@@U?$less@V?$basic_string@DU?$char_traits@D@std@@V?$allocator@D@2@@std@@@2@V?$allocator@U?$pair@$$CBV?$basic_string@DU?$char_traits@D@std@@V?$allocator@D@2@@std@@W4SYMBOL@@@std@@@2@$0A@@std@@@std@@IAE?AV?$_Tree_iterator@V?$_Tree_val@U?$_Tree_simple_types@U?$pair@$$CBV?$basic_string@DU?$char_traits@D@std@@V?$allocator@D@2@@std@@W4SYMBOL@@@std@@@std@@@std@@@1@_NPAU?$_Tree_node@U?$pair@$$CBV?$basic_string@DU?$char_traits@D@std@@V?$allocator@D@2@@std@@W4SYMBOL@@@std@@PAX@1@AAU?$pair@$$CBV?$basic_string@DU?$char_traits@D@std@@V?$allocator@D@2@@std@@W4SYMBOL@@@1@1@Z 00483110 f i Token.obj
 0001:00082270       ??$_Insert_hint@AAU?$pair@$$CBHV?$basic_string@DU?$char_traits@D@std@@V?$allocator@D@2@@std@@@std@@PAU?$_Tree_node@U?$pair@$$CBHV?$basic_string@DU?$char_traits@D@std@@V?$allocator@D@2@@std@@@std@@PAX@2@@?$_Tree@V?$_Tmap_traits@HV?$basic_string@DU?$char_traits@D@std@@V?$allocator@D@2@@std@@U?$less@H@2@V?$allocator@U?$pair@$$CBHV?$basic_string@DU?$char_traits@D@std@@V?$allocator@D@2@@std@@@std@@@2@$0A@@std@@@std@@IAE?AV?$_Tree_iterator@V?$_Tree_val@U?$_Tree_simple_types@U?$pair@$$CBHV?$basic_string@DU?$char_traits@D@std@@V?$allocator@D@2@@std@@@std@@@std@@@std@@@1@V?$_Tree_const_iterator@V?$_Tree_val@U?$_Tree_simple_types@U?$pair@$$CBHV?$basic_string@DU?$char_traits@D@std@@V?$allocator@D@2@@std@@@std@@@std@@@std@@@1@AAU?$pair@$$CBHV?$basic_string@DU?$char_traits@D@std@@V?$allocator@D@2@@std@@@1@PAU?$_Tree_node@U?$pair@$$CBHV?$basic_string@DU?$char_traits@D@std@@V?$allocator@D@2@@std@@@std@@PAX@1@@Z 00483270 f i Token.obj
 0001:00082490       ??$_Insert_hint@AAU?$pair@$$CBV?$basic_string@DU?$char_traits@D@std@@V?$allocator@D@2@@std@@W4SYMBOL@@@std@@PAU?$_Tree_node@U?$pair@$$CBV?$basic_string@DU?$char_traits@D@std@@V?$allocator@D@2@@std@@W4SYMBOL@@@std@@PAX@2@@?$_Tree@V?$_Tmap_traits@V?$basic_string@DU?$char_traits@D@std@@V?$allocator@D@2@@std@@W4SYMBOL@@U?$less@V?$basic_string@DU?$char_traits@D@std@@V?$allocator@D@2@@std@@@2@V?$allocator@U?$pair@$$CBV?$basic_string@DU?$char_traits@D@std@@V?$allocator@D@2@@std@@W4SYMBOL@@@std@@@2@$0A@@std@@@std@@IAE?AV?$_Tree_iterator@V?$_Tree_val@U?$_Tree_simple_types@U?$pair@$$CBV?$basic_string@DU?$char_traits@D@std@@V?$allocator@D@2@@std@@W4SYMBOL@@@std@@@std@@@std@@@1@V?$_Tree_const_iterator@V?$_Tree_val@U?$_Tree_simple_types@U?$pair@$$CBV?$basic_string@DU?$char_traits@D@std@@V?$allocator@D@2@@std@@W4SYMBOL@@@std@@@std@@@std@@@1@AAU?$pair@$$CBV?$basic_string@DU?$char_traits@D@std@@V?$allocator@D@2@@std@@W4SYMBOL@@@1@PAU?$_Tree_node@U?$pair@$$CBV?$basic_string@DU?$char_traits@D@std@@V?$allocator@D@2@@std@@W4SYMBOL@@@std@@PAX@1@@Z 00483490 f i Token.obj
 0001:000826e0       ??$_Insert_nohint@AAU?$pair@$$CBHV?$basic_string@DU?$char_traits@D@std@@V?$allocator@D@2@@std@@@std@@PAU?$_Tree_node@U?$pair@$$CBHV?$basic_string@DU?$char_traits@D@std@@V?$allocator@D@2@@std@@@std@@PAX@2@@?$_Tree@V?$_Tmap_traits@HV?$basic_string@DU?$char_traits@D@std@@V?$allocator@D@2@@std@@U?$less@H@2@V?$allocator@U?$pair@$$CBHV?$basic_string@DU?$char_traits@D@std@@V?$allocator@D@2@@std@@@std@@@2@$0A@@std@@@std@@IAE?AU?$pair@V?$_Tree_iterator@V?$_Tree_val@U?$_Tree_simple_types@U?$pair@$$CBHV?$basic_string@DU?$char_traits@D@std@@V?$allocator@D@2@@std@@@std@@@std@@@std@@@std@@_N@1@_NAAU?$pair@$$CBHV?$basic_string@DU?$char_traits@D@std@@V?$allocator@D@2@@std@@@1@PAU?$_Tree_node@U?$pair@$$CBHV?$basic_string@DU?$char_traits@D@std@@V?$allocator@D@2@@std@@@std@@PAX@1@@Z 004836e0 f i Token.obj
 0001:00082800       ??$_Insert_nohint@AAU?$pair@$$CBV?$basic_string@DU?$char_traits@D@std@@V?$allocator@D@2@@std@@W4SYMBOL@@@std@@PAU?$_Tree_node@U?$pair@$$CBV?$basic_string@DU?$char_traits@D@std@@V?$allocator@D@2@@std@@W4SYMBOL@@@std@@PAX@2@@?$_Tree@V?$_Tmap_traits@V?$basic_string@DU?$char_traits@D@std@@V?$allocator@D@2@@std@@W4SYMBOL@@U?$less@V?$basic_string@DU?$char_traits@D@std@@V?$allocator@D@2@@std@@@2@V?$allocator@U?$pair@$$CBV?$basic_string@DU?$char_traits@D@std@@V?$allocator@D@2@@std@@W4SYMBOL@@@std@@@2@$0A@@std@@@std@@IAE?AU?$pair@V?$_Tree_iterator@V?$_Tree_val@U?$_Tree_simple_types@U?$pair@$$CBV?$basic_string@DU?$char_traits@D@std@@V?$allocator@D@2@@std@@W4SYMBOL@@@std@@@std@@@std@@@std@@_N@1@_NAAU?$pair@$$CBV?$basic_string@DU?$char_traits@D@std@@V?$allocator@D@2@@std@@W4SYMBOL@@@1@PAU?$_Tree_node@U?$pair@$$CBV?$basic_string@DU?$char_traits@D@std@@V?$allocator@D@2@@std@@W4SYMBOL@@@std@@PAX@1@@Z 00483800 f i Token.obj
 0001:000829b0       ??0?$basic_ostringstream@DU?$char_traits@D@std@@V?$allocator@D@2@@std@@QAE@ABV?$basic_string@DU?$char_traits@D@std@@V?$allocator@D@2@@1@H@Z 004839b0 f i Token.obj
 0001:00082b40       ??A?$map@HV?$basic_string@DU?$char_traits@D@std@@V?$allocator@D@2@@std@@U?$less@H@2@V?$allocator@U?$pair@$$CBHV?$basic_string@DU?$char_traits@D@std@@V?$allocator@D@2@@std@@@std@@@2@@std@@QAEAAV?$basic_string@DU?$char_traits@D@std@@V?$allocator@D@2@@1@$$QAH@Z 00483b40 f i Token.obj
 0001:00082bc0       ??A?$map@V?$basic_string@DU?$char_traits@D@std@@V?$allocator@D@2@@std@@W4SYMBOL@@U?$less@V?$basic_string@DU?$char_traits@D@std@@V?$allocator@D@2@@std@@@2@V?$allocator@U?$pair@$$CBV?$basic_string@DU?$char_traits@D@std@@V?$allocator@D@2@@std@@W4SYMBOL@@@std@@@2@@std@@QAEAAW4SYMBOL@@$$QAV?$basic_string@DU?$char_traits@D@std@@V?$allocator@D@2@@1@@Z 00483bc0 f i Token.obj
 0001:00082c50       ??E?$_Tree_const_iterator@V?$_Tree_val@U?$_Tree_simple_types@U?$pair@$$CBHV?$basic_string@DU?$char_traits@D@std@@V?$allocator@D@2@@std@@@std@@@std@@@std@@@std@@QAEAAV01@XZ 00483c50 f i Token.obj
 0001:00082cb0       ??E?$_Tree_const_iterator@V?$_Tree_val@U?$_Tree_simple_types@U?$pair@$$CBV?$basic_string@DU?$char_traits@D@std@@V?$allocator@D@2@@std@@W4SYMBOL@@@std@@@std@@@std@@@std@@QAEAAV01@XZ 00483cb0 f i Token.obj
 0001:00082d10       ??F?$_Tree_const_iterator@V?$_Tree_val@U?$_Tree_simple_types@U?$pair@$$CBHV?$basic_string@DU?$char_traits@D@std@@V?$allocator@D@2@@std@@@std@@@std@@@std@@@std@@QAEAAV01@XZ 00483d10 f i Token.obj
 0001:00082da0       ??F?$_Tree_const_iterator@V?$_Tree_val@U?$_Tree_simple_types@U?$pair@$$CBV?$basic_string@DU?$char_traits@D@std@@V?$allocator@D@2@@std@@W4SYMBOL@@@std@@@std@@@std@@@std@@QAEAAV01@XZ 00483da0 f i Token.obj
 0001:00082e30       ?Print@Token@@UBEXAAV?$basic_ostream@DU?$char_traits@D@std@@@std@@@Z 00483e30 f   Token.obj
 0001:00082ee0       ?Print@Token@@UBEXXZ       00483ee0 f   Token.obj
 0001:00082ef0       ?_Buyheadnode@?$_Tree_comp_alloc@V?$_Tmap_traits@HV?$basic_string@DU?$char_traits@D@std@@V?$allocator@D@2@@std@@U?$less@H@2@V?$allocator@U?$pair@$$CBHV?$basic_string@DU?$char_traits@D@std@@V?$allocator@D@2@@std@@@std@@@2@$0A@@std@@@std@@QAEPAU?$_Tree_node@U?$pair@$$CBHV?$basic_string@DU?$char_traits@D@std@@V?$allocator@D@2@@std@@@std@@PAX@2@XZ 00483ef0 f i Token.obj
 0001:00082f10       ?_Buyheadnode@?$_Tree_comp_alloc@V?$_Tmap_traits@V?$basic_string@DU?$char_traits@D@std@@V?$allocator@D@2@@std@@W4SYMBOL@@U?$less@V?$basic_string@DU?$char_traits@D@std@@V?$allocator@D@2@@std@@@2@V?$allocator@U?$pair@$$CBV?$basic_string@DU?$char_traits@D@std@@V?$allocator@D@2@@std@@W4SYMBOL@@@std@@@2@$0A@@std@@@std@@QAEPAU?$_Tree_node@U?$pair@$$CBV?$basic_string@DU?$char_traits@D@std@@V?$allocator@D@2@@std@@W4SYMBOL@@@std@@PAX@2@XZ 00483f10 f i Token.obj
 0001:00082f30       ?_Buynode0@?$_Tree_comp_alloc@V?$_Tmap_traits@HV?$basic_string@DU?$char_traits@D@std@@V?$allocator@D@2@@std@@U?$less@H@2@V?$allocator@U?$pair@$$CBHV?$basic_string@DU?$char_traits@D@std@@V?$allocator@D@2@@std@@@std@@@2@$0A@@std@@@std@@QAEPAU?$_Tree_node@U?$pair@$$CBHV?$basic_string@DU?$char_traits@D@std@@V?$allocator@D@2@@std@@@std@@PAX@2@XZ 00483f30 f i Token.obj
 0001:00082f50       ?_Buynode0@?$_Tree_comp_alloc@V?$_Tmap_traits@V?$basic_string@DU?$char_traits@D@std@@V?$allocator@D@2@@std@@W4SYMBOL@@U?$less@V?$basic_string@DU?$char_traits@D@std@@V?$allocator@D@2@@std@@@2@V?$allocator@U?$pair@$$CBV?$basic_string@DU?$char_traits@D@std@@V?$allocator@D@2@@std@@W4SYMBOL@@@std@@@2@$0A@@std@@@std@@QAEPAU?$_Tree_node@U?$pair@$$CBV?$basic_string@DU?$char_traits@D@std@@V?$allocator@D@2@@std@@W4SYMBOL@@@std@@PAX@2@XZ 00483f50 f i Token.obj
 0001:00082f70       ?_Destroy_if_node@?$_Tree@V?$_Tmap_traits@HV?$basic_string@DU?$char_traits@D@std@@V?$allocator@D@2@@std@@U?$less@H@2@V?$allocator@U?$pair@$$CBHV?$basic_string@DU?$char_traits@D@std@@V?$allocator@D@2@@std@@@std@@@2@$0A@@std@@@std@@IAEXPAU?$_Tree_node@U?$pair@$$CBHV?$basic_string@DU?$char_traits@D@std@@V?$allocator@D@2@@std@@@std@@PAX@2@@Z 00483f70 f i Token.obj
 0001:00082fd0       ?_Destroy_if_node@?$_Tree@V?$_Tmap_traits@V?$basic_string@DU?$char_traits@D@std@@V?$allocator@D@2@@std@@W4SYMBOL@@U?$less@V?$basic_string@DU?$char_traits@D@std@@V?$allocator@D@2@@std@@@2@V?$allocator@U?$pair@$$CBV?$basic_string@DU?$char_traits@D@std@@V?$allocator@D@2@@std@@W4SYMBOL@@@std@@@2@$0A@@std@@@std@@IAEXPAU?$_Tree_node@U?$pair@$$CBV?$basic_string@DU?$char_traits@D@std@@V?$allocator@D@2@@std@@W4SYMBOL@@@std@@PAX@2@@Z 00483fd0 f i Token.obj
 0001:00083030       ?_Erase@?$_Tree@V?$_Tmap_traits@HV?$basic_string@DU?$char_traits@D@std@@V?$allocator@D@2@@std@@U?$less@H@2@V?$allocator@U?$pair@$$CBHV?$basic_string@DU?$char_traits@D@std@@V?$allocator@D@2@@std@@@std@@@2@$0A@@std@@@std@@IAEXPAU?$_Tree_node@U?$pair@$$CBHV?$basic_string@DU?$char_traits@D@std@@V?$allocator@D@2@@std@@@std@@PAX@2@@Z 00484030 f i Token.obj
 0001:000830c0       ?_Erase@?$_Tree@V?$_Tmap_traits@V?$basic_string@DU?$char_traits@D@std@@V?$allocator@D@2@@std@@W4SYMBOL@@U?$less@V?$basic_string@DU?$char_traits@D@std@@V?$allocator@D@2@@std@@@2@V?$allocator@U?$pair@$$CBV?$basic_string@DU?$char_traits@D@std@@V?$allocator@D@2@@std@@W4SYMBOL@@@std@@@2@$0A@@std@@@std@@IAEXPAU?$_Tree_node@U?$pair@$$CBV?$basic_string@DU?$char_traits@D@std@@V?$allocator@D@2@@std@@W4SYMBOL@@@std@@PAX@2@@Z 004840c0 f i Token.obj
 0001:00083150       ?_Lrotate@?$_Tree_val@U?$_Tree_simple_types@U?$pair@$$CBHV?$basic_string@DU?$char_traits@D@std@@V?$allocator@D@2@@std@@@std@@@std@@@std@@QAEXPAU?$_Tree_node@U?$pair@$$CBHV?$basic_string@DU?$char_traits@D@std@@V?$allocator@D@2@@std@@@std@@PAX@2@@Z 00484150 f i Token.obj
 0001:000831b0       ?_Lrotate@?$_Tree_val@U?$_Tree_simple_types@U?$pair@$$CBV?$basic_string@DU?$char_traits@D@std@@V?$allocator@D@2@@std@@W4SYMBOL@@@std@@@std@@@std@@QAEXPAU?$_Tree_node@U?$pair@$$CBV?$basic_string@DU?$char_traits@D@std@@V?$allocator@D@2@@std@@W4SYMBOL@@@std@@PAX@2@@Z 004841b0 f i Token.obj
 0001:00083210       ?_Rrotate@?$_Tree_val@U?$_Tree_simple_types@U?$pair@$$CBHV?$basic_string@DU?$char_traits@D@std@@V?$allocator@D@2@@std@@@std@@@std@@@std@@QAEXPAU?$_Tree_node@U?$pair@$$CBHV?$basic_string@DU?$char_traits@D@std@@V?$allocator@D@2@@std@@@std@@PAX@2@@Z 00484210 f i Token.obj
 0001:00083270       ?_Rrotate@?$_Tree_val@U?$_Tree_simple_types@U?$pair@$$CBV?$basic_string@DU?$char_traits@D@std@@V?$allocator@D@2@@std@@W4SYMBOL@@@std@@@std@@@std@@QAEXPAU?$_Tree_node@U?$pair@$$CBV?$basic_string@DU?$char_traits@D@std@@V?$allocator@D@2@@std@@W4SYMBOL@@@std@@PAX@2@@Z 00484270 f i Token.obj
 0001:000832d0       ?getNameForToken@@YA?AV?$basic_string@DU?$char_traits@D@std@@V?$allocator@D@2@@std@@W4SYMBOL@@@Z 004842d0 f   Token.obj
 0001:00083bf0       ?lookupReservedWord@@YA?AW4SYMBOL@@ABV?$basic_string@DU?$char_traits@D@std@@V?$allocator@D@2@@std@@@Z 00484bf0 f   Token.obj
 0001:00084fb0       ?lower_bound@?$_Tree@V?$_Tmap_traits@V?$basic_string@DU?$char_traits@D@std@@V?$allocator@D@2@@std@@W4SYMBOL@@U?$less@V?$basic_string@DU?$char_traits@D@std@@V?$allocator@D@2@@std@@@2@V?$allocator@U?$pair@$$CBV?$basic_string@DU?$char_traits@D@std@@V?$allocator@D@2@@std@@W4SYMBOL@@@std@@@2@$0A@@std@@@std@@QAE?AV?$_Tree_iterator@V?$_Tree_val@U?$_Tree_simple_types@U?$pair@$$CBV?$basic_string@DU?$char_traits@D@std@@V?$allocator@D@2@@std@@W4SYMBOL@@@std@@@std@@@std@@@2@ABV?$basic_string@DU?$char_traits@D@std@@V?$allocator@D@2@@2@@Z 00485fb0 f i Token.obj
 0001:00085010       ?toString@IdentToken@@UBE?AV?$basic_string@DU?$char_traits@D@std@@V?$allocator@D@2@@std@@XZ 00486010 f   Token.obj
 0001:00085160       ?toString@ScalarToken@@UBE?AV?$basic_string@DU?$char_traits@D@std@@V?$allocator@D@2@@std@@XZ 00486160 f   Token.obj
 0001:000852a0       ?toString@Token@@UBE?AV?$basic_string@DU?$char_traits@D@std@@V?$allocator@D@2@@std@@XZ 004862a0 f   Token.obj
 0001:000852c0       ??0IdentToken@@QAE@V?$basic_string@DU?$char_traits@D@std@@V?$allocator@D@2@@std@@@Z 004862c0 f i Tokenizer.obj
 0001:00085360       ??0Tokenizer@@QAE@AAV?$basic_istream@DU?$char_traits@D@std@@@std@@_N@Z 00486360 f   Tokenizer.obj
 0001:000853a0       ??1Token@@UAE@XZ           004863a0 f i Tokenizer.obj
 0001:000853b0       ??_GIdentToken@@UAEPAXI@Z  004863b0 f i Tokenizer.obj
 0001:000853b0       ??_EIdentToken@@UAEPAXI@Z  004863b0 f i Tokenizer.obj
 0001:00085420       ??_EScalarToken@@UAEPAXI@Z 00486420 f i Tokenizer.obj
 0001:00085420       ??_GScalarToken@@UAEPAXI@Z 00486420 f i Tokenizer.obj
 0001:00085450       ??_GToken@@UAEPAXI@Z       00486450 f i Tokenizer.obj
 0001:00085450       ??_EToken@@UAEPAXI@Z       00486450 f i Tokenizer.obj
 0001:00085480       ?CondRead@Tokenizer@@QAE_NW4SYMBOL@@@Z 00486480 f   Tokenizer.obj
 0001:00085530       ?CondReadCh@Tokenizer@@IAE_ND@Z 00486530 f   Tokenizer.obj
 0001:00085560       ?Get@Tokenizer@@QAE?AV?$auto_ptr@VToken@@@std@@XZ 00486560 f   Tokenizer.obj
 0001:00085580       ?GetIdent@Tokenizer@@IAEPAVToken@@XZ 00486580 f   Tokenizer.obj
 0001:000857b0       ?GetNext@Tokenizer@@IAEPAVToken@@XZ 004867b0 f   Tokenizer.obj
 0001:00085a10       ?GetPunct@Tokenizer@@IAEPAVToken@@XZ 00486a10 f   Tokenizer.obj
 0001:00085c70       ?GetQuotedIdent@Tokenizer@@IAEPAVToken@@XZ 00486c70 f   Tokenizer.obj
 0001:00085e50       ?GetScalar@Tokenizer@@IAEPAVToken@@XZ 00486e50 f   Tokenizer.obj
 0001:00085f80       ?Peek@Tokenizer@@QAEPBVToken@@XZ 00486f80 f   Tokenizer.obj
 0001:00086010       ?Read@Tokenizer@@QAE?AV?$auto_ptr@VToken@@@std@@W4SYMBOL@@@Z 00487010 f   Tokenizer.obj
 0001:00086110       ?ScanProgram@Tokenizer@@QAEXXZ 00487110 f   Tokenizer.obj
 0001:00086130       ?SearchReserved@Tokenizer@@IBEPAVToken@@ABV?$basic_string@DU?$char_traits@D@std@@V?$allocator@D@2@@std@@@Z 00487130 f   Tokenizer.obj
 0001:000861f0       ?SkipWhiteSpace@Tokenizer@@IAEXXZ 004871f0 f   Tokenizer.obj
 0001:00086400       ?UnGet@Tokenizer@@IAEXPAVToken@@@Z 00487400 f   Tokenizer.obj
 0001:00086480       ?ident@IdentToken@@UBE?AV?$basic_string@DU?$char_traits@D@std@@V?$allocator@D@2@@std@@XZ 00487480 f i Tokenizer.obj
 0001:000864a0       ?ident@Token@@UBE?AV?$basic_string@DU?$char_traits@D@std@@V?$allocator@D@2@@std@@XZ 004874a0 f i Tokenizer.obj
 0001:00086500       ?kind@Token@@QBE?AW4SYMBOL@@XZ 00487500 f i Tokenizer.obj
 0001:00086510       ?value@ScalarToken@@UBENXZ 00487510 f i Tokenizer.obj
 0001:00086520       ?value@Token@@UBENXZ       00487520 f i Tokenizer.obj
 0001:00086580       ??0TraceGLWindow@@QAE@HHHHPBD@Z 00487580 f   TraceGLWindow.obj
 0001:00086630       ??_GTraceGLWindow@@UAEPAXI@Z 00487630 f i TraceGLWindow.obj
 0001:00086630       ??_ETraceGLWindow@@UAEPAXI@Z 00487630 f i TraceGLWindow.obj
 0001:00086660       ?draw@TraceGLWindow@@UAEXXZ 00487660 f   TraceGLWindow.obj
 0001:00086740       ?handle@TraceGLWindow@@UAEHH@Z 00487740 f   TraceGLWindow.obj
 0001:00086850       ?refresh@TraceGLWindow@@QAEXXZ 00487850 f   TraceGLWindow.obj
 0001:00086860       ?resizeWindow@TraceGLWindow@@QAEXHH@Z 00487860 f   TraceGLWindow.obj
 0001:000868c0       ?saveImage@TraceGLWindow@@QAEXPBD0H@Z 004878c0 f   TraceGLWindow.obj
 0001:00086910       ?setRayTracer@TraceGLWindow@@QAEXPAVRayTracer@@@Z 00487910 f   TraceGLWindow.obj
 0001:00086920       ___WSAFDIsSet@8            00487920 f   wsock32:WSOCK32.dll
 0001:00086926       _select@20                 00487926 f   wsock32:WSOCK32.dll
 0001:0008692c       _glBegin@4                 0048792c f   opengl32:OPENGL32.dll
 0001:00086932       _glBindTexture@8           00487932 f   opengl32:OPENGL32.dll
 0001:00086938       _glBitmap@28               00487938 f   opengl32:OPENGL32.dll
 0001:0008693e       _glBlendFunc@8             0048793e f   opengl32:OPENGL32.dll
 0001:00086944       _glCallLists@12            00487944 f   opengl32:OPENGL32.dll
 0001:0008694a       _glClear@4                 0048794a f   opengl32:OPENGL32.dll
 0001:00086950       _glColor3f@12              00487950 f   opengl32:OPENGL32.dll
 0001:00086956       _glColor4f@16              00487956 f   opengl32:OPENGL32.dll
 0001:0008695c       _glDisable@4               0048795c f   opengl32:OPENGL32.dll
 0001:00086962       _glEnable@4                00487962 f   opengl32:OPENGL32.dll
 0001:00086968       _glEnd@0                   00487968 f   opengl32:OPENGL32.dll
 0001:0008696e       _glEndList@0               0048796e f   opengl32:OPENGL32.dll
 0001:00086974       _glGenLists@4              00487974 f   opengl32:OPENGL32.dll
 0001:0008697a       _glGenTextures@8           0048797a f   opengl32:OPENGL32.dll
 0001:00086980       _glGetError@0              00487980 f   opengl32:OPENGL32.dll
 0001:00086986       _glLightModelfv@8          00487986 f   opengl32:OPENGL32.dll
 0001:0008698c       _glLightModeli@8           0048798c f   opengl32:OPENGL32.dll
 0001:00086992       _glLightfv@12              00487992 f   opengl32:OPENGL32.dll
 0001:00086998       _glLineStipple@8           00487998 f   opengl32:OPENGL32.dll
 0001:0008699e       _glListBase@4              0048799e f   opengl32:OPENGL32.dll
 0001:000869a4       _glLoadIdentity@0          004879a4 f   opengl32:OPENGL32.dll
 0001:000869aa       _glMaterialfv@12           004879aa f   opengl32:OPENGL32.dll
 0001:000869b0       _glMatrixMode@4            004879b0 f   opengl32:OPENGL32.dll
 0001:000869b6       _glMultMatrixd@4           004879b6 f   opengl32:OPENGL32.dll
 0001:000869bc       _glNewList@8               004879bc f   opengl32:OPENGL32.dll
 0001:000869c2       _glPixelStorei@8           004879c2 f   opengl32:OPENGL32.dll
 0001:000869c8       _glPolygonMode@8           004879c8 f   opengl32:OPENGL32.dll
 0001:000869ce       _glPopAttrib@0             004879ce f   opengl32:OPENGL32.dll
 0001:000869d4       _glPopMatrix@0             004879d4 f   opengl32:OPENGL32.dll
 0001:000869da       _glPushAttrib@4            004879da f   opengl32:OPENGL32.dll
 0001:000869e0       _glPushMatrix@0            004879e0 f   opengl32:OPENGL32.dll
 0001:000869e6       _glRasterPos3f@12          004879e6 f   opengl32:OPENGL32.dll
 0001:000869ec       _glShadeModel@4            004879ec f   opengl32:OPENGL32.dll
 0001:000869f2       _glTexCoord2f@8            004879f2 f   opengl32:OPENGL32.dll
 0001:000869f8       _glTexParameteri@12        004879f8 f   opengl32:OPENGL32.dll
 0001:000869fe       _glTranslated@24           004879fe f   opengl32:OPENGL32.dll
 0001:00086a04       _glTranslatef@12           00487a04 f   opengl32:OPENGL32.dll
 0001:00086a0a       _glVertex3d@24             00487a0a f   opengl32:OPENGL32.dll
 0001:00086a10       _glVertex3dv@4             00487a10 f   opengl32:OPENGL32.dll
 0001:00086a16       _glViewport@16             00487a16 f   opengl32:OPENGL32.dll
 0001:00086a1c       _glCallList@4              00487a1c f   opengl32:OPENGL32.dll
 0001:00086a22       _glColor3fv@4              00487a22 f   opengl32:OPENGL32.dll
 0001:00086a28       _glGetFloatv@8             00487a28 f   opengl32:OPENGL32.dll
 0001:00086a2e       _glGetIntegerv@8           00487a2e f   opengl32:OPENGL32.dll
 0001:00086a34       _glLightf@12               00487a34 f   opengl32:OPENGL32.dll
 0001:00086a3a       _glLoadMatrixf@4           00487a3a f   opengl32:OPENGL32.dll
 0001:00086a40       _glMaterialf@12            00487a40 f   opengl32:OPENGL32.dll
 0001:00086a46       _glNormal3d@24             00487a46 f   opengl32:OPENGL32.dll
 0001:00086a4c       _glNormal3dv@4             00487a4c f   opengl32:OPENGL32.dll
 0001:00086a52       _glRotated@32              00487a52 f   opengl32:OPENGL32.dll
 0001:00086a58       _glScaled@24               00487a58 f   opengl32:OPENGL32.dll
 0001:00086a5e       _glClearColor@16           00487a5e f   opengl32:OPENGL32.dll
 0001:00086a64       _glDrawBuffer@4            00487a64 f   opengl32:OPENGL32.dll
 0001:00086a6a       _glDrawPixels@20           00487a6a f   opengl32:OPENGL32.dll
 0001:00086a70       _glFlush@0                 00487a70 f   opengl32:OPENGL32.dll
 0001:00086a76       _glRasterPos2i@8           00487a76 f   opengl32:OPENGL32.dll
 0001:00086a7c       _glReadBuffer@4            00487a7c f   opengl32:OPENGL32.dll
 0001:00086a82       _glOrtho@48                00487a82 f   opengl32:OPENGL32.dll
 0001:00086a88       _wglSwapLayerBuffers@8     00487a88 f   opengl32:OPENGL32.dll
 0001:00086a8e       _glCopyPixels@20           00487a8e f   opengl32:OPENGL32.dll
 0001:00086a94       _wglRealizeLayerPalette@12 00487a94 f   opengl32:OPENGL32.dll
 0001:00086a9a       _wglShareLists@8           00487a9a f   opengl32:OPENGL32.dll
 0001:00086aa0       _wglCreateContext@4        00487aa0 f   opengl32:OPENGL32.dll
 0001:00086aa6       _wglCreateLayerContext@8   00487aa6 f   opengl32:OPENGL32.dll
 0001:00086aac       _wglMakeCurrent@8          00487aac f   opengl32:OPENGL32.dll
 0001:00086ab2       _wglDeleteContext@4        00487ab2 f   opengl32:OPENGL32.dll
 0001:00086ab8       _wglUseFontBitmapsA@16     00487ab8 f   opengl32:OPENGL32.dll
 0001:00086abe       _glDeleteLists@8           00487abe f   opengl32:OPENGL32.dll
 0001:00086ac4       _glRasterPos2f@8           00487ac4 f   opengl32:OPENGL32.dll
 0001:00086aca       _glVertex2i@8              00487aca f   opengl32:OPENGL32.dll
 0001:00086ad0       _glColor3ub@12             00487ad0 f   opengl32:OPENGL32.dll
 0001:00086ad6       _glIndexi@4                00487ad6 f   opengl32:OPENGL32.dll
 0001:00086adc       _gluErrorString@4          00487adc f   glu32:GLU32.dll
 0001:00086ae2       _gluPerspective@32         00487ae2 f   glu32:GLU32.dll
 0001:00086ae8       _gluBuild2DMipmaps@28      00487ae8 f   glu32:GLU32.dll
 0001:00086aee       _gluNewQuadric@0           00487aee f   glu32:GLU32.dll
 0001:00086af4       _gluDeleteQuadric@4        00487af4 f   glu32:GLU32.dll
 0001:00086afa       _gluQuadricTexture@8       00487afa f   glu32:GLU32.dll
 0001:00086b00       _gluQuadricOrientation@8   00487b00 f   glu32:GLU32.dll
 0001:00086b06       _gluQuadricDrawStyle@8     00487b06 f   glu32:GLU32.dll
 0001:00086b0c       _gluCylinder@36            00487b0c f   glu32:GLU32.dll
 0001:00086b12       _gluDisk@28                00487b12 f   glu32:GLU32.dll
 0001:00086b18       _gluSphere@20              00487b18 f   glu32:GLU32.dll
 0001:00086b1e       _gluLookAt@72              00487b1e f   glu32:GLU32.dll
 0001:00086b24       _CloseHandle@4             00487b24 f   kernel32:KERNEL32.dll
 0001:00086b2a       _SetEvent@4                00487b2a f   kernel32:KERNEL32.dll
 0001:00086b30       _ReleaseMutex@4            00487b30 f   kernel32:KERNEL32.dll
 0001:00086b36       _WaitForSingleObject@8     00487b36 f   kernel32:KERNEL32.dll
 0001:00086b3c       _CreateMutexA@12           00487b3c f   kernel32:KERNEL32.dll
 0001:00086b42       _CreateEventA@16           00487b42 f   kernel32:KERNEL32.dll
 0001:00086b48       _Sleep@4                   00487b48 f   kernel32:KERNEL32.dll
 0001:00086b4e       _CreateThread@24           00487b4e f   kernel32:KERNEL32.dll
 0001:00086b54       _TerminateThread@8         00487b54 f   kernel32:KERNEL32.dll
 0001:00086b5a       _CreateProcessA@40         00487b5a f   kernel32:KERNEL32.dll
 0001:00086b60       _GetSystemTime@4           00487b60 f   kernel32:KERNEL32.dll
 0001:00086b66       _GetStartupInfoA@4         00487b66 f   kernel32:KERNEL32.dll
 0001:00086b6c       _GlobalUnlock@4            00487b6c f   kernel32:KERNEL32.dll
 0001:00086b72       _GlobalLock@4              00487b72 f   kernel32:KERNEL32.dll
 0001:00086b78       _GlobalAlloc@8             00487b78 f   kernel32:KERNEL32.dll
 0001:00086b7e       _GetModuleHandleA@4        00487b7e f   kernel32:KERNEL32.dll
 0001:00086b84       _LeaveCriticalSection@4    00487b84 f   kernel32:KERNEL32.dll
 0001:00086b8a       _EnterCriticalSection@4    00487b8a f   kernel32:KERNEL32.dll
 0001:00086b90       _InitializeCriticalSection@4 00487b90 f   kernel32:KERNEL32.dll
 0001:00086b96       _GetCurrentThreadId@0      00487b96 f   kernel32:KERNEL32.dll
 0001:00086b9c       _GetProcAddress@8          00487b9c f   kernel32:KERNEL32.dll
 0001:00086ba2       _GetVersionExA@4           00487ba2 f   kernel32:KERNEL32.dll
 0001:00086ba8       _GetLogicalDrives@0        00487ba8 f   kernel32:KERNEL32.dll
 0001:00086bae       _LoadLibraryA@4            00487bae f   kernel32:KERNEL32.dll
 0001:00086bb4       _FindClose@4               00487bb4 f   kernel32:KERNEL32.dll
 0001:00086bba       _FindNextFileA@8           00487bba f   kernel32:KERNEL32.dll
 0001:00086bc0       _GetLastError@0            00487bc0 f   kernel32:KERNEL32.dll
 0001:00086bc6       _FindFirstFileA@8          00487bc6 f   kernel32:KERNEL32.dll
 0001:00086bcc       _GetFileAttributesA@4      00487bcc f   kernel32:KERNEL32.dll
 0001:00086bd2       _GetMessageA@16            00487bd2 f   user32:USER32.dll
 0001:00086bd8       _DispatchMessageA@4        00487bd8 f   user32:USER32.dll
 0001:00086bde       _PeekMessageA@20           00487bde f   user32:USER32.dll
 0001:00086be4       _DefWindowProcA@16         00487be4 f   user32:USER32.dll
 0001:00086bea       _CreateWindowExA@48        00487bea f   user32:USER32.dll
 0001:00086bf0       _DestroyWindow@4           00487bf0 f   user32:USER32.dll
 0001:00086bf6       _ShowWindow@8              00487bf6 f   user32:USER32.dll
 0001:00086bfc       _SetWindowPos@28           00487bfc f   user32:USER32.dll
 0001:00086c02       _SetForegroundWindow@4     00487c02 f   user32:USER32.dll
 0001:00086c08       _GetDC@4                   00487c08 f   user32:USER32.dll
 0001:00086c0e       _GetWindowRect@8           00487c0e f   user32:USER32.dll
 0001:00086c14       _AdjustWindowRect@12       00487c14 f   user32:USER32.dll
 0001:00086c1a       _GetWindowLongA@8          00487c1a f   user32:USER32.dll
 0001:00086c20       _SetWindowLongA@12         00487c20 f   user32:USER32.dll
 0001:00086c26       _ChangeDisplaySettingsA@8  00487c26 f   user32:USER32.dll
 0001:00086c2c       _EnumDisplaySettingsA@12   00487c2c f   user32:USER32.dll
 0001:00086c32       _GetParent@4               00487c32 f   user32:USER32.dll
 0001:00086c38       _GetForegroundWindow@0     00487c38 f   user32:USER32.dll
 0001:00086c3e       _PostMessageA@16           00487c3e f   user32:USER32.dll
 0001:00086c44       _CloseClipboard@0          00487c44 f   user32:USER32.dll
 0001:00086c4a       _SetClipboardData@8        00487c4a f   user32:USER32.dll
 0001:00086c50       _EmptyClipboard@0          00487c50 f   user32:USER32.dll
 0001:00086c56       _OpenClipboard@4           00487c56 f   user32:USER32.dll
 0001:00086c5c       _GetClipboardOwner@0       00487c5c f   user32:USER32.dll
 0001:00086c62       _TranslateMessage@4        00487c62 f   user32:USER32.dll
 0001:00086c68       _MsgWaitForMultipleObjects@20 00487c68 f   user32:USER32.dll
 0001:00086c6e       _SystemParametersInfoA@16  00487c6e f   user32:USER32.dll
 0001:00086c74       _GetCursorPos@4            00487c74 f   user32:USER32.dll
 0001:00086c7a       _GetClipboardData@4        00487c7a f   user32:USER32.dll
 0001:00086c80       _GetSystemMetrics@4        00487c80 f   user32:USER32.dll
 0001:00086c86       _AdjustWindowRectEx@16     00487c86 f   user32:USER32.dll
 0001:00086c8c       _RegisterWindowMessageA@4  00487c8c f   user32:USER32.dll
 0001:00086c92       _RegisterClassExA@4        00487c92 f   user32:USER32.dll
 0001:00086c98       _LoadCursorA@8             00487c98 f   user32:USER32.dll
 0001:00086c9e       _LoadIconA@8               00487c9e f   user32:USER32.dll
 0001:00086ca4       _InvalidateRect@12         00487ca4 f   user32:USER32.dll
 0001:00086caa       _SetCursor@4               00487caa f   user32:USER32.dll
 0001:00086cb0       _GetKeyState@4             00487cb0 f   user32:USER32.dll
 0001:00086cb6       _GetAsyncKeyState@4        00487cb6 f   user32:USER32.dll
 0001:00086cbc       _ValidateRgn@8             00487cbc f   user32:USER32.dll
 0001:00086cc2       _GetUpdateRgn@12           00487cc2 f   user32:USER32.dll
 0001:00086cc8       _PostQuitMessage@4         00487cc8 f   user32:USER32.dll
 0001:00086cce       _ReleaseCapture@0          00487cce f   user32:USER32.dll
 0001:00086cd4       _SetCapture@4              00487cd4 f   user32:USER32.dll
 0001:00086cda       _ClientToScreen@8          00487cda f   user32:USER32.dll
 0001:00086ce0       _SetTimer@16               00487ce0 f   user32:USER32.dll
 0001:00086ce6       _KillTimer@8               00487ce6 f   user32:USER32.dll
 0001:00086cec       _SetWindowTextA@8          00487cec f   user32:USER32.dll
 0001:00086cf2       _BringWindowToTop@4        00487cf2 f   user32:USER32.dll
 0001:00086cf8       _OpenIcon@4                00487cf8 f   user32:USER32.dll
 0001:00086cfe       _IsIconic@4                00487cfe f   user32:USER32.dll
 0001:00086d04       _ReleaseDC@8               00487d04 f   user32:USER32.dll
 0001:00086d0a       _MessageBeep@4             00487d0a f   user32:USER32.dll
 0001:00086d10       _FillRect@12               00487d10 f   user32:USER32.dll
 0001:00086d16       _PostThreadMessageA@16     00487d16 f   user32:USER32.dll
 0001:00086d1c       _WindowFromPoint@8         00487d1c f   user32:USER32.dll
 0001:00086d22       _MessageBoxA@16            00487d22 f   user32:USER32.dll
 0001:00086d28       _GetSysColor@4             00487d28 f   user32:USER32.dll
 0001:00086d2e       _SetActiveWindow@4         00487d2e f   user32:USER32.dll
 0001:00086d34       _GetDCEx@12                00487d34 f   user32:USER32.dll
 0001:00086d3a       _SetDIBitsToDevice@48      00487d3a f   gdi32:GDI32.dll
 0001:00086d40       _GdiFlush@0                00487d40 f   gdi32:GDI32.dll
 0001:00086d46       _DeleteObject@4            00487d46 f   gdi32:GDI32.dll
 0001:00086d4c       _CombineRgn@16             00487d4c f   gdi32:GDI32.dll
 0001:00086d52       _CreateRectRgn@16          00487d52 f   gdi32:GDI32.dll
 0001:00086d58       _UpdateColors@4            00487d58 f   gdi32:GDI32.dll
 0001:00086d5e       _SetBkMode@8               00487d5e f   gdi32:GDI32.dll
 0001:00086d64       _SetTextAlign@8            00487d64 f   gdi32:GDI32.dll
 0001:00086d6a       _SaveDC@4                  00487d6a f   gdi32:GDI32.dll
 0001:00086d70       _RestoreDC@8               00487d70 f   gdi32:GDI32.dll
 0001:00086d76       _GetDeviceCaps@8           00487d76 f   gdi32:GDI32.dll
 0001:00086d7c       _LineTo@12                 00487d7c f   gdi32:GDI32.dll
 0001:00086d82       _MoveToEx@16               00487d82 f   gdi32:GDI32.dll
 0001:00086d88       _SetPixel@16               00487d88 f   gdi32:GDI32.dll
 0001:00086d8e       _Polygon@12                00487d8e f   gdi32:GDI32.dll
 0001:00086d94       _SelectObject@8            00487d94 f   gdi32:GDI32.dll
 0001:00086d9a       _SelectClipRgn@8           00487d9a f   gdi32:GDI32.dll
 0001:00086da0       _RectInRegion@8            00487da0 f   gdi32:GDI32.dll
 0001:00086da6       _GetRgnBox@8               00487da6 f   gdi32:GDI32.dll
 0001:00086dac       _EqualRgn@8                00487dac f   gdi32:GDI32.dll
 0001:00086db2       _CreatePen@12              00487db2 f   gdi32:GDI32.dll
 0001:00086db8       _GetStockObject@4          00487db8 f   gdi32:GDI32.dll
 0001:00086dbe       _CreateSolidBrush@4        00487dbe f   gdi32:GDI32.dll
 0001:00086dc4       _RealizePalette@4          00487dc4 f   gdi32:GDI32.dll
 0001:00086dca       _SelectPalette@12          00487dca f   gdi32:GDI32.dll
 0001:00086dd0       _CreatePalette@4           00487dd0 f   gdi32:GDI32.dll
 0001:00086dd6       _GetCharWidthA@16          00487dd6 f   gdi32:GDI32.dll
 0001:00086ddc       _GetTextMetricsA@8         00487ddc f   gdi32:GDI32.dll
 0001:00086de2       _CreateFontA@56            00487de2 f   gdi32:GDI32.dll
 0001:00086de8       _TextOutA@20               00487de8 f   gdi32:GDI32.dll
 0001:00086dee       _SetTextColor@8            00487dee f   gdi32:GDI32.dll
 0001:00086df4       _DeleteDC@4                00487df4 f   gdi32:GDI32.dll
 0001:00086dfa       _CreateCompatibleDC@4      00487dfa f   gdi32:GDI32.dll
 0001:00086e00       _CreateCompatibleBitmap@12 00487e00 f   gdi32:GDI32.dll
 0001:00086e06       _BitBlt@36                 00487e06 f   gdi32:GDI32.dll
 0001:00086e0c       _CreateBitmap@20           00487e0c f   gdi32:GDI32.dll
 0001:00086e12       _Arc@36                    00487e12 f   gdi32:GDI32.dll
 0001:00086e18       _Pie@36                    00487e18 f   gdi32:GDI32.dll
 0001:00086e1e       _Polyline@12               00487e1e f   gdi32:GDI32.dll
 0001:00086e24       _PolyPolygon@16            00487e24 f   gdi32:GDI32.dll
 0001:00086e2a       _ExtCreatePen@20           00487e2a f   gdi32:GDI32.dll
 0001:00086e30       _DescribePixelFormat@16    00487e30 f   gdi32:GDI32.dll
 0001:00086e36       _SetPixelFormat@12         00487e36 f   gdi32:GDI32.dll
 0001:00086e3c       _RegCloseKey@4             00487e3c f   advapi32:ADVAPI32.dll
 0001:00086e42       _RegQueryValueExA@24       00487e42 f   advapi32:ADVAPI32.dll
 0001:00086e48       _RegOpenKeyA@12            00487e48 f   advapi32:ADVAPI32.dll
 0001:00086e4e       _DragQueryFileA@16         00487e4e f   shell32:SHELL32.dll
 0001:00086e54       _RegisterDragDrop@8        00487e54 f   ole32:ole32.dll
 0001:00086e5a       _OleInitialize@4           00487e5a f   ole32:ole32.dll
 0001:00086e60       _OleUninitialize@0         00487e60 f   ole32:ole32.dll
 0001:00086e66       _DoDragDrop@16             00487e66 f   ole32:ole32.dll
 0001:00086e6c       _ReleaseStgMedium@4        00487e6c f   ole32:ole32.dll
 0001:00086e72       ??2@YAPAXI@Z               00487e72 f   MSVCRT:new_scalar.obj
 0001:00086ea2       ??3@YAXPAXI@Z              00487ea2 f   MSVCRT:delete_scalar_size.obj
 0001:00086eb0       @__security_check_cookie@4 00487eb0 f   MSVCRT:_secchk_.obj
 0001:00086ec1       ??_U@YAPAXI@Z              00487ec1 f   MSVCRT:new_array.obj
 0001:00086eca       ??_V@YAXPAX@Z              00487eca f   MSVCRT:delete_array.obj
 0001:00086ecf       ??1type_info@@UAE@XZ       00487ecf f   MSVCRT:std_type_info_static.obj
 0001:00086ed6       ??_Etype_info@@UAEPAXI@Z   00487ed6 f i MSVCRT:std_type_info_static.obj
 0001:00086ed6       ??_Gtype_info@@UAEPAXI@Z   00487ed6 f i MSVCRT:std_type_info_static.obj
 0001:00086ef9       ??$__crt_fast_decode_pointer@PAP6AXXZ@@YAPAP6AXXZQAP6AXXZ@Z 00487ef9 f i MSVCRT:utility.obj
 0001:00086f0d       ??$__crt_fast_encode_pointer@PAP6AXXZ@@YAPAP6AXXZQAP6AXXZ@Z 00487f0d f i MSVCRT:utility.obj
 0001:00086f2a       ?__crt_rotate_pointer_value@@YAIIH@Z 00487f2a f i MSVCRT:utility.obj
 0001:00086f37       ?configure_argv@__scrt_narrow_argv_policy@@SAHXZ 00487f37 f i MSVCRT:utility.obj
 0001:00086f88       ?initialize_environment@__scrt_narrow_environment_policy@@SAHXZ 00487f88 f i MSVCRT:utility.obj
 0001:00086fc1       _NtCurrentTeb              00487fc1 f i MSVCRT:utility.obj
 0001:00086fc8       ___scrt_acquire_startup_lock 00487fc8 f   MSVCRT:utility.obj
 0001:00086ffa       ___scrt_dllmain_after_initialize_c 00487ffa f   MSVCRT:utility.obj
 0001:00087025       ___scrt_dllmain_before_initialize_c 00488025 f   MSVCRT:utility.obj
 0001:00087033       ___scrt_dllmain_crt_thread_attach 00488033 f   MSVCRT:utility.obj
 0001:00087052       ___scrt_dllmain_crt_thread_detach 00488052 f   MSVCRT:utility.obj
 0001:0008705f       ___scrt_dllmain_exception_filter 0048805f f   MSVCRT:utility.obj
 0001:00087093       ___scrt_dllmain_uninitialize_c 00488093 f   MSVCRT:utility.obj
 0001:000870b6       ___scrt_dllmain_uninitialize_critical 004880b6 f   MSVCRT:utility.obj
 0001:000870c3       ___scrt_initialize_crt     004880c3 f   MSVCRT:utility.obj
 0001:000870fc       ___scrt_initialize_onexit_tables 004880fc f   MSVCRT:utility.obj
 0001:000871a1       ___scrt_is_nonwritable_in_current_image 004881a1 f   MSVCRT:utility.obj
 0001:00087235       ___scrt_release_startup_lock 00488235 f   MSVCRT:utility.obj
 0001:00087252       ___scrt_uninitialize_crt   00488252 f   MSVCRT:utility.obj
 0001:0008727a       __onexit                   0048827a f   MSVCRT:utility.obj
 0001:000872b5       _at_quick_exit             004882b5 f   MSVCRT:utility.obj
 0001:000872e6       _atexit                    004882e6 f   MSVCRT:utility.obj
 0001:00087322       ??$__crt_fast_decode_pointer@P6GHPAU_RTL_CONDITION_VARIABLE@@PAU_RTL_CRITICAL_SECTION@@K@Z@@YAP6GHPAU_RTL_CONDITION_VARIABLE@@PAU_RTL_CRITICAL_SECTION@@K@ZQ6GH01K@Z@Z 00488322 f i MSVCRT:thread_safe_statics.obj
 0001:00087336       ??$__crt_fast_decode_pointer@P6GXPAU_RTL_CONDITION_VARIABLE@@@Z@@YAP6GXPAU_RTL_CONDITION_VARIABLE@@@ZQ6GX0@Z@Z 00488336 f i MSVCRT:thread_safe_statics.obj
 0001:0008734a       ??$__crt_fast_encode_pointer@P6GHPAU_RTL_CONDITION_VARIABLE@@PAU_RTL_CRITICAL_SECTION@@K@Z@@YAP6GHPAU_RTL_CONDITION_VARIABLE@@PAU_RTL_CRITICAL_SECTION@@K@ZQ6GH01K@Z@Z 0048834a f i MSVCRT:thread_safe_statics.obj
 0001:00087367       ??$__crt_fast_encode_pointer@P6GXPAU_RTL_CONDITION_VARIABLE@@@Z@@YAP6GXPAU_RTL_CONDITION_VARIABLE@@@ZQ6GX0@Z@Z 00488367 f i MSVCRT:thread_safe_statics.obj
 0001:00087473       ?__scrt_is_event_api_used@@YA_NQAX@Z 00488473 f i MSVCRT:thread_safe_statics.obj
 0001:0008749b       __Init_thread_abort        0048849b f   MSVCRT:thread_safe_statics.obj
 0001:000874bf       __Init_thread_footer       004884bf f   MSVCRT:thread_safe_statics.obj
 0001:00087509       __Init_thread_header       00488509 f   MSVCRT:thread_safe_statics.obj
 0001:0008755b       __Init_thread_lock         0048855b f   MSVCRT:thread_safe_statics.obj
 0001:00087567       __Init_thread_notify       00488567 f   MSVCRT:thread_safe_statics.obj
 0001:000875a9       __Init_thread_unlock       004885a9 f   MSVCRT:thread_safe_statics.obj
 0001:000875b5       __Init_thread_wait         004885b5 f   MSVCRT:thread_safe_statics.obj
 0001:00087620       __chkstk                   00488620 f   MSVCRT:chkstk.obj
 0001:00087620       __alloca_probe             00488620 f   MSVCRT:chkstk.obj
 0001:0008764d       ??_L@YGXPAXIHP6EX0@Z1@Z    0048864d f   MSVCRT:ehvecctr.obj
 0001:00087652       ??_L@YGXPAXIIP6EX0@Z1@Z    00488652 f   MSVCRT:ehvecctr.obj
 0001:000876c6       ??_M@YGXPAXIHP6EX0@Z@Z     004886c6 f   MSVCRT:ehvecdtr.obj
 0001:000876cb       ??_M@YGXPAXIIP6EX0@Z@Z     004886cb f   MSVCRT:ehvecdtr.obj
 0001:00087769       ?__ArrayUnwind@@YGXPAXIIP6EX0@Z@Z 00488769 f   MSVCRT:ehvecdtr.obj
 0001:000877e2       ??_V@YAXPAXI@Z             004887e2 f   MSVCRT:delete_array_size.obj
 0001:000877f0       ___raise_securityfailure   004887f0 f   MSVCRT:gs_report.obj
 0001:00087818       ___report_gsfailure        00488818 f   MSVCRT:gs_report.obj
 0001:00087911       ___report_rangecheckfailure 00488911 f   MSVCRT:gs_report.obj
 0001:0008791d       ___report_securityfailure  0048891d f   MSVCRT:gs_report.obj
 0001:000879eb       ___report_securityfailureEx 004889eb f   MSVCRT:gs_report.obj
 0001:00087b00       __ftoui3                   00488b00 f   MSVCRT:_ftol3_.obj
 0001:00087b0f       __ftoul3                   00488b0f f   MSVCRT:_ftol3_.obj
 0001:00087b1e       __ftol3                    00488b1e f   MSVCRT:_ftol3_.obj
 0001:00087b2b       __ftol3_NaN                00488b2b f   MSVCRT:_ftol3_.obj
 0001:00087b43       __ftol3_work               00488b43 f   MSVCRT:_ftol3_.obj
 0001:00087bc9       __ftol3_common             00488bc9 f   MSVCRT:_ftol3_.obj
 0001:00087c8b       __ftol3_arg_error          00488c8b f   MSVCRT:_ftol3_.obj
 0001:00087c9d       __ftol3_except             00488c9d f   MSVCRT:_ftol3_.obj
 0001:00087ce1       __dtoui3                   00488ce1 f   MSVCRT:_ftol3_.obj
 0001:00087cf0       __dtoul3                   00488cf0 f   MSVCRT:_ftol3_.obj
 0001:00087cff       __dtol3                    00488cff f   MSVCRT:_ftol3_.obj
 0001:00087d0c       __dtol3_NaN                00488d0c f   MSVCRT:_ftol3_.obj
 0001:00087d29       __dtol3_work               00488d29 f   MSVCRT:_ftol3_.obj
 0001:00087e10       __ultod3                   00488e10 f   MSVCRT:_ftol3_.obj
 0001:00087e50       __ltod3                    00488e50 f   MSVCRT:_ftol3_.obj
 0001:00087e77       ___isa_available_init      00488e77 f   MSVCRT:_cpu_disp_.obj
 0001:00088283       ?set_app_type@__scrt_main_policy@@SAXXZ 00489283 f i MSVCRT:exe_main.obj
 0001:0008828c       ?set_commode@__scrt_file_policy@@SAXXZ 0048928c f i MSVCRT:exe_main.obj
 0001:0008829d       ?set_fmode@__scrt_file_policy@@SAXXZ 0048929d f i MSVCRT:exe_main.obj
 0001:000882aa       _mainCRTStartup            004892aa f   MSVCRT:exe_main.obj
 0001:000882b4       ??3@YAXPAX@Z               004892b4 f   MSVCRT:delete_scalar.obj
 0001:000882c0       __ftol2_sse                004892c0 f   MSVCRT:_ftol2_.obj
 0001:000882c9       __ftol2_pentium4           004892c9 f   MSVCRT:_ftol2_.obj
 0001:000882dc       __ftol2_sse_excpt          004892dc f   MSVCRT:_ftol2_.obj
 0001:00088300       __ftol2                    00489300 f   MSVCRT:_ftol2_.obj
 0001:00088375       ??0bad_alloc@std@@AAE@QBD@Z 00489375 f i MSVCRT:throw_bad_alloc.obj
 0001:00088392       ??0bad_alloc@std@@QAE@ABV01@@Z 00489392 f i MSVCRT:throw_bad_alloc.obj
 0001:000883ad       ??0bad_alloc@std@@QAE@XZ   004893ad f i MSVCRT:throw_bad_alloc.obj
 0001:000883c5       ??0bad_array_new_length@std@@QAE@ABV01@@Z 004893c5 f i MSVCRT:throw_bad_alloc.obj
 0001:000883e0       ??0bad_array_new_length@std@@QAE@XZ 004893e0 f i MSVCRT:throw_bad_alloc.obj
 0001:000883f8       ??0exception@std@@QAE@QBDH@Z 004893f8 f i MSVCRT:throw_bad_alloc.obj
 0001:00088415       ??1bad_alloc@std@@UAE@XZ   00489415 f i MSVCRT:throw_bad_alloc.obj
 0001:00088426       ??1bad_array_new_length@std@@UAE@XZ 00489426 f i MSVCRT:throw_bad_alloc.obj
 0001:00088437       ??_Ebad_alloc@std@@UAEPAXI@Z 00489437 f i MSVCRT:throw_bad_alloc.obj
 0001:00088437       ??_Gbad_alloc@std@@UAEPAXI@Z 00489437 f i MSVCRT:throw_bad_alloc.obj
 0001:00088464       ??_Gbad_array_new_length@std@@UAEPAXI@Z 00489464 f i MSVCRT:throw_bad_alloc.obj
 0001:00088464       ??_Ebad_array_new_length@std@@UAEPAXI@Z 00489464 f i MSVCRT:throw_bad_alloc.obj
 0001:00088491       ?__scrt_throw_std_bad_alloc@@YAXXZ 00489491 f   MSVCRT:throw_bad_alloc.obj
 0001:000884ae       ?__scrt_throw_std_bad_array_new_length@@YAXXZ 004894ae f   MSVCRT:throw_bad_alloc.obj
 0001:000884cb       __get_startup_argv_mode    004894cb f   MSVCRT:argv_mode.obj
 0001:000884cf       ___scrt_is_ucrt_dll_in_use 004894cf f   MSVCRT:ucrt_detection.obj
 0001:000884db       ___scrt_fastfail           004894db f   MSVCRT:utility_desktop.obj
 0001:000885f5       ___scrt_get_show_window_mode 004895f5 f   MSVCRT:utility_desktop.obj
 0001:00088626       ___scrt_initialize_mta     00489626 f   MSVCRT:utility_desktop.obj
 0001:0008862b       ___scrt_initialize_winrt   0048962b f   MSVCRT:utility_desktop.obj
 0001:0008862e       ___scrt_is_managed_app     0048962e f   MSVCRT:utility_desktop.obj
 0001:00088671       ___scrt_set_unhandled_exception_filter 00489671 f   MSVCRT:utility_desktop.obj
 0001:0008867d       ___scrt_exe_initialize_mta 0048967d f   MSVCRT:utility_desktop.obj
 0001:0008867d       ___scrt_stub_for_initialize_mta 0048967d f   MSVCRT:utility_desktop.obj
 0001:00088680       ___scrt_unhandled_exception_filter@4 00489680 f   MSVCRT:utility_desktop.obj
 0001:000886c1       __crt_debugger_hook        004896c1 f   MSVCRT:utility_desktop.obj
 0001:000886d0       __SEH_prolog4              004896d0 f   MSVCRT:_sehprolg4_.obj
 0001:00088716       __SEH_epilog4              00489716 f   MSVCRT:_sehprolg4_.obj
 0001:0008872b       __except_handler4          0048972b f   MSVCRT:_chandler4gs_.obj
 0001:0008874e       @_guard_check_icall_nop@4  0048974e f i MSVCRT:guard_support.obj
 0001:0008874f       _ReadNoFence               0048974f f i MSVCRT:guard_support.obj
 0001:00088759       _ReadPointerNoFence        00489759 f i MSVCRT:guard_support.obj
 0001:00088763       __guard_icall_checks_enforced 00489763 f i MSVCRT:guard_support.obj
 0001:000887c2       ___security_init_cookie    004897c2 f   MSVCRT:gs_support.obj
 0001:0008880d       __matherr                  0048980d f   MSVCRT:matherr.obj
 0001:00088810       __get_startup_commit_mode  00489810 f   MSVCRT:commit_mode.obj
 0001:00088813       __get_startup_file_mode    00489813 f   MSVCRT:file_mode.obj
 0001:00088819       __get_startup_new_mode     00489819 f   MSVCRT:new_mode.obj
 0001:0008881c       __get_startup_thread_locale_mode 0048981c f   MSVCRT:thread_locale.obj
 0001:0008881f       ?__scrt_initialize_type_info@@YAXXZ 0048981f f   MSVCRT:tncleanup.obj
 0001:0008882b       ?__scrt_uninitialize_type_info@@YAXXZ 0048982b f   MSVCRT:tncleanup.obj
 0001:00088837       __should_initialize_environment 00489837 f   MSVCRT:env_mode.obj
 0001:0008883a       __initialize_default_precision 0048983a f   MSVCRT:default_precision.obj
 0001:0008885b       __initialize_invalid_parameter_handler 0048985b f   MSVCRT:invalid_parameter_handler.obj
 0001:0008885c       __initialize_denormal_control 0048985c f   MSVCRT:denormal_control.obj
 0001:0008885d       ___scrt_initialize_default_local_stdio_options 0048985d f   MSVCRT:default_local_stdio_options.obj
 0001:0008887a       ___scrt_is_user_matherr_present 0048987a f   MSVCRT:matherr_detection.obj
 0001:00088886       ___scrt_get_dyn_tls_init_callback 00489886 f   MSVCRT:dyn_tls_init.obj
 0001:0008888c       ___scrt_get_dyn_tls_dtor_callback 0048988c f   MSVCRT:dyn_tls_dtor.obj
 0001:00088892       __RTC_Initialize           00489892 f   MSVCRT:_initsect_.obj
 0001:000888be       __RTC_Terminate            004898be f   MSVCRT:_initsect_.obj
 0001:000888ea       ??0_Lockit@std@@QAE@H@Z    004898ea f   msvcprt:MSVCP140.dll
 0001:000888f0       ??1_Lockit@std@@QAE@XZ     004898f0 f   msvcprt:MSVCP140.dll
 0001:000888f6       ?_Xlength_error@std@@YAXPBD@Z 004898f6 f   msvcprt:MSVCP140.dll
 0001:000888fc       ?_Xout_of_range@std@@YAXPBD@Z 004898fc f   msvcprt:MSVCP140.dll
 0001:00088902       ??0_Fac_node@std@@QAE@PAU01@PAV_Facet_base@1@@Z 00489902 f i msvcprt:locale0_implib.obj
 0001:00088916       ??1_Fac_node@std@@QAE@XZ   00489916 f i msvcprt:locale0_implib.obj
 0001:00088975       ??1_Fac_tidy_reg_t@std@@QAE@XZ 00489975 f i msvcprt:locale0_implib.obj
 0001:0008899c       ??_G_Fac_node@std@@QAEPAXI@Z 0048999c f i msvcprt:locale0_implib.obj
 0001:000889be       ?_Facet_Register@std@@YAXPAV_Facet_base@1@@Z 004899be f   msvcprt:locale0_implib.obj
 0001:000889ea       ??Bid@locale@std@@QAEIXZ   004899ea f   msvcprt:MSVCP140.dll
 0001:000889f0       ?_Getgloballocale@locale@std@@CAPAV_Locimp@12@XZ 004899f0 f   msvcprt:MSVCP140.dll
 0001:000889f6       ?always_noconv@codecvt_base@std@@QBE_NXZ 004899f6 f   msvcprt:MSVCP140.dll
 0001:000889fc       ?in@?$codecvt@DDU_Mbstatet@@@std@@QBEHAAU_Mbstatet@@PBD1AAPBDPAD3AAPAD@Z 004899fc f   msvcprt:MSVCP140.dll
 0001:00088a02       ?out@?$codecvt@DDU_Mbstatet@@@std@@QBEHAAU_Mbstatet@@PBD1AAPBDPAD3AAPAD@Z 00489a02 f   msvcprt:MSVCP140.dll
 0001:00088a08       ?unshift@?$codecvt@DDU_Mbstatet@@@std@@QBEHAAU_Mbstatet@@PAD1AAPAD@Z 00489a08 f   msvcprt:MSVCP140.dll
 0001:00088a0e       ?_Getcat@?$codecvt@DDU_Mbstatet@@@std@@SAIPAPBVfacet@locale@2@PBV42@@Z 00489a0e f   msvcprt:MSVCP140.dll
 0001:00088a14       ??0?$basic_streambuf@DU?$char_traits@D@std@@@std@@IAE@XZ 00489a14 f   msvcprt:MSVCP140.dll
 0001:00088a1a       ??1?$basic_streambuf@DU?$char_traits@D@std@@@std@@UAE@XZ 00489a1a f   msvcprt:MSVCP140.dll
 0001:00088a20       ?getloc@?$basic_streambuf@DU?$char_traits@D@std@@@std@@QBE?AVlocale@2@XZ 00489a20 f   msvcprt:MSVCP140.dll
 0001:00088a26       ?_Pninc@?$basic_streambuf@DU?$char_traits@D@std@@@std@@IAEPADXZ 00489a26 f   msvcprt:MSVCP140.dll
 0001:00088a2c       ?_Init@?$basic_streambuf@DU?$char_traits@D@std@@@std@@IAEXXZ 00489a2c f   msvcprt:MSVCP140.dll
 0001:00088a32       ?xsgetn@?$basic_streambuf@DU?$char_traits@D@std@@@std@@MAE_JPAD_J@Z 00489a32 f   msvcprt:MSVCP140.dll
 0001:00088a38       ?xsputn@?$basic_streambuf@DU?$char_traits@D@std@@@std@@MAE_JPBD_J@Z 00489a38 f   msvcprt:MSVCP140.dll
 0001:00088a3e       ??1?$basic_ios@DU?$char_traits@D@std@@@std@@UAE@XZ 00489a3e f   msvcprt:MSVCP140.dll
 0001:00088a44       ?setstate@?$basic_ios@DU?$char_traits@D@std@@@std@@QAEXH_N@Z 00489a44 f   msvcprt:MSVCP140.dll
 0001:00088a4a       ??0?$basic_ios@DU?$char_traits@D@std@@@std@@IAE@XZ 00489a4a f   msvcprt:MSVCP140.dll
 0001:00088a50       ??0?$basic_istream@DU?$char_traits@D@std@@@std@@QAE@PAV?$basic_streambuf@DU?$char_traits@D@std@@@1@_N@Z 00489a50 f   msvcprt:MSVCP140.dll
 0001:00088a56       ??1?$basic_istream@DU?$char_traits@D@std@@@std@@UAE@XZ 00489a56 f   msvcprt:MSVCP140.dll
 0001:00088a5c       ?_Fiopen@std@@YAPAU_iobuf@@PBDHH@Z 00489a5c f   msvcprt:MSVCP140.dll
 0001:00088a62       ?showmanyc@?$basic_streambuf@DU?$char_traits@D@std@@@std@@MAE_JXZ 00489a62 f   msvcprt:MSVCP140.dll
 0001:00088a68       ?uncaught_exception@std@@YA_NXZ 00489a68 f   msvcprt:MSVCP140.dll
 0001:00088a6e       ?sputc@?$basic_streambuf@DU?$char_traits@D@std@@@std@@QAEHD@Z 00489a6e f   msvcprt:MSVCP140.dll
 0001:00088a74       ?sputn@?$basic_streambuf@DU?$char_traits@D@std@@@std@@QAE_JPBD_J@Z 00489a74 f   msvcprt:MSVCP140.dll
 0001:00088a7a       ?widen@?$basic_ios@DU?$char_traits@D@std@@@std@@QBEDD@Z 00489a7a f   msvcprt:MSVCP140.dll
 0001:00088a80       ?_Osfx@?$basic_ostream@DU?$char_traits@D@std@@@std@@QAEXXZ 00489a80 f   msvcprt:MSVCP140.dll
 0001:00088a86       ??6?$basic_ostream@DU?$char_traits@D@std@@@std@@QAEAAV01@P6AAAV01@AAV01@@Z@Z 00489a86 f   msvcprt:MSVCP140.dll
 0001:00088a8c       ??6?$basic_ostream@DU?$char_traits@D@std@@@std@@QAEAAV01@H@Z 00489a8c f   msvcprt:MSVCP140.dll
 0001:00088a92       ??6?$basic_ostream@DU?$char_traits@D@std@@@std@@QAEAAV01@N@Z 00489a92 f   msvcprt:MSVCP140.dll
 0001:00088a98       ?put@?$basic_ostream@DU?$char_traits@D@std@@@std@@QAEAAV12@D@Z 00489a98 f   msvcprt:MSVCP140.dll
 0001:00088a9e       ?flush@?$basic_ostream@DU?$char_traits@D@std@@@std@@QAEAAV12@XZ 00489a9e f   msvcprt:MSVCP140.dll
 0001:00088aa4       ?sbumpc@?$basic_streambuf@DU?$char_traits@D@std@@@std@@QAEHXZ 00489aa4 f   msvcprt:MSVCP140.dll
 0001:00088aaa       ?sgetc@?$basic_streambuf@DU?$char_traits@D@std@@@std@@QAEHXZ 00489aaa f   msvcprt:MSVCP140.dll
 0001:00088ab0       ?snextc@?$basic_streambuf@DU?$char_traits@D@std@@@std@@QAEHXZ 00489ab0 f   msvcprt:MSVCP140.dll
 0001:00088ab6       ?_Ipfx@?$basic_istream@DU?$char_traits@D@std@@@std@@QAE_N_N@Z 00489ab6 f   msvcprt:MSVCP140.dll
 0001:00088abc       ??0?$basic_ostream@DU?$char_traits@D@std@@@std@@QAE@PAV?$basic_streambuf@DU?$char_traits@D@std@@@1@_N@Z 00489abc f   msvcprt:MSVCP140.dll
 0001:00088ac2       ??1?$basic_ostream@DU?$char_traits@D@std@@@std@@UAE@XZ 00489ac2 f   msvcprt:MSVCP140.dll
 0001:00088ac8       ?_Lock@?$basic_streambuf@DU?$char_traits@D@std@@@std@@UAEXXZ 00489ac8 f   msvcprt:MSVCP140.dll
 0001:00088ace       ?_Unlock@?$basic_streambuf@DU?$char_traits@D@std@@@std@@UAEXXZ 00489ace f   msvcprt:MSVCP140.dll
 0001:00088ad4       ?imbue@?$basic_streambuf@DU?$char_traits@D@std@@@std@@MAEXABVlocale@2@@Z 00489ad4 f   msvcprt:MSVCP140.dll
 0001:00088ada       ?setbuf@?$basic_streambuf@DU?$char_traits@D@std@@@std@@MAEPAV12@PAD_J@Z 00489ada f   msvcprt:MSVCP140.dll
 0001:00088ae0       ?sync@?$basic_streambuf@DU?$char_traits@D@std@@@std@@MAEHXZ 00489ae0 f   msvcprt:MSVCP140.dll
 0001:00088ae6       ?uflow@?$basic_streambuf@DU?$char_traits@D@std@@@std@@MAEHXZ 00489ae6 f   msvcprt:MSVCP140.dll
 0001:00088aec       ?_Xbad_alloc@std@@YAXXZ    00489aec f   msvcprt:MSVCP140.dll
 0001:00088af2       _strchr                    00489af2 f   vcruntime:VCRUNTIME140.dll
 0001:00088af8       ___CxxFrameHandler3        00489af8 f   vcruntime:VCRUNTIME140.dll
 0001:00088afe       ___std_terminate           00489afe f   vcruntime:VCRUNTIME140.dll
 0001:00088b04       ___std_exception_copy      00489b04 f   vcruntime:VCRUNTIME140.dll
 0001:00088b0a       ___std_exception_destroy   00489b0a f   vcruntime:VCRUNTIME140.dll
 0001:00088b10       __CxxThrowException@8      00489b10 f   vcruntime:VCRUNTIME140.dll
 0001:00088b16       _memchr                    00489b16 f   vcruntime:VCRUNTIME140.dll
 0001:00088b1c       _memcpy                    00489b1c f   vcruntime:VCRUNTIME140.dll
 0001:00088b22       _memmove                   00489b22 f   vcruntime:VCRUNTIME140.dll
 0001:00088b28       _memset                    00489b28 f   vcruntime:VCRUNTIME140.dll
 0001:00088b2e       __purecall                 00489b2e f   vcruntime:VCRUNTIME140.dll
 0001:00088b34       _strrchr                   00489b34 f   vcruntime:VCRUNTIME140.dll
 0001:00088b3a       _strstr                    00489b3a f   vcruntime:VCRUNTIME140.dll
 0001:00088b40       _memcmp                    00489b40 f   vcruntime:VCRUNTIME140.dll
 0001:00088b46       __except_handler4_common   00489b46 f   vcruntime:VCRUNTIME140.dll
 0001:00088b4c       ___std_type_info_destroy_list 00489b4c f   vcruntime:VCRUNTIME140.dll
 0001:00088b52       _ispunct                   00489b52 f   ucrt:api-ms-win-crt-string-l1-1-0.dll
 0001:00088b58       _isalnum                   00489b58 f   ucrt:api-ms-win-crt-string-l1-1-0.dll
 0001:00088b5e       __invalid_parameter_noinfo_noreturn 00489b5e f   ucrt:api-ms-win-crt-runtime-l1-1-0.dll
 0001:00088b64       __get_stream_buffer_pointers 00489b64 f   ucrt:api-ms-win-crt-stdio-l1-1-0.dll
 0001:00088b6a       _fclose                    00489b6a f   ucrt:api-ms-win-crt-stdio-l1-1-0.dll
 0001:00088b70       _fflush                    00489b70 f   ucrt:api-ms-win-crt-stdio-l1-1-0.dll
 0001:00088b76       _fgetc                     00489b76 f   ucrt:api-ms-win-crt-stdio-l1-1-0.dll
 0001:00088b7c       _fgetpos                   00489b7c f   ucrt:api-ms-win-crt-stdio-l1-1-0.dll
 0001:00088b82       _fputc                     00489b82 f   ucrt:api-ms-win-crt-stdio-l1-1-0.dll
 0001:00088b88       _fread                     00489b88 f   ucrt:api-ms-win-crt-stdio-l1-1-0.dll
 0001:00088b8e       _fsetpos                   00489b8e f   ucrt:api-ms-win-crt-stdio-l1-1-0.dll
 0001:00088b94       __fseeki64                 00489b94 f   ucrt:api-ms-win-crt-stdio-l1-1-0.dll
 0001:00088b9a       _fwrite                    00489b9a f   ucrt:api-ms-win-crt-stdio-l1-1-0.dll
 0001:00088ba0       _setvbuf                   00489ba0 f   ucrt:api-ms-win-crt-stdio-l1-1-0.dll
 0001:00088ba6       _ungetc                    00489ba6 f   ucrt:api-ms-win-crt-stdio-l1-1-0.dll
 0001:00088bac       __lock_file                00489bac f   ucrt:api-ms-win-crt-filesystem-l1-1-0.dll
 0001:00088bb2       __unlock_file              00489bb2 f   ucrt:api-ms-win-crt-filesystem-l1-1-0.dll
 0001:00088bb8       __libm_sse2_sqrt_precise   00489bb8 f   ucrt:api-ms-win-crt-math-l1-1-0.dll
 0001:00088bbe       _exit                      00489bbe f   ucrt:api-ms-win-crt-runtime-l1-1-0.dll
 0001:00088bc4       _atoi                      00489bc4 f   ucrt:api-ms-win-crt-convert-l1-1-0.dll
 0001:00088bca       _clock                     00489bca f   ucrt:api-ms-win-crt-time-l1-1-0.dll
 0001:00088bd0       ___acrt_iob_func           00489bd0 f   ucrt:api-ms-win-crt-stdio-l1-1-0.dll
 0001:00088bd6       ___stdio_common_vfprintf   00489bd6 f   ucrt:api-ms-win-crt-stdio-l1-1-0.dll
 0001:00088bdc       __libm_sse2_cos_precise    00489bdc f   ucrt:api-ms-win-crt-math-l1-1-0.dll
 0001:00088be2       __libm_sse2_sin_precise    00489be2 f   ucrt:api-ms-win-crt-math-l1-1-0.dll
 0001:00088be8       ___stdio_common_vsprintf   00489be8 f   ucrt:api-ms-win-crt-stdio-l1-1-0.dll
 0001:00088bee       __splitpath                00489bee f   ucrt:api-ms-win-crt-filesystem-l1-1-0.dll
 0001:00088bf4       __CIfmod                   00489bf4 f   ucrt:api-ms-win-crt-math-l1-1-0.dll
 0001:00088bfa       _fopen                     00489bfa f   ucrt:api-ms-win-crt-stdio-l1-1-0.dll
 0001:00088c00       _fseek                     00489c00 f   ucrt:api-ms-win-crt-stdio-l1-1-0.dll
 0001:00088c06       _remove                    00489c06 f   ucrt:api-ms-win-crt-filesystem-l1-1-0.dll
 0001:00088c0c       ___stdio_common_vfscanf    00489c0c f   ucrt:api-ms-win-crt-stdio-l1-1-0.dll
 0001:00088c12       ___stdio_common_vsscanf    00489c12 f   ucrt:api-ms-win-crt-stdio-l1-1-0.dll
 0001:00088c18       _srand                     00489c18 f   ucrt:api-ms-win-crt-utility-l1-1-0.dll
 0001:00088c1e       _rand                      00489c1e f   ucrt:api-ms-win-crt-utility-l1-1-0.dll
 0001:00088c24       _strncpy                   00489c24 f   ucrt:api-ms-win-crt-string-l1-1-0.dll
 0001:00088c2a       __time64                   00489c2a f   ucrt:api-ms-win-crt-time-l1-1-0.dll
 0001:00088c30       __libm_sse2_tan_precise    00489c30 f   ucrt:api-ms-win-crt-math-l1-1-0.dll
 0001:00088c36       __libm_sse2_pow_precise    00489c36 f   ucrt:api-ms-win-crt-math-l1-1-0.dll
 0001:00088c3c       _atof                      00489c3c f   ucrt:api-ms-win-crt-convert-l1-1-0.dll
 0001:00088c42       _isalpha                   00489c42 f   ucrt:api-ms-win-crt-string-l1-1-0.dll
 0001:00088c48       _isdigit                   00489c48 f   ucrt:api-ms-win-crt-string-l1-1-0.dll
 0001:00088c4e       _isspace                   00489c4e f   ucrt:api-ms-win-crt-string-l1-1-0.dll
 0001:00088c54       _toupper                   00489c54 f   ucrt:api-ms-win-crt-string-l1-1-0.dll
 0001:00088c5a       _tolower                   00489c5a f   ucrt:api-ms-win-crt-string-l1-1-0.dll
 0001:00088c60       _isupper                   00489c60 f   ucrt:api-ms-win-crt-string-l1-1-0.dll
 0001:00088c66       _realloc                   00489c66 f   ucrt:api-ms-win-crt-heap-l1-1-0.dll
 0001:00088c6c       _strcmp                    00489c6c f   ucrt:api-ms-win-crt-string-l1-1-0.dll
 0001:00088c72       _malloc                    00489c72 f   ucrt:api-ms-win-crt-heap-l1-1-0.dll
 0001:00088c78       _abs                       00489c78 f   ucrt:api-ms-win-crt-utility-l1-1-0.dll
 0001:00088c7e       __strdup                   00489c7e f   ucrt:api-ms-win-crt-string-l1-1-0.dll
 0001:00088c84       _free                      00489c84 f   ucrt:api-ms-win-crt-heap-l1-1-0.dll
 0001:00088c8a       _strcat                    00489c8a f   ucrt:api-ms-win-crt-string-l1-1-0.dll
 0001:00088c90       _strlen                    00489c90 f   ucrt:api-ms-win-crt-string-l1-1-0.dll
 0001:00088c96       _strcpy                    00489c96 f   ucrt:api-ms-win-crt-string-l1-1-0.dll
 0001:00088c9c       _fabs                      00489c9c f   ucrt:api-ms-win-crt-math-l1-1-0.dll
 0001:00088ca2       _floor                     00489ca2 f   ucrt:api-ms-win-crt-math-l1-1-0.dll
 0001:00088ca8       _isxdigit                  00489ca8 f   ucrt:api-ms-win-crt-string-l1-1-0.dll
 0001:00088cae       _strncmp                   00489cae f   ucrt:api-ms-win-crt-string-l1-1-0.dll
 0001:00088cb4       _localeconv                00489cb4 f   ucrt:api-ms-win-crt-locale-l1-1-0.dll
 0001:00088cba       _getenv                    00489cba f   ucrt:api-ms-win-crt-environment-l1-1-0.dll
 0001:00088cc0       __strnicmp                 00489cc0 f   ucrt:api-ms-win-crt-string-l1-1-0.dll
 0001:00088cc6       __stricmp                  00489cc6 f   ucrt:api-ms-win-crt-string-l1-1-0.dll
 0001:00088ccc       __access                   00489ccc f   ucrt:api-ms-win-crt-filesystem-l1-1-0.dll
 0001:00088cd2       _strerror                  00489cd2 f   ucrt:api-ms-win-crt-runtime-l1-1-0.dll
 0001:00088cd8       __errno                    00489cd8 f   ucrt:api-ms-win-crt-runtime-l1-1-0.dll
 0001:00088cde       __mkdir                    00489cde f   ucrt:api-ms-win-crt-filesystem-l1-1-0.dll
 0001:00088ce4       _isprint                   00489ce4 f   ucrt:api-ms-win-crt-string-l1-1-0.dll
 0001:00088cea       _pow                       00489cea f   ucrt:api-ms-win-crt-math-l1-1-0.dll
 0001:00088cf0       _log                       00489cf0 f   ucrt:api-ms-win-crt-math-l1-1-0.dll
 0001:00088cf6       __putenv                   00489cf6 f   ucrt:api-ms-win-crt-environment-l1-1-0.dll
 0001:00088cfc       _ceil                      00489cfc f   ucrt:api-ms-win-crt-math-l1-1-0.dll
 0001:00088d02       _strtol                    00489d02 f   ucrt:api-ms-win-crt-convert-l1-1-0.dll
 0001:00088d08       _strcspn                   00489d08 f   ucrt:api-ms-win-crt-string-l1-1-0.dll
 0001:00088d0e       _fgets                     00489d0e f   ucrt:api-ms-win-crt-stdio-l1-1-0.dll
 0001:00088d14       __getcwd                   00489d14 f   ucrt:api-ms-win-crt-stdio-l1-1-0.dll
 0001:00088d1a       _calloc                    00489d1a f   ucrt:api-ms-win-crt-heap-l1-1-0.dll
 0001:00088d20       __stat64i32                00489d20 f   ucrt:api-ms-win-crt-filesystem-l1-1-0.dll
 0001:00088d26       _qsort                     00489d26 f   ucrt:api-ms-win-crt-utility-l1-1-0.dll
 0001:00088d2c       _bsearch                   00489d2c f   ucrt:api-ms-win-crt-utility-l1-1-0.dll
 0001:00088d32       _ferror                    00489d32 f   ucrt:api-ms-win-crt-stdio-l1-1-0.dll
 0001:00088d38       _sin                       00489d38 f   ucrt:api-ms-win-crt-math-l1-1-0.dll
 0001:00088d3e       _cos                       00489d3e f   ucrt:api-ms-win-crt-math-l1-1-0.dll
 0001:00088d44       _sqrt                      00489d44 f   ucrt:api-ms-win-crt-math-l1-1-0.dll
 0001:00088d4a       _islower                   00489d4a f   ucrt:api-ms-win-crt-string-l1-1-0.dll
 0001:00088d50       __callnewh                 00489d50 f   ucrt:api-ms-win-crt-heap-l1-1-0.dll
 0001:00088d56       __seh_filter_dll           00489d56 f   ucrt:api-ms-win-crt-runtime-l1-1-0.dll
 0001:00088d5c       __configure_narrow_argv    00489d5c f   ucrt:api-ms-win-crt-runtime-l1-1-0.dll
 0001:00088d62       __initialize_narrow_environment 00489d62 f   ucrt:api-ms-win-crt-runtime-l1-1-0.dll
 0001:00088d68       __initialize_onexit_table  00489d68 f   ucrt:api-ms-win-crt-runtime-l1-1-0.dll
 0001:00088d6e       __register_onexit_function 00489d6e f   ucrt:api-ms-win-crt-runtime-l1-1-0.dll
 0001:00088d74       __execute_onexit_table     00489d74 f   ucrt:api-ms-win-crt-runtime-l1-1-0.dll
 0001:00088d7a       __crt_atexit               00489d7a f   ucrt:api-ms-win-crt-runtime-l1-1-0.dll
 0001:00088d80       __crt_at_quick_exit        00489d80 f   ucrt:api-ms-win-crt-runtime-l1-1-0.dll
 0001:00088d86       __cexit                    00489d86 f   ucrt:api-ms-win-crt-runtime-l1-1-0.dll
 0001:00088d8c       _terminate                 00489d8c f   ucrt:api-ms-win-crt-runtime-l1-1-0.dll
 0001:00088d92       __except1                  00489d92 f   ucrt:api-ms-win-crt-math-l1-1-0.dll
 0001:00088d98       __seh_filter_exe           00489d98 f   ucrt:api-ms-win-crt-runtime-l1-1-0.dll
 0001:00088d9e       __set_app_type             00489d9e f   ucrt:api-ms-win-crt-runtime-l1-1-0.dll
 0001:00088da4       ___setusermatherr          00489da4 f   ucrt:api-ms-win-crt-math-l1-1-0.dll
 0001:00088daa       __get_initial_narrow_environment 00489daa f   ucrt:api-ms-win-crt-runtime-l1-1-0.dll
 0001:00088db0       __initterm                 00489db0 f   ucrt:api-ms-win-crt-runtime-l1-1-0.dll
 0001:00088db6       __initterm_e               00489db6 f   ucrt:api-ms-win-crt-runtime-l1-1-0.dll
 0001:00088dbc       __exit                     00489dbc f   ucrt:api-ms-win-crt-runtime-l1-1-0.dll
 0001:00088dc2       __set_fmode                00489dc2 f   ucrt:api-ms-win-crt-stdio-l1-1-0.dll
 0001:00088dc8       ___p___argc                00489dc8 f   ucrt:api-ms-win-crt-runtime-l1-1-0.dll
 0001:00088dce       ___p___argv                00489dce f   ucrt:api-ms-win-crt-runtime-l1-1-0.dll
 0001:00088dd4       __c_exit                   00489dd4 f   ucrt:api-ms-win-crt-runtime-l1-1-0.dll
 0001:00088dda       __register_thread_local_exe_atexit_callback 00489dda f   ucrt:api-ms-win-crt-runtime-l1-1-0.dll
 0001:00088de0       __configthreadlocale       00489de0 f   ucrt:api-ms-win-crt-locale-l1-1-0.dll
 0001:00088de6       __set_new_mode             00489de6 f   ucrt:api-ms-win-crt-heap-l1-1-0.dll
 0001:00088dec       ___p__commode              00489dec f   ucrt:api-ms-win-crt-stdio-l1-1-0.dll
 0001:00088df2       __controlfp_s              00489df2 f   ucrt:api-ms-win-crt-runtime-l1-1-0.dll
 0001:00088df8       __TrackMouseEvent@4        00489df8 f   comctl32:COMCTL32.dll
 0001:00088dfe       _InitializeCriticalSectionAndSpinCount@8 00489dfe f   kernel32:KERNEL32.dll
 0001:00088e04       _DeleteCriticalSection@4   00489e04 f   kernel32:KERNEL32.dll
 0001:00088e0a       _ResetEvent@4              00489e0a f   kernel32:KERNEL32.dll
 0001:00088e10       _WaitForSingleObjectEx@12  00489e10 f   kernel32:KERNEL32.dll
 0001:00088e16       _CreateEventW@16           00489e16 f   kernel32:KERNEL32.dll
 0001:00088e1c       _GetModuleHandleW@4        00489e1c f   kernel32:KERNEL32.dll
 0001:00088e22       _UnhandledExceptionFilter@4 00489e22 f   kernel32:KERNEL32.dll
 0001:00088e28       _SetUnhandledExceptionFilter@4 00489e28 f   kernel32:KERNEL32.dll
 0001:00088e2e       _GetCurrentProcess@0       00489e2e f   kernel32:KERNEL32.dll
 0001:00088e34       _TerminateProcess@8        00489e34 f   kernel32:KERNEL32.dll
 0001:00088e3a       _IsProcessorFeaturePresent@4 00489e3a f   kernel32:KERNEL32.dll
 0001:00088e40       _IsDebuggerPresent@0       00489e40 f   kernel32:KERNEL32.dll
 0001:00088e46       _GetStartupInfoW@4         00489e46 f   kernel32:KERNEL32.dll
 0001:00088e4c       _QueryPerformanceCounter@4 00489e4c f   kernel32:KERNEL32.dll
 0001:00088e52       _GetCurrentProcessId@0     00489e52 f   kernel32:KERNEL32.dll
 0001:00088e58       _GetSystemTimeAsFileTime@4 00489e58 f   kernel32:KERNEL32.dll
 0001:00088e5e       _InitializeSListHead@4     00489e5e f   kernel32:KERNEL32.dll
 0001:00088e64       ___vcrt_initialize         00489e64 f   MSVCRT:ucrt_stubs.obj
 0001:00088e64       ___acrt_initialize         00489e64 f   MSVCRT:ucrt_stubs.obj
 0001:00088e64       ___scrt_stub_for_acrt_initialize 00489e64 f   MSVCRT:ucrt_stubs.obj
 0001:00088e67       ___vcrt_thread_attach      00489e67 f   MSVCRT:ucrt_stubs.obj
 0001:00088e67       ___scrt_stub_for_acrt_thread_attach 00489e67 f   MSVCRT:ucrt_stubs.obj
 0001:00088e67       ___acrt_thread_attach      00489e67 f   MSVCRT:ucrt_stubs.obj
 0001:00088e6a       ___acrt_thread_detach      00489e6a f   MSVCRT:ucrt_stubs.obj
 0001:00088e6a       ___scrt_stub_for_acrt_thread_detach 00489e6a f   MSVCRT:ucrt_stubs.obj
 0001:00088e6a       ___vcrt_thread_detach      00489e6a f   MSVCRT:ucrt_stubs.obj
 0001:00088e6d       ___scrt_stub_for_acrt_uninitialize 00489e6d f   MSVCRT:ucrt_stubs.obj
 0001:00088e6d       ___vcrt_uninitialize       00489e6d f   MSVCRT:ucrt_stubs.obj
 0001:00088e6d       ___acrt_uninitialize       00489e6d f   MSVCRT:ucrt_stubs.obj
 0001:00088e70       ___scrt_stub_for_acrt_uninitialize_critical 00489e70 f   MSVCRT:ucrt_stubs.obj
 0001:00088e70       ___acrt_uninitialize_critical 00489e70 f   MSVCRT:ucrt_stubs.obj
 0001:00088e70       ___vcrt_uninitialize_critical 00489e70 f   MSVCRT:ucrt_stubs.obj
 0001:00088e73       ___scrt_stub_for_is_c_termination_complete 00489e73 f   MSVCRT:ucrt_stubs.obj
 0001:00088e73       __is_c_termination_complete 00489e73 f   MSVCRT:ucrt_stubs.obj
 0001:0008c760       ??__Ffont10x13@?M@??get_font@?$CImgl@E@cimg_library@@SA?AU12@I_N@Z@YAXXZ 0048d760 f i imageio.obj
 0001:0008c7d0       ??__Ffont10x19@?BK@??get_font@?$CImgl@E@cimg_library@@SA?AU12@I_N@Z@YAXXZ 0048d7d0 f i imageio.obj
 0001:0008c840       ??__Ffont12x24@?CB@??get_font@?$CImgl@E@cimg_library@@SA?AU12@I_N@Z@YAXXZ 0048d840 f i imageio.obj
 0001:0008c8b0       ??__Ffont16x32@?CI@??get_font@?$CImgl@E@cimg_library@@SA?AU12@I_N@Z@YAXXZ 0048d8b0 f i imageio.obj
 0001:0008c920       ??__Ffont19x38@?CP@??get_font@?$CImgl@E@cimg_library@@SA?AU12@I_N@Z@YAXXZ 0048d920 f i imageio.obj
 0001:0008c990       ??__Ffont29x57@?1??get_font@?$CImgl@E@cimg_library@@SA?AU12@I_N@Z@YAXXZ 0048d990 f i imageio.obj
 0001:0008ca00       ??__Ffont7x11@?4??get_font@?$CImgl@E@cimg_library@@SA?AU12@I_N@Z@YAXXZ 0048da00 f i imageio.obj
 0001:0008ca70       ??__Ffont8x17@?BD@??get_font@?$CImgl@E@cimg_library@@SA?AU12@I_N@Z@YAXXZ 0048da70 f i imageio.obj
 0001:0008cae0       ??__Fnfont10x13@?M@??get_font@?$CImgl@E@cimg_library@@SA?AU12@I_N@Z@YAXXZ 0048dae0 f i imageio.obj
 0001:0008cb50       ??__Fnfont10x19@?BK@??get_font@?$CImgl@E@cimg_library@@SA?AU12@I_N@Z@YAXXZ 0048db50 f i imageio.obj
 0001:0008cbc0       ??__Fnfont12x24@?CB@??get_font@?$CImgl@E@cimg_library@@SA?AU12@I_N@Z@YAXXZ 0048dbc0 f i imageio.obj
 0001:0008cc30       ??__Fnfont16x32@?CI@??get_font@?$CImgl@E@cimg_library@@SA?AU12@I_N@Z@YAXXZ 0048dc30 f i imageio.obj
 0001:0008cca0       ??__Fnfont19x38@?CP@??get_font@?$CImgl@E@cimg_library@@SA?AU12@I_N@Z@YAXXZ 0048dca0 f i imageio.obj
 0001:0008cd10       ??__Fnfont29x57@?1??get_font@?$CImgl@E@cimg_library@@SA?AU12@I_N@Z@YAXXZ 0048dd10 f i imageio.obj
 0001:0008cd80       ??__Fnfont7x11@?4??get_font@?$CImgl@E@cimg_library@@SA?AU12@I_N@Z@YAXXZ 0048dd80 f i imageio.obj
 0001:0008cdf0       ??__Fnfont8x17@?BD@??get_font@?$CImgl@E@cimg_library@@SA?AU12@I_N@Z@YAXXZ 0048ddf0 f i imageio.obj
 0001:0008ce60       ??__Fres@?1??get_logo40x38@?$CImg@E@cimg_library@@SA?AU12@XZ@YAXXZ 0048de60 f i imageio.obj
 0002:00000000       __imp__RegCloseKey@4       0048f000     advapi32:ADVAPI32.dll
 0002:00000004       __imp__RegOpenKeyA@12      0048f004     advapi32:ADVAPI32.dll
 0002:00000008       __imp__RegQueryValueExA@24 0048f008     advapi32:ADVAPI32.dll
 0002:0000000c       \177ADVAPI32_NULL_THUNK_DATA 0048f00c     advapi32:ADVAPI32.dll
 0002:00000010       __imp___TrackMouseEvent@4  0048f010     comctl32:COMCTL32.dll
 0002:00000014       \177COMCTL32_NULL_THUNK_DATA 0048f014     comctl32:COMCTL32.dll
 0002:00000018       __imp__UpdateColors@4      0048f018     gdi32:GDI32.dll
 0002:0000001c       __imp__SetBkMode@8         0048f01c     gdi32:GDI32.dll
 0002:00000020       __imp__SetTextAlign@8      0048f020     gdi32:GDI32.dll
 0002:00000024       __imp__SaveDC@4            0048f024     gdi32:GDI32.dll
 0002:00000028       __imp__RestoreDC@8         0048f028     gdi32:GDI32.dll
 0002:0000002c       __imp__CombineRgn@16       0048f02c     gdi32:GDI32.dll
 0002:00000030       __imp__LineTo@12           0048f030     gdi32:GDI32.dll
 0002:00000034       __imp__MoveToEx@16         0048f034     gdi32:GDI32.dll
 0002:00000038       __imp__SetPixel@16         0048f038     gdi32:GDI32.dll
 0002:0000003c       __imp__Polygon@12          0048f03c     gdi32:GDI32.dll
 0002:00000040       __imp__SelectObject@8      0048f040     gdi32:GDI32.dll
 0002:00000044       __imp__CreateRectRgn@16    0048f044     gdi32:GDI32.dll
 0002:00000048       __imp__GdiFlush@0          0048f048     gdi32:GDI32.dll
 0002:0000004c       __imp__DeleteObject@4      0048f04c     gdi32:GDI32.dll
 0002:00000050       __imp__SetDIBitsToDevice@48 0048f050     gdi32:GDI32.dll
 0002:00000054       __imp__GetDeviceCaps@8     0048f054     gdi32:GDI32.dll
 0002:00000058       __imp__SelectClipRgn@8     0048f058     gdi32:GDI32.dll
 0002:0000005c       __imp__RectInRegion@8      0048f05c     gdi32:GDI32.dll
 0002:00000060       __imp__SetPixelFormat@12   0048f060     gdi32:GDI32.dll
 0002:00000064       __imp__DescribePixelFormat@16 0048f064     gdi32:GDI32.dll
 0002:00000068       __imp__ExtCreatePen@20     0048f068     gdi32:GDI32.dll
 0002:0000006c       __imp__PolyPolygon@16      0048f06c     gdi32:GDI32.dll
 0002:00000070       __imp__Polyline@12         0048f070     gdi32:GDI32.dll
 0002:00000074       __imp__Pie@36              0048f074     gdi32:GDI32.dll
 0002:00000078       __imp__Arc@36              0048f078     gdi32:GDI32.dll
 0002:0000007c       __imp__CreateBitmap@20     0048f07c     gdi32:GDI32.dll
 0002:00000080       __imp__BitBlt@36           0048f080     gdi32:GDI32.dll
 0002:00000084       __imp__CreateCompatibleBitmap@12 0048f084     gdi32:GDI32.dll
 0002:00000088       __imp__CreateCompatibleDC@4 0048f088     gdi32:GDI32.dll
 0002:0000008c       __imp__DeleteDC@4          0048f08c     gdi32:GDI32.dll
 0002:00000090       __imp__SetTextColor@8      0048f090     gdi32:GDI32.dll
 0002:00000094       __imp__TextOutA@20         0048f094     gdi32:GDI32.dll
 0002:00000098       __imp__CreateFontA@56      0048f098     gdi32:GDI32.dll
 0002:0000009c       __imp__GetTextMetricsA@8   0048f09c     gdi32:GDI32.dll
 0002:000000a0       __imp__GetCharWidthA@16    0048f0a0     gdi32:GDI32.dll
 0002:000000a4       __imp__CreatePalette@4     0048f0a4     gdi32:GDI32.dll
 0002:000000a8       __imp__SelectPalette@12    0048f0a8     gdi32:GDI32.dll
 0002:000000ac       __imp__RealizePalette@4    0048f0ac     gdi32:GDI32.dll
 0002:000000b0       __imp__CreateSolidBrush@4  0048f0b0     gdi32:GDI32.dll
 0002:000000b4       __imp__GetStockObject@4    0048f0b4     gdi32:GDI32.dll
 0002:000000b8       __imp__CreatePen@12        0048f0b8     gdi32:GDI32.dll
 0002:000000bc       __imp__EqualRgn@8          0048f0bc     gdi32:GDI32.dll
 0002:000000c0       __imp__GetRgnBox@8         0048f0c0     gdi32:GDI32.dll
 0002:000000c4       \177GDI32_NULL_THUNK_DATA  0048f0c4     gdi32:GDI32.dll
 0002:000000c8       __imp__gluLookAt@72        0048f0c8     glu32:GLU32.dll
 0002:000000cc       __imp__gluSphere@20        0048f0cc     glu32:GLU32.dll
 0002:000000d0       __imp__gluDisk@28          0048f0d0     glu32:GLU32.dll
 0002:000000d4       __imp__gluCylinder@36      0048f0d4     glu32:GLU32.dll
 0002:000000d8       __imp__gluQuadricDrawStyle@8 0048f0d8     glu32:GLU32.dll
 0002:000000dc       __imp__gluQuadricOrientation@8 0048f0dc     glu32:GLU32.dll
 0002:000000e0       __imp__gluQuadricTexture@8 0048f0e0     glu32:GLU32.dll
 0002:000000e4       __imp__gluDeleteQuadric@4  0048f0e4     glu32:GLU32.dll
 0002:000000e8       __imp__gluNewQuadric@0     0048f0e8     glu32:GLU32.dll
 0002:000000ec       __imp__gluBuild2DMipmaps@28 0048f0ec     glu32:GLU32.dll
 0002:000000f0       __imp__gluPerspective@32   0048f0f0     glu32:GLU32.dll
 0002:000000f4       __imp__gluErrorString@4    0048f0f4     glu32:GLU32.dll
 0002:000000f8       \177GLU32_NULL_THUNK_DATA  0048f0f8     glu32:GLU32.dll
 0002:000000fc       __imp__GetStartupInfoW@4   0048f0fc     kernel32:KERNEL32.dll
 0002:00000100       __imp__QueryPerformanceCounter@4 0048f100     kernel32:KERNEL32.dll
 0002:00000104       __imp__GetCurrentProcessId@0 0048f104     kernel32:KERNEL32.dll
 0002:00000108       __imp__GetSystemTimeAsFileTime@4 0048f108     kernel32:KERNEL32.dll
 0002:0000010c       __imp__GetFileAttributesA@4 0048f10c     kernel32:KERNEL32.dll
 0002:00000110       __imp__FindFirstFileA@8    0048f110     kernel32:KERNEL32.dll
 0002:00000114       __imp__IsDebuggerPresent@0 0048f114     kernel32:KERNEL32.dll
 0002:00000118       __imp__FindNextFileA@8     0048f118     kernel32:KERNEL32.dll
 0002:0000011c       __imp__FindClose@4         0048f11c     kernel32:KERNEL32.dll
 0002:00000120       __imp__LoadLibraryA@4      0048f120     kernel32:KERNEL32.dll
 0002:00000124       __imp__GetLogicalDrives@0  0048f124     kernel32:KERNEL32.dll
 0002:00000128       __imp__GetVersionExA@4     0048f128     kernel32:KERNEL32.dll
 0002:0000012c       __imp__GetProcAddress@8    0048f12c     kernel32:KERNEL32.dll
 0002:00000130       __imp__IsProcessorFeaturePresent@4 0048f130     kernel32:KERNEL32.dll
 0002:00000134       __imp__TerminateProcess@8  0048f134     kernel32:KERNEL32.dll
 0002:00000138       __imp__GetCurrentProcess@0 0048f138     kernel32:KERNEL32.dll
 0002:0000013c       __imp__SetUnhandledExceptionFilter@4 0048f13c     kernel32:KERNEL32.dll
 0002:00000140       __imp__UnhandledExceptionFilter@4 0048f140     kernel32:KERNEL32.dll
 0002:00000144       __imp__GetModuleHandleW@4  0048f144     kernel32:KERNEL32.dll
 0002:00000148       __imp__CreateEventW@16     0048f148     kernel32:KERNEL32.dll
 0002:0000014c       __imp__WaitForSingleObjectEx@12 0048f14c     kernel32:KERNEL32.dll
 0002:00000150       __imp__ResetEvent@4        0048f150     kernel32:KERNEL32.dll
 0002:00000154       __imp__DeleteCriticalSection@4 0048f154     kernel32:KERNEL32.dll
 0002:00000158       __imp__InitializeCriticalSectionAndSpinCount@8 0048f158     kernel32:KERNEL32.dll
 0002:0000015c       __imp__InitializeSListHead@4 0048f15c     kernel32:KERNEL32.dll
 0002:00000160       __imp__GetLastError@0      0048f160     kernel32:KERNEL32.dll
 0002:00000164       __imp__CloseHandle@4       0048f164     kernel32:KERNEL32.dll
 0002:00000168       __imp__SetEvent@4          0048f168     kernel32:KERNEL32.dll
 0002:0000016c       __imp__ReleaseMutex@4      0048f16c     kernel32:KERNEL32.dll
 0002:00000170       __imp__WaitForSingleObject@8 0048f170     kernel32:KERNEL32.dll
 0002:00000174       __imp__CreateMutexA@12     0048f174     kernel32:KERNEL32.dll
 0002:00000178       __imp__CreateEventA@16     0048f178     kernel32:KERNEL32.dll
 0002:0000017c       __imp__Sleep@4             0048f17c     kernel32:KERNEL32.dll
 0002:00000180       __imp__CreateThread@24     0048f180     kernel32:KERNEL32.dll
 0002:00000184       __imp__TerminateThread@8   0048f184     kernel32:KERNEL32.dll
 0002:00000188       __imp__CreateProcessA@40   0048f188     kernel32:KERNEL32.dll
 0002:0000018c       __imp__GetSystemTime@4     0048f18c     kernel32:KERNEL32.dll
 0002:00000190       __imp__GetStartupInfoA@4   0048f190     kernel32:KERNEL32.dll
 0002:00000194       __imp__GlobalUnlock@4      0048f194     kernel32:KERNEL32.dll
 0002:00000198       __imp__GlobalLock@4        0048f198     kernel32:KERNEL32.dll
 0002:0000019c       __imp__GlobalAlloc@8       0048f19c     kernel32:KERNEL32.dll
 0002:000001a0       __imp__GetModuleHandleA@4  0048f1a0     kernel32:KERNEL32.dll
 0002:000001a4       __imp__LeaveCriticalSection@4 0048f1a4     kernel32:KERNEL32.dll
 0002:000001a8       __imp__EnterCriticalSection@4 0048f1a8     kernel32:KERNEL32.dll
 0002:000001ac       __imp__InitializeCriticalSection@4 0048f1ac     kernel32:KERNEL32.dll
 0002:000001b0       __imp__GetCurrentThreadId@0 0048f1b0     kernel32:KERNEL32.dll
 0002:000001b4       \177KERNEL32_NULL_THUNK_DATA 0048f1b4     kernel32:KERNEL32.dll
 0002:000001b8       __imp_??1_Lockit@std@@QAE@XZ 0048f1b8     msvcprt:MSVCP140.dll
 0002:000001bc       __imp_?_Xlength_error@std@@YAXPBD@Z 0048f1bc     msvcprt:MSVCP140.dll
 0002:000001c0       __imp_?_Xout_of_range@std@@YAXPBD@Z 0048f1c0     msvcprt:MSVCP140.dll
 0002:000001c4       __imp_??Bid@locale@std@@QAEIXZ 0048f1c4     msvcprt:MSVCP140.dll
 0002:000001c8       __imp_?_Getgloballocale@locale@std@@CAPAV_Locimp@12@XZ 0048f1c8     msvcprt:MSVCP140.dll
 0002:000001cc       __imp_?always_noconv@codecvt_base@std@@QBE_NXZ 0048f1cc     msvcprt:MSVCP140.dll
 0002:000001d0       __imp_?in@?$codecvt@DDU_Mbstatet@@@std@@QBEHAAU_Mbstatet@@PBD1AAPBDPAD3AAPAD@Z 0048f1d0     msvcprt:MSVCP140.dll
 0002:000001d4       __imp_?out@?$codecvt@DDU_Mbstatet@@@std@@QBEHAAU_Mbstatet@@PBD1AAPBDPAD3AAPAD@Z 0048f1d4     msvcprt:MSVCP140.dll
 0002:000001d8       __imp_??0?$basic_ostream@DU?$char_traits@D@std@@@std@@QAE@PAV?$basic_streambuf@DU?$char_traits@D@std@@@1@_N@Z 0048f1d8     msvcprt:MSVCP140.dll
 0002:000001dc       __imp_?unshift@?$codecvt@DDU_Mbstatet@@@std@@QBEHAAU_Mbstatet@@PAD1AAPAD@Z 0048f1dc     msvcprt:MSVCP140.dll
 0002:000001e0       __imp_?_Getcat@?$codecvt@DDU_Mbstatet@@@std@@SAIPAPBVfacet@locale@2@PBV42@@Z 0048f1e0     msvcprt:MSVCP140.dll
 0002:000001e4       __imp_??0?$basic_streambuf@DU?$char_traits@D@std@@@std@@IAE@XZ 0048f1e4     msvcprt:MSVCP140.dll
 0002:000001e8       __imp_??1?$basic_streambuf@DU?$char_traits@D@std@@@std@@UAE@XZ 0048f1e8     msvcprt:MSVCP140.dll
 0002:000001ec       __imp_?getloc@?$basic_streambuf@DU?$char_traits@D@std@@@std@@QBE?AVlocale@2@XZ 0048f1ec     msvcprt:MSVCP140.dll
 0002:000001f0       __imp_?_Pninc@?$basic_streambuf@DU?$char_traits@D@std@@@std@@IAEPADXZ 0048f1f0     msvcprt:MSVCP140.dll
 0002:000001f4       __imp_?_Init@?$basic_streambuf@DU?$char_traits@D@std@@@std@@IAEXXZ 0048f1f4     msvcprt:MSVCP140.dll
 0002:000001f8       __imp_?xsgetn@?$basic_streambuf@DU?$char_traits@D@std@@@std@@MAE_JPAD_J@Z 0048f1f8     msvcprt:MSVCP140.dll
 0002:000001fc       __imp_?xsputn@?$basic_streambuf@DU?$char_traits@D@std@@@std@@MAE_JPBD_J@Z 0048f1fc     msvcprt:MSVCP140.dll
 0002:00000200       __imp_??1?$basic_ios@DU?$char_traits@D@std@@@std@@UAE@XZ 0048f200     msvcprt:MSVCP140.dll
 0002:00000204       __imp_?setstate@?$basic_ios@DU?$char_traits@D@std@@@std@@QAEXH_N@Z 0048f204     msvcprt:MSVCP140.dll
 0002:00000208       __imp_??0?$basic_ios@DU?$char_traits@D@std@@@std@@IAE@XZ 0048f208     msvcprt:MSVCP140.dll
 0002:0000020c       __imp_??0?$basic_istream@DU?$char_traits@D@std@@@std@@QAE@PAV?$basic_streambuf@DU?$char_traits@D@std@@@1@_N@Z 0048f20c     msvcprt:MSVCP140.dll
 0002:00000210       __imp_??1?$basic_istream@DU?$char_traits@D@std@@@std@@UAE@XZ 0048f210     msvcprt:MSVCP140.dll
 0002:00000214       __imp_?_Fiopen@std@@YAPAU_iobuf@@PBDHH@Z 0048f214     msvcprt:MSVCP140.dll
 0002:00000218       __imp_?showmanyc@?$basic_streambuf@DU?$char_traits@D@std@@@std@@MAE_JXZ 0048f218     msvcprt:MSVCP140.dll
 0002:0000021c       __imp_?id@?$codecvt@DDU_Mbstatet@@@std@@2V0locale@2@A 0048f21c     msvcprt:MSVCP140.dll
 0002:00000220       __imp_?_Xbad_alloc@std@@YAXXZ 0048f220     msvcprt:MSVCP140.dll
 0002:00000224       __imp_?uflow@?$basic_streambuf@DU?$char_traits@D@std@@@std@@MAEHXZ 0048f224     msvcprt:MSVCP140.dll
 0002:00000228       __imp_?sync@?$basic_streambuf@DU?$char_traits@D@std@@@std@@MAEHXZ 0048f228     msvcprt:MSVCP140.dll
 0002:0000022c       __imp_?setbuf@?$basic_streambuf@DU?$char_traits@D@std@@@std@@MAEPAV12@PAD_J@Z 0048f22c     msvcprt:MSVCP140.dll
 0002:00000230       __imp_?imbue@?$basic_streambuf@DU?$char_traits@D@std@@@std@@MAEXABVlocale@2@@Z 0048f230     msvcprt:MSVCP140.dll
 0002:00000234       __imp_?_Unlock@?$basic_streambuf@DU?$char_traits@D@std@@@std@@UAEXXZ 0048f234     msvcprt:MSVCP140.dll
 0002:00000238       __imp_?_Lock@?$basic_streambuf@DU?$char_traits@D@std@@@std@@UAEXXZ 0048f238     msvcprt:MSVCP140.dll
 0002:0000023c       __imp_??1?$basic_ostream@DU?$char_traits@D@std@@@std@@UAE@XZ 0048f23c     msvcprt:MSVCP140.dll
 0002:00000240       __imp_?uncaught_exception@std@@YA_NXZ 0048f240     msvcprt:MSVCP140.dll
 0002:00000244       __imp_?_Ipfx@?$basic_istream@DU?$char_traits@D@std@@@std@@QAE_N_N@Z 0048f244     msvcprt:MSVCP140.dll
 0002:00000248       __imp_?snextc@?$basic_streambuf@DU?$char_traits@D@std@@@std@@QAEHXZ 0048f248     msvcprt:MSVCP140.dll
 0002:0000024c       __imp_?sgetc@?$basic_streambuf@DU?$char_traits@D@std@@@std@@QAEHXZ 0048f24c     msvcprt:MSVCP140.dll
 0002:00000250       __imp_?sbumpc@?$basic_streambuf@DU?$char_traits@D@std@@@std@@QAEHXZ 0048f250     msvcprt:MSVCP140.dll
 0002:00000254       __imp_?cerr@std@@3V?$basic_ostream@DU?$char_traits@D@std@@@1@A 0048f254     msvcprt:MSVCP140.dll
 0002:00000258       __imp_?cout@std@@3V?$basic_ostream@DU?$char_traits@D@std@@@1@A 0048f258     msvcprt:MSVCP140.dll
 0002:0000025c       __imp_?flush@?$basic_ostream@DU?$char_traits@D@std@@@std@@QAEAAV12@XZ 0048f25c     msvcprt:MSVCP140.dll
 0002:00000260       __imp_?put@?$basic_ostream@DU?$char_traits@D@std@@@std@@QAEAAV12@D@Z 0048f260     msvcprt:MSVCP140.dll
 0002:00000264       __imp_??6?$basic_ostream@DU?$char_traits@D@std@@@std@@QAEAAV01@N@Z 0048f264     msvcprt:MSVCP140.dll
 0002:00000268       __imp_??6?$basic_ostream@DU?$char_traits@D@std@@@std@@QAEAAV01@H@Z 0048f268     msvcprt:MSVCP140.dll
 0002:0000026c       __imp_??6?$basic_ostream@DU?$char_traits@D@std@@@std@@QAEAAV01@P6AAAV01@AAV01@@Z@Z 0048f26c     msvcprt:MSVCP140.dll
 0002:00000270       __imp_?_Osfx@?$basic_ostream@DU?$char_traits@D@std@@@std@@QAEXXZ 0048f270     msvcprt:MSVCP140.dll
 0002:00000274       __imp_?widen@?$basic_ios@DU?$char_traits@D@std@@@std@@QBEDD@Z 0048f274     msvcprt:MSVCP140.dll
 0002:00000278       __imp_?sputn@?$basic_streambuf@DU?$char_traits@D@std@@@std@@QAE_JPBD_J@Z 0048f278     msvcprt:MSVCP140.dll
 0002:0000027c       __imp_?sputc@?$basic_streambuf@DU?$char_traits@D@std@@@std@@QAEHD@Z 0048f27c     msvcprt:MSVCP140.dll
 0002:00000280       __imp_??0_Lockit@std@@QAE@H@Z 0048f280     msvcprt:MSVCP140.dll
 0002:00000284       \177MSVCP140_NULL_THUNK_DATA 0048f284     msvcprt:MSVCP140.dll
 0002:00000288       __imp__glLightModelfv@8    0048f288     opengl32:OPENGL32.dll
 0002:0000028c       __imp__glGetError@0        0048f28c     opengl32:OPENGL32.dll
 0002:00000290       __imp__glGenTextures@8     0048f290     opengl32:OPENGL32.dll
 0002:00000294       __imp__glGenLists@4        0048f294     opengl32:OPENGL32.dll
 0002:00000298       __imp__glEndList@0         0048f298     opengl32:OPENGL32.dll
 0002:0000029c       __imp__glEnd@0             0048f29c     opengl32:OPENGL32.dll
 0002:000002a0       __imp__glEnable@4          0048f2a0     opengl32:OPENGL32.dll
 0002:000002a4       __imp__glDisable@4         0048f2a4     opengl32:OPENGL32.dll
 0002:000002a8       __imp__glColor4f@16        0048f2a8     opengl32:OPENGL32.dll
 0002:000002ac       __imp__glColor3f@12        0048f2ac     opengl32:OPENGL32.dll
 0002:000002b0       __imp__glClear@4           0048f2b0     opengl32:OPENGL32.dll
 0002:000002b4       __imp__glCallLists@12      0048f2b4     opengl32:OPENGL32.dll
 0002:000002b8       __imp__glBlendFunc@8       0048f2b8     opengl32:OPENGL32.dll
 0002:000002bc       __imp__glBitmap@28         0048f2bc     opengl32:OPENGL32.dll
 0002:000002c0       __imp__glBindTexture@8     0048f2c0     opengl32:OPENGL32.dll
 0002:000002c4       __imp__glBegin@4           0048f2c4     opengl32:OPENGL32.dll
 0002:000002c8       __imp__wglMakeCurrent@8    0048f2c8     opengl32:OPENGL32.dll
 0002:000002cc       __imp__wglDeleteContext@4  0048f2cc     opengl32:OPENGL32.dll
 0002:000002d0       __imp__wglCreateLayerContext@8 0048f2d0     opengl32:OPENGL32.dll
 0002:000002d4       __imp__wglCreateContext@4  0048f2d4     opengl32:OPENGL32.dll
 0002:000002d8       __imp__wglShareLists@8     0048f2d8     opengl32:OPENGL32.dll
 0002:000002dc       __imp__wglRealizeLayerPalette@12 0048f2dc     opengl32:OPENGL32.dll
 0002:000002e0       __imp__glCopyPixels@20     0048f2e0     opengl32:OPENGL32.dll
 0002:000002e4       __imp__wglSwapLayerBuffers@8 0048f2e4     opengl32:OPENGL32.dll
 0002:000002e8       __imp__glOrtho@48          0048f2e8     opengl32:OPENGL32.dll
 0002:000002ec       __imp__glReadBuffer@4      0048f2ec     opengl32:OPENGL32.dll
 0002:000002f0       __imp__glRasterPos2i@8     0048f2f0     opengl32:OPENGL32.dll
 0002:000002f4       __imp__glFlush@0           0048f2f4     opengl32:OPENGL32.dll
 0002:000002f8       __imp__glDrawPixels@20     0048f2f8     opengl32:OPENGL32.dll
 0002:000002fc       __imp__glDrawBuffer@4      0048f2fc     opengl32:OPENGL32.dll
 0002:00000300       __imp__glClearColor@16     0048f300     opengl32:OPENGL32.dll
 0002:00000304       __imp__glScaled@24         0048f304     opengl32:OPENGL32.dll
 0002:00000308       __imp__glRotated@32        0048f308     opengl32:OPENGL32.dll
 0002:0000030c       __imp__glNormal3dv@4       0048f30c     opengl32:OPENGL32.dll
 0002:00000310       __imp__glNormal3d@24       0048f310     opengl32:OPENGL32.dll
 0002:00000314       __imp__glMaterialf@12      0048f314     opengl32:OPENGL32.dll
 0002:00000318       __imp__glLoadMatrixf@4     0048f318     opengl32:OPENGL32.dll
 0002:0000031c       __imp__glLightf@12         0048f31c     opengl32:OPENGL32.dll
 0002:00000320       __imp__glGetIntegerv@8     0048f320     opengl32:OPENGL32.dll
 0002:00000324       __imp__glGetFloatv@8       0048f324     opengl32:OPENGL32.dll
 0002:00000328       __imp__glColor3fv@4        0048f328     opengl32:OPENGL32.dll
 0002:0000032c       __imp__glCallList@4        0048f32c     opengl32:OPENGL32.dll
 0002:00000330       __imp__glViewport@16       0048f330     opengl32:OPENGL32.dll
 0002:00000334       __imp__glVertex3dv@4       0048f334     opengl32:OPENGL32.dll
 0002:00000338       __imp__glVertex3d@24       0048f338     opengl32:OPENGL32.dll
 0002:0000033c       __imp__glTranslatef@12     0048f33c     opengl32:OPENGL32.dll
 0002:00000340       __imp__glTranslated@24     0048f340     opengl32:OPENGL32.dll
 0002:00000344       __imp__glTexParameteri@12  0048f344     opengl32:OPENGL32.dll
 0002:00000348       __imp__glTexCoord2f@8      0048f348     opengl32:OPENGL32.dll
 0002:0000034c       __imp__glShadeModel@4      0048f34c     opengl32:OPENGL32.dll
 0002:00000350       __imp__glRasterPos3f@12    0048f350     opengl32:OPENGL32.dll
 0002:00000354       __imp__glPushMatrix@0      0048f354     opengl32:OPENGL32.dll
 0002:00000358       __imp__glPushAttrib@4      0048f358     opengl32:OPENGL32.dll
 0002:0000035c       __imp__glPopMatrix@0       0048f35c     opengl32:OPENGL32.dll
 0002:00000360       __imp__glPopAttrib@0       0048f360     opengl32:OPENGL32.dll
 0002:00000364       __imp__glPolygonMode@8     0048f364     opengl32:OPENGL32.dll
 0002:00000368       __imp__glPixelStorei@8     0048f368     opengl32:OPENGL32.dll
 0002:0000036c       __imp__glNewList@8         0048f36c     opengl32:OPENGL32.dll
 0002:00000370       __imp__glMultMatrixd@4     0048f370     opengl32:OPENGL32.dll
 0002:00000374       __imp__glMatrixMode@4      0048f374     opengl32:OPENGL32.dll
 0002:00000378       __imp__glMaterialfv@12     0048f378     opengl32:OPENGL32.dll
 0002:0000037c       __imp__glLoadIdentity@0    0048f37c     opengl32:OPENGL32.dll
 0002:00000380       __imp__glListBase@4        0048f380     opengl32:OPENGL32.dll
 0002:00000384       __imp__glLineStipple@8     0048f384     opengl32:OPENGL32.dll
 0002:00000388       __imp__glLightfv@12        0048f388     opengl32:OPENGL32.dll
 0002:0000038c       __imp__glLightModeli@8     0048f38c     opengl32:OPENGL32.dll
 0002:00000390       __imp__wglUseFontBitmapsA@16 0048f390     opengl32:OPENGL32.dll
 0002:00000394       __imp__glDeleteLists@8     0048f394     opengl32:OPENGL32.dll
 0002:00000398       __imp__glRasterPos2f@8     0048f398     opengl32:OPENGL32.dll
 0002:0000039c       __imp__glVertex2i@8        0048f39c     opengl32:OPENGL32.dll
 0002:000003a0       __imp__glColor3ub@12       0048f3a0     opengl32:OPENGL32.dll
 0002:000003a4       __imp__glIndexi@4          0048f3a4     opengl32:OPENGL32.dll
 0002:000003a8       \177OPENGL32_NULL_THUNK_DATA 0048f3a8     opengl32:OPENGL32.dll
 0002:000003ac       __imp__DragQueryFileA@16   0048f3ac     shell32:SHELL32.dll
 0002:000003b0       \177SHELL32_NULL_THUNK_DATA 0048f3b0     shell32:SHELL32.dll
 0002:000003b4       __imp__GetMessageA@16      0048f3b4     user32:USER32.dll
 0002:000003b8       __imp__DispatchMessageA@4  0048f3b8     user32:USER32.dll
 0002:000003bc       __imp__PeekMessageA@20     0048f3bc     user32:USER32.dll
 0002:000003c0       __imp__AdjustWindowRect@12 0048f3c0     user32:USER32.dll
 0002:000003c4       __imp__CreateWindowExA@48  0048f3c4     user32:USER32.dll
 0002:000003c8       __imp__GetWindowRect@8     0048f3c8     user32:USER32.dll
 0002:000003cc       __imp__DestroyWindow@4     0048f3cc     user32:USER32.dll
 0002:000003d0       __imp__GetDCEx@12          0048f3d0     user32:USER32.dll
 0002:000003d4       __imp__SetActiveWindow@4   0048f3d4     user32:USER32.dll
 0002:000003d8       __imp__GetSysColor@4       0048f3d8     user32:USER32.dll
 0002:000003dc       __imp__MessageBoxA@16      0048f3dc     user32:USER32.dll
 0002:000003e0       __imp__WindowFromPoint@8   0048f3e0     user32:USER32.dll
 0002:000003e4       __imp__PostThreadMessageA@16 0048f3e4     user32:USER32.dll
 0002:000003e8       __imp__FillRect@12         0048f3e8     user32:USER32.dll
 0002:000003ec       __imp__MessageBeep@4       0048f3ec     user32:USER32.dll
 0002:000003f0       __imp__ReleaseDC@8         0048f3f0     user32:USER32.dll
 0002:000003f4       __imp__IsIconic@4          0048f3f4     user32:USER32.dll
 0002:000003f8       __imp__OpenIcon@4          0048f3f8     user32:USER32.dll
 0002:000003fc       __imp__BringWindowToTop@4  0048f3fc     user32:USER32.dll
 0002:00000400       __imp__SetWindowTextA@8    0048f400     user32:USER32.dll
 0002:00000404       __imp__KillTimer@8         0048f404     user32:USER32.dll
 0002:00000408       __imp__SetTimer@16         0048f408     user32:USER32.dll
 0002:0000040c       __imp__ClientToScreen@8    0048f40c     user32:USER32.dll
 0002:00000410       __imp__SetCapture@4        0048f410     user32:USER32.dll
 0002:00000414       __imp__ReleaseCapture@0    0048f414     user32:USER32.dll
 0002:00000418       __imp__PostQuitMessage@4   0048f418     user32:USER32.dll
 0002:0000041c       __imp__GetUpdateRgn@12     0048f41c     user32:USER32.dll
 0002:00000420       __imp__ValidateRgn@8       0048f420     user32:USER32.dll
 0002:00000424       __imp__GetAsyncKeyState@4  0048f424     user32:USER32.dll
 0002:00000428       __imp__GetKeyState@4       0048f428     user32:USER32.dll
 0002:0000042c       __imp__SetCursor@4         0048f42c     user32:USER32.dll
 0002:00000430       __imp__InvalidateRect@12   0048f430     user32:USER32.dll
 0002:00000434       __imp__LoadIconA@8         0048f434     user32:USER32.dll
 0002:00000438       __imp__LoadCursorA@8       0048f438     user32:USER32.dll
 0002:0000043c       __imp__RegisterClassExA@4  0048f43c     user32:USER32.dll
 0002:00000440       __imp__RegisterWindowMessageA@4 0048f440     user32:USER32.dll
 0002:00000444       __imp__AdjustWindowRectEx@16 0048f444     user32:USER32.dll
 0002:00000448       __imp__GetSystemMetrics@4  0048f448     user32:USER32.dll
 0002:0000044c       __imp__GetClipboardData@4  0048f44c     user32:USER32.dll
 0002:00000450       __imp__GetCursorPos@4      0048f450     user32:USER32.dll
 0002:00000454       __imp__SystemParametersInfoA@16 0048f454     user32:USER32.dll
 0002:00000458       __imp__MsgWaitForMultipleObjects@20 0048f458     user32:USER32.dll
 0002:0000045c       __imp__TranslateMessage@4  0048f45c     user32:USER32.dll
 0002:00000460       __imp__GetClipboardOwner@0 0048f460     user32:USER32.dll
 0002:00000464       __imp__OpenClipboard@4     0048f464     user32:USER32.dll
 0002:00000468       __imp__EmptyClipboard@0    0048f468     user32:USER32.dll
 0002:0000046c       __imp__SetClipboardData@8  0048f46c     user32:USER32.dll
 0002:00000470       __imp__CloseClipboard@0    0048f470     user32:USER32.dll
 0002:00000474       __imp__PostMessageA@16     0048f474     user32:USER32.dll
 0002:00000478       __imp__GetForegroundWindow@0 0048f478     user32:USER32.dll
 0002:0000047c       __imp__GetParent@4         0048f47c     user32:USER32.dll
 0002:00000480       __imp__ShowWindow@8        0048f480     user32:USER32.dll
 0002:00000484       __imp__SetWindowPos@28     0048f484     user32:USER32.dll
 0002:00000488       __imp__SetForegroundWindow@4 0048f488     user32:USER32.dll
 0002:0000048c       __imp__GetDC@4             0048f48c     user32:USER32.dll
 0002:00000490       __imp__EnumDisplaySettingsA@12 0048f490     user32:USER32.dll
 0002:00000494       __imp__ChangeDisplaySettingsA@8 0048f494     user32:USER32.dll
 0002:00000498       __imp__SetWindowLongA@12   0048f498     user32:USER32.dll
 0002:0000049c       __imp__GetWindowLongA@8    0048f49c     user32:USER32.dll
 0002:000004a0       __imp__DefWindowProcA@16   0048f4a0     user32:USER32.dll
 0002:000004a4       \177USER32_NULL_THUNK_DATA 0048f4a4     user32:USER32.dll
 0002:000004a8       __imp__strrchr             0048f4a8     vcruntime:VCRUNTIME140.dll
 0002:000004ac       __imp__memset              0048f4ac     vcruntime:VCRUNTIME140.dll
 0002:000004b0       __imp__memcmp              0048f4b0     vcruntime:VCRUNTIME140.dll
 0002:000004b4       __imp___except_handler4_common 0048f4b4     vcruntime:VCRUNTIME140.dll
 0002:000004b8       __imp____std_type_info_destroy_list 0048f4b8     vcruntime:VCRUNTIME140.dll
 0002:000004bc       __imp__strstr              0048f4bc     vcruntime:VCRUNTIME140.dll
 0002:000004c0       __imp___purecall           0048f4c0     vcruntime:VCRUNTIME140.dll
 0002:000004c4       __imp__memcpy              0048f4c4     vcruntime:VCRUNTIME140.dll
 0002:000004c8       __imp__memchr              0048f4c8     vcruntime:VCRUNTIME140.dll
 0002:000004cc       __imp___CxxThrowException@8 0048f4cc     vcruntime:VCRUNTIME140.dll
 0002:000004d0       __imp____std_exception_destroy 0048f4d0     vcruntime:VCRUNTIME140.dll
 0002:000004d4       __imp____std_exception_copy 0048f4d4     vcruntime:VCRUNTIME140.dll
 0002:000004d8       __imp____std_terminate     0048f4d8     vcruntime:VCRUNTIME140.dll
 0002:000004dc       __imp____CxxFrameHandler3  0048f4dc     vcruntime:VCRUNTIME140.dll
 0002:000004e0       __imp__strchr              0048f4e0     vcruntime:VCRUNTIME140.dll
 0002:000004e4       __imp__memmove             0048f4e4     vcruntime:VCRUNTIME140.dll
 0002:000004e8       \177VCRUNTIME140_NULL_THUNK_DATA 0048f4e8     vcruntime:VCRUNTIME140.dll
 0002:000004ec       __imp__select@20           0048f4ec     wsock32:WSOCK32.dll
 0002:000004f0       __imp____WSAFDIsSet@8      0048f4f0     wsock32:WSOCK32.dll
 0002:000004f4       \177WSOCK32_NULL_THUNK_DATA 0048f4f4     wsock32:WSOCK32.dll
 0002:000004f8       __imp__strtol              0048f4f8     ucrt:api-ms-win-crt-convert-l1-1-0.dll
 0002:000004fc       __imp__atof                0048f4fc     ucrt:api-ms-win-crt-convert-l1-1-0.dll
 0002:00000500       __imp__atoi                0048f500     ucrt:api-ms-win-crt-convert-l1-1-0.dll
 0002:00000504       \177api-ms-win-crt-convert-l1-1-0_NULL_THUNK_DATA 0048f504     ucrt:api-ms-win-crt-convert-l1-1-0.dll
 0002:00000508       __imp__getenv              0048f508     ucrt:api-ms-win-crt-environment-l1-1-0.dll
 0002:0000050c       __imp___putenv             0048f50c     ucrt:api-ms-win-crt-environment-l1-1-0.dll
 0002:00000510       \177api-ms-win-crt-environment-l1-1-0_NULL_THUNK_DATA 0048f510     ucrt:api-ms-win-crt-environment-l1-1-0.dll
 0002:00000514       __imp___lock_file          0048f514     ucrt:api-ms-win-crt-filesystem-l1-1-0.dll
 0002:00000518       __imp___access             0048f518     ucrt:api-ms-win-crt-filesystem-l1-1-0.dll
 0002:0000051c       __imp___stat64i32          0048f51c     ucrt:api-ms-win-crt-filesystem-l1-1-0.dll
 0002:00000520       __imp___mkdir              0048f520     ucrt:api-ms-win-crt-filesystem-l1-1-0.dll
 0002:00000524       __imp__remove              0048f524     ucrt:api-ms-win-crt-filesystem-l1-1-0.dll
 0002:00000528       __imp___unlock_file        0048f528     ucrt:api-ms-win-crt-filesystem-l1-1-0.dll
 0002:0000052c       __imp___splitpath          0048f52c     ucrt:api-ms-win-crt-filesystem-l1-1-0.dll
 0002:00000530       \177api-ms-win-crt-filesystem-l1-1-0_NULL_THUNK_DATA 0048f530     ucrt:api-ms-win-crt-filesystem-l1-1-0.dll
 0002:00000534       __imp__malloc              0048f534     ucrt:api-ms-win-crt-heap-l1-1-0.dll
 0002:00000538       __imp__calloc              0048f538     ucrt:api-ms-win-crt-heap-l1-1-0.dll
 0002:0000053c       __imp___callnewh           0048f53c     ucrt:api-ms-win-crt-heap-l1-1-0.dll
 0002:00000540       __imp__free                0048f540     ucrt:api-ms-win-crt-heap-l1-1-0.dll
 0002:00000544       __imp__realloc             0048f544     ucrt:api-ms-win-crt-heap-l1-1-0.dll
 0002:00000548       __imp___set_new_mode       0048f548     ucrt:api-ms-win-crt-heap-l1-1-0.dll
 0002:0000054c       \177api-ms-win-crt-heap-l1-1-0_NULL_THUNK_DATA 0048f54c     ucrt:api-ms-win-crt-heap-l1-1-0.dll
 0002:00000550       __imp___configthreadlocale 0048f550     ucrt:api-ms-win-crt-locale-l1-1-0.dll
 0002:00000554       __imp__localeconv          0048f554     ucrt:api-ms-win-crt-locale-l1-1-0.dll
 0002:00000558       \177api-ms-win-crt-locale-l1-1-0_NULL_THUNK_DATA 0048f558     ucrt:api-ms-win-crt-locale-l1-1-0.dll
 0002:0000055c       __imp___libm_sse2_pow_precise 0048f55c     ucrt:api-ms-win-crt-math-l1-1-0.dll
 0002:00000560       __imp____setusermatherr    0048f560     ucrt:api-ms-win-crt-math-l1-1-0.dll
 0002:00000564       __imp___libm_sse2_tan_precise 0048f564     ucrt:api-ms-win-crt-math-l1-1-0.dll
 0002:00000568       __imp___except1            0048f568     ucrt:api-ms-win-crt-math-l1-1-0.dll
 0002:0000056c       __imp___CIfmod             0048f56c     ucrt:api-ms-win-crt-math-l1-1-0.dll
 0002:00000570       __imp__log                 0048f570     ucrt:api-ms-win-crt-math-l1-1-0.dll
 0002:00000574       __imp__pow                 0048f574     ucrt:api-ms-win-crt-math-l1-1-0.dll
 0002:00000578       __imp___libm_sse2_sin_precise 0048f578     ucrt:api-ms-win-crt-math-l1-1-0.dll
 0002:0000057c       __imp___libm_sse2_cos_precise 0048f57c     ucrt:api-ms-win-crt-math-l1-1-0.dll
 0002:00000580       __imp__cos                 0048f580     ucrt:api-ms-win-crt-math-l1-1-0.dll
 0002:00000584       __imp__ceil                0048f584     ucrt:api-ms-win-crt-math-l1-1-0.dll
 0002:00000588       __imp___libm_sse2_sqrt_precise 0048f588     ucrt:api-ms-win-crt-math-l1-1-0.dll
 0002:0000058c       __imp__sin                 0048f58c     ucrt:api-ms-win-crt-math-l1-1-0.dll
 0002:00000590       __imp__sqrt                0048f590     ucrt:api-ms-win-crt-math-l1-1-0.dll
 0002:00000594       __imp__floor               0048f594     ucrt:api-ms-win-crt-math-l1-1-0.dll
 0002:00000598       __imp__fabs                0048f598     ucrt:api-ms-win-crt-math-l1-1-0.dll
 0002:0000059c       \177api-ms-win-crt-math-l1-1-0_NULL_THUNK_DATA 0048f59c     ucrt:api-ms-win-crt-math-l1-1-0.dll
 0002:000005a0       __imp___initterm_e         0048f5a0     ucrt:api-ms-win-crt-runtime-l1-1-0.dll
 0002:000005a4       __imp___invalid_parameter_noinfo_noreturn 0048f5a4     ucrt:api-ms-win-crt-runtime-l1-1-0.dll
 0002:000005a8       __imp___initterm           0048f5a8     ucrt:api-ms-win-crt-runtime-l1-1-0.dll
 0002:000005ac       __imp___get_initial_narrow_environment 0048f5ac     ucrt:api-ms-win-crt-runtime-l1-1-0.dll
 0002:000005b0       __imp__exit                0048f5b0     ucrt:api-ms-win-crt-runtime-l1-1-0.dll
 0002:000005b4       __imp___set_app_type       0048f5b4     ucrt:api-ms-win-crt-runtime-l1-1-0.dll
 0002:000005b8       __imp___seh_filter_exe     0048f5b8     ucrt:api-ms-win-crt-runtime-l1-1-0.dll
 0002:000005bc       __imp__terminate           0048f5bc     ucrt:api-ms-win-crt-runtime-l1-1-0.dll
 0002:000005c0       __imp___cexit              0048f5c0     ucrt:api-ms-win-crt-runtime-l1-1-0.dll
 0002:000005c4       __imp__strerror            0048f5c4     ucrt:api-ms-win-crt-runtime-l1-1-0.dll
 0002:000005c8       __imp___errno              0048f5c8     ucrt:api-ms-win-crt-runtime-l1-1-0.dll
 0002:000005cc       __imp___crt_atexit         0048f5cc     ucrt:api-ms-win-crt-runtime-l1-1-0.dll
 0002:000005d0       __imp___crt_at_quick_exit  0048f5d0     ucrt:api-ms-win-crt-runtime-l1-1-0.dll
 0002:000005d4       __imp___execute_onexit_table 0048f5d4     ucrt:api-ms-win-crt-runtime-l1-1-0.dll
 0002:000005d8       __imp___controlfp_s        0048f5d8     ucrt:api-ms-win-crt-runtime-l1-1-0.dll
 0002:000005dc       __imp___register_onexit_function 0048f5dc     ucrt:api-ms-win-crt-runtime-l1-1-0.dll
 0002:000005e0       __imp___initialize_onexit_table 0048f5e0     ucrt:api-ms-win-crt-runtime-l1-1-0.dll
 0002:000005e4       __imp___initialize_narrow_environment 0048f5e4     ucrt:api-ms-win-crt-runtime-l1-1-0.dll
 0002:000005e8       __imp___register_thread_local_exe_atexit_callback 0048f5e8     ucrt:api-ms-win-crt-runtime-l1-1-0.dll
 0002:000005ec       __imp___configure_narrow_argv 0048f5ec     ucrt:api-ms-win-crt-runtime-l1-1-0.dll
 0002:000005f0       __imp___seh_filter_dll     0048f5f0     ucrt:api-ms-win-crt-runtime-l1-1-0.dll
 0002:000005f4       __imp___c_exit             0048f5f4     ucrt:api-ms-win-crt-runtime-l1-1-0.dll
 0002:000005f8       __imp____p___argv          0048f5f8     ucrt:api-ms-win-crt-runtime-l1-1-0.dll
 0002:000005fc       __imp____p___argc          0048f5fc     ucrt:api-ms-win-crt-runtime-l1-1-0.dll
 0002:00000600       __imp___exit               0048f600     ucrt:api-ms-win-crt-runtime-l1-1-0.dll
 0002:00000604       \177api-ms-win-crt-runtime-l1-1-0_NULL_THUNK_DATA 0048f604     ucrt:api-ms-win-crt-runtime-l1-1-0.dll
 0002:00000608       __imp__fread               0048f608     ucrt:api-ms-win-crt-stdio-l1-1-0.dll
 0002:0000060c       __imp__fsetpos             0048f60c     ucrt:api-ms-win-crt-stdio-l1-1-0.dll
 0002:00000610       __imp____stdio_common_vsscanf 0048f610     ucrt:api-ms-win-crt-stdio-l1-1-0.dll
 0002:00000614       __imp__fgetpos             0048f614     ucrt:api-ms-win-crt-stdio-l1-1-0.dll
 0002:00000618       __imp____stdio_common_vfscanf 0048f618     ucrt:api-ms-win-crt-stdio-l1-1-0.dll
 0002:0000061c       __imp___getcwd             0048f61c     ucrt:api-ms-win-crt-stdio-l1-1-0.dll
 0002:00000620       __imp__fgets               0048f620     ucrt:api-ms-win-crt-stdio-l1-1-0.dll
 0002:00000624       __imp__fopen               0048f624     ucrt:api-ms-win-crt-stdio-l1-1-0.dll
 0002:00000628       __imp____stdio_common_vsprintf 0048f628     ucrt:api-ms-win-crt-stdio-l1-1-0.dll
 0002:0000062c       __imp____p__commode        0048f62c     ucrt:api-ms-win-crt-stdio-l1-1-0.dll
 0002:00000630       __imp__ferror              0048f630     ucrt:api-ms-win-crt-stdio-l1-1-0.dll
 0002:00000634       __imp__fwrite              0048f634     ucrt:api-ms-win-crt-stdio-l1-1-0.dll
 0002:00000638       __imp____stdio_common_vfprintf 0048f638     ucrt:api-ms-win-crt-stdio-l1-1-0.dll
 0002:0000063c       __imp____acrt_iob_func     0048f63c     ucrt:api-ms-win-crt-stdio-l1-1-0.dll
 0002:00000640       __imp__fflush              0048f640     ucrt:api-ms-win-crt-stdio-l1-1-0.dll
 0002:00000644       __imp___fseeki64           0048f644     ucrt:api-ms-win-crt-stdio-l1-1-0.dll
 0002:00000648       __imp__fclose              0048f648     ucrt:api-ms-win-crt-stdio-l1-1-0.dll
 0002:0000064c       __imp__fputc               0048f64c     ucrt:api-ms-win-crt-stdio-l1-1-0.dll
 0002:00000650       __imp__fseek               0048f650     ucrt:api-ms-win-crt-stdio-l1-1-0.dll
 0002:00000654       __imp__ungetc              0048f654     ucrt:api-ms-win-crt-stdio-l1-1-0.dll
 0002:00000658       __imp___get_stream_buffer_pointers 0048f658     ucrt:api-ms-win-crt-stdio-l1-1-0.dll
 0002:0000065c       __imp__setvbuf             0048f65c     ucrt:api-ms-win-crt-stdio-l1-1-0.dll
 0002:00000660       __imp__fgetc               0048f660     ucrt:api-ms-win-crt-stdio-l1-1-0.dll
 0002:00000664       __imp___set_fmode          0048f664     ucrt:api-ms-win-crt-stdio-l1-1-0.dll
 0002:00000668       \177api-ms-win-crt-stdio-l1-1-0_NULL_THUNK_DATA 0048f668     ucrt:api-ms-win-crt-stdio-l1-1-0.dll
 0002:0000066c       __imp__strncpy             0048f66c     ucrt:api-ms-win-crt-string-l1-1-0.dll
 0002:00000670       __imp__strlen              0048f670     ucrt:api-ms-win-crt-string-l1-1-0.dll
 0002:00000674       __imp__strcspn             0048f674     ucrt:api-ms-win-crt-string-l1-1-0.dll
 0002:00000678       __imp__isalpha             0048f678     ucrt:api-ms-win-crt-string-l1-1-0.dll
 0002:0000067c       __imp__isdigit             0048f67c     ucrt:api-ms-win-crt-string-l1-1-0.dll
 0002:00000680       __imp__isspace             0048f680     ucrt:api-ms-win-crt-string-l1-1-0.dll
 0002:00000684       __imp__toupper             0048f684     ucrt:api-ms-win-crt-string-l1-1-0.dll
 0002:00000688       __imp__ispunct             0048f688     ucrt:api-ms-win-crt-string-l1-1-0.dll
 0002:0000068c       __imp__tolower             0048f68c     ucrt:api-ms-win-crt-string-l1-1-0.dll
 0002:00000690       __imp__islower             0048f690     ucrt:api-ms-win-crt-string-l1-1-0.dll
 0002:00000694       __imp__isprint             0048f694     ucrt:api-ms-win-crt-string-l1-1-0.dll
 0002:00000698       __imp__isupper             0048f698     ucrt:api-ms-win-crt-string-l1-1-0.dll
 0002:0000069c       __imp__strcmp              0048f69c     ucrt:api-ms-win-crt-string-l1-1-0.dll
 0002:000006a0       __imp__stricmp             0048f6a0     ucrt:api-ms-win-crt-string-l1-1-0.dll
 0002:000006a0       __imp___stricmp            0048f6a0     ucrt:api-ms-win-crt-string-l1-1-0.dll
 0002:000006a4       __imp___strnicmp           0048f6a4     ucrt:api-ms-win-crt-string-l1-1-0.dll
 0002:000006a8       __imp__isalnum             0048f6a8     ucrt:api-ms-win-crt-string-l1-1-0.dll
 0002:000006ac       __imp___strdup             0048f6ac     ucrt:api-ms-win-crt-string-l1-1-0.dll
 0002:000006b0       __imp__strncmp             0048f6b0     ucrt:api-ms-win-crt-string-l1-1-0.dll
 0002:000006b4       __imp__isxdigit            0048f6b4     ucrt:api-ms-win-crt-string-l1-1-0.dll
 0002:000006b8       __imp__strcat              0048f6b8     ucrt:api-ms-win-crt-string-l1-1-0.dll
 0002:000006bc       __imp__strcpy              0048f6bc     ucrt:api-ms-win-crt-string-l1-1-0.dll
 0002:000006c0       \177api-ms-win-crt-string-l1-1-0_NULL_THUNK_DATA 0048f6c0     ucrt:api-ms-win-crt-string-l1-1-0.dll
 0002:000006c4       __imp___time64             0048f6c4     ucrt:api-ms-win-crt-time-l1-1-0.dll
 0002:000006c8       __imp__clock               0048f6c8     ucrt:api-ms-win-crt-time-l1-1-0.dll
 0002:000006cc       \177api-ms-win-crt-time-l1-1-0_NULL_THUNK_DATA 0048f6cc     ucrt:api-ms-win-crt-time-l1-1-0.dll
 0002:000006d0       __imp__bsearch             0048f6d0     ucrt:api-ms-win-crt-utility-l1-1-0.dll
 0002:000006d4       __imp__qsort               0048f6d4     ucrt:api-ms-win-crt-utility-l1-1-0.dll
 0002:000006d8       __imp__abs                 0048f6d8     ucrt:api-ms-win-crt-utility-l1-1-0.dll
 0002:000006dc       __imp__rand                0048f6dc     ucrt:api-ms-win-crt-utility-l1-1-0.dll
 0002:000006e0       __imp__srand               0048f6e0     ucrt:api-ms-win-crt-utility-l1-1-0.dll
 0002:000006e4       \177api-ms-win-crt-utility-l1-1-0_NULL_THUNK_DATA 0048f6e4     ucrt:api-ms-win-crt-utility-l1-1-0.dll
 0002:000006e8       __imp__OleInitialize@4     0048f6e8     ole32:ole32.dll
 0002:000006ec       __imp__OleUninitialize@0   0048f6ec     ole32:ole32.dll
 0002:000006f0       __imp__DoDragDrop@16       0048f6f0     ole32:ole32.dll
 0002:000006f4       __imp__ReleaseStgMedium@4  0048f6f4     ole32:ole32.dll
 0002:000006f8       __imp__RegisterDragDrop@8  0048f6f8     ole32:ole32.dll
 0002:000006fc       \177ole32_NULL_THUNK_DATA  0048f6fc     ole32:ole32.dll
 0002:00000700       ___guard_check_icall_fptr  0048f700     MSVCRT:guard_support.obj
 0002:00000704       ___xc_a                    0048f704     MSVCRT:initializers.obj
 0002:00000734       ___xc_z                    0048f734     MSVCRT:initializers.obj
 0002:00000738       ___xi_a                    0048f738     MSVCRT:initializers.obj
 0002:00000748       ___xi_z                    0048f748     MSVCRT:initializers.obj
 0002:0000074c       ___xl_a                    0048f74c     MSVCRT:tlssup.obj
 0002:00000750       ___xl_z                    0048f750     MSVCRT:tlssup.obj
 0002:00000754       ___xp_a                    0048f754     MSVCRT:initializers.obj
 0002:00000758       ___xp_z                    0048f758     MSVCRT:initializers.obj
 0002:0000075c       ___xt_a                    0048f75c     MSVCRT:initializers.obj
 0002:00000760       ___xt_z                    0048f760     MSVCRT:initializers.obj
 0002:00000774       ??_7exception@std@@6B@     0048f774     RayTracer.obj
 0002:0000077c       ??_C@_0BC@EOODALEL@Unknown?5exception@ 0048f77c     RayTracer.obj
 0002:00000794       ??_7bad_cast@std@@6B@      0048f794     RayTracer.obj
 0002:0000079c       ??_C@_08EPJLHIJG@bad?5cast@ 0048f79c     RayTracer.obj
 0002:000007ac       ??_7?$basic_filebuf@DU?$char_traits@D@std@@@std@@6B@ 0048f7ac     RayTracer.obj
 0002:000007ec       ??_7?$basic_ifstream@DU?$char_traits@D@std@@@std@@6B@ 0048f7ec     RayTracer.obj
 0002:000007f0       ??_8?$basic_ifstream@DU?$char_traits@D@std@@@std@@7B@ 0048f7f0     RayTracer.obj
 0002:000007f8       ??_C@_0CB@CMNMOCL@Error?3?5couldn?8t?5read?5scene?5file@ 0048f7f8     RayTracer.obj
 0002:0000081c       ??_C@_02HHAEMJFE@?2?1@     0048f81c     RayTracer.obj
 0002:00000820       ??_C@_01LFCBOECM@?4@       0048f820     RayTracer.obj
 0002:00000824       ??_C@_0BJ@FMNIMAIN@Parser?3?5fatal?5exception?5@ 0048f824     RayTracer.obj
 0002:00000840       ??_C@_0BM@JOJOBHEM@Texture?5mapping?5exception?3?5@ 0048f840     RayTracer.obj
 0002:0000085c       ??_C@_0BI@CFPLBAOH@invalid?5string?5position@ 0048f85c     RayTracer.obj
 0002:00000874       ??_C@_0BA@JFNIOLAK@string?5too?5long@ 0048f874     RayTracer.obj
 0002:00000888       __real@3ff0000000000000    0048f888     RayTracer.obj
 0002:00000890       __real@406fe00000000000    0048f890     RayTracer.obj
 0002:000008a0       __xmm@3ff00000000000003ff0000000000000 0048f8a0     RayTracer.obj
 0002:000008b0       __xmm@80000000000000008000000000000000 0048f8b0     RayTracer.obj
 0002:000008c4       ??_7TraceUI@@6B@           0048f8c4     CommandLineUI.obj
 0002:000008d4       ??_7CommandLineUI@@6B@     0048f8d4     CommandLineUI.obj
 0002:000008e0       ??_C@_09MHLJNJLD@r?3w?3bBaAh@ 0048f8e0     CommandLineUI.obj
 0002:000008ec       ??_C@_02DGLLHPKE@?8?4@     0048f8ec     CommandLineUI.obj
 0002:000008f0       ??_C@_0BE@DAIMBGDF@Invalid?5argument?3?5?8@ 0048f8f0     CommandLineUI.obj
 0002:00000904       ??_C@_0BN@CFAJPOPK@no?5input?5and?1or?5output?5name?4@ 0048f904     CommandLineUI.obj
 0002:00000924       ??_C@_04EEOGCCFB@?4png@    0048f924     CommandLineUI.obj
 0002:0000092c       ??_C@_08GFGBMIFC@?5seconds@ 0048f92c     CommandLineUI.obj
 0002:00000938       ??_C@_0O@MBLBKPJJ@total?5time?5?$DN?5@ 0048f938     CommandLineUI.obj
 0002:00000948       ??_C@_01GEODFPGF@?8@       0048f948     CommandLineUI.obj
 0002:0000094c       ??_C@_0BK@PGGNIJBI@Unable?5to?5load?5ray?5file?5?8@ 0048f94c     CommandLineUI.obj
 0002:00000968       ??_C@_0CC@FHJNLMCA@?5?$FLoptions?$FN?5?$FLinput?4ray?5output?4bm@ 0048f968     CommandLineUI.obj
 0002:0000098c       ??_C@_07PLNHEBKD@usage?3?5@ 0048f98c     CommandLineUI.obj
 0002:00000994       ??_C@_01PKGAHCOL@?$CJ@     0048f994     CommandLineUI.obj
 0002:00000998       ??_C@_0CM@DLNMLAOK@?5?5?9r?5?$DM?$CD?$DO?5?5?5?5?5?5set?5recursion?5lev@ 0048f998     CommandLineUI.obj
 0002:000009c4       ??_C@_0CP@EJMAGDHO@?5?5?9w?5?$DM?$CD?$DO?5?5?5?5?5?5set?5output?5image?5@ 0048f9c4     CommandLineUI.obj
 0002:000009f8       ??_C@_0EH@GPGPOMN@?5?5?9b?5?5?5?5?5?5?5?5?5?5?$CITODO?$CJ?5enable?5acc@ 0048f9f8     CommandLineUI.obj
 0002:00000a40       ??_C@_0DO@OHPGBHMM@?5?5?9B?5?5?5?5?5?5?5?5?5?5?$CITODO?$CJ?5disable?5ac@ 0048fa40     CommandLineUI.obj
 0002:00000a80       ??_C@_0CJ@HEBMACPC@?5?5?9a?5?5?5?5?5?5?5?5?5?5?$CITODO?$CJ?5enable?5ant@ 0048fa80     CommandLineUI.obj
 0002:00000aac       ??_C@_0DE@OKPIAAJB@?5?5?9A?5?5?5?5?5?5?5?5?5?5?$CITODO?$CJ?5disable?5an@ 0048faac     CommandLineUI.obj
 0002:00000ae0       ??_C@_0CI@HIBPNGKJ@?5?5?9h?5?5?5?5?5?5?5?5?5?5display?5this?5help@ 0048fae0     CommandLineUI.obj
 0002:00000b08       __real@3fe0000000000000    0048fb08     CommandLineUI.obj
 0002:00000b10       __real@408f400000000000    0048fb10     CommandLineUI.obj
 0002:00000b1c       ??_7Fl_Gl_Window@@6B@      0048fb1c     debuggingView.obj
 0002:00000b40       ??_7DebuggingView@@6B@     0048fb40     debuggingView.obj
 0002:00000b60       ??_C@_0M@IHMOCJFO@method?5name@ 0048fb60     debuggingView.obj
 0002:00000b6c       ??_C@_0BJ@BBEBHHEK@Error?3?5?$CF1s?5?$CI?$CFi?$CJ?5in?5?$CF1s?4?6@ 0048fb6c     debuggingView.obj
 0002:00000b88       ??_C@_01MMEEDKFM@X@        0048fb88     debuggingView.obj
 0002:00000b8c       ??_C@_01NFFPALBN@Y@        0048fb8c     debuggingView.obj
 0002:00000b90       ??_C@_01POHCFINO@Z@        0048fb90     debuggingView.obj
 0002:00000b98       ??_C@_0ED@PENGFHIN@Not?5displaying?5all?5lights?5in?5de@ 0048fb98     debuggingView.obj
 0002:00000bdc       ??_C@_0BD@OLBABOEK@vector?$DMT?$DO?5too?5long@ 0048fbdc     debuggingView.obj
 0002:00000bf0       __real@3fe051eb851eb852    0048fbf0     debuggingView.obj
 0002:00000bf8       __real@403e000000000000    0048fbf8     debuggingView.obj
 0002:00000c00       __real@bfe0000000000000    0048fc00     debuggingView.obj
 0002:00000c08       __real@bfe051eb851eb852    0048fc08     debuggingView.obj
 0002:00000c10       __xmm@3f800000000000000000000000000000 0048fc10     debuggingView.obj
 0002:00000c20       __xmm@3f8000003e4ccccd3dcccccd3dcccccd 0048fc20     debuggingView.obj
 0002:00000c30       __xmm@3f8000003f4ccccd3ecccccd3ecccccd 0048fc30     debuggingView.obj
 0002:00000c40       __xmm@40590000000000003ff0000000000000 0048fc40     debuggingView.obj
 0002:00000c50       __xmm@80000000800000008000000080000000 0048fc50     debuggingView.obj
 0002:00000c60       ??_C@_07HIOMHIIA@Shading@  0048fc60     debuggingWindow.obj
 0002:00000c68       ??_C@_06EFAGIKOH@Normal@   0048fc68     debuggingWindow.obj
 0002:00000c70       ??_C@_0N@DHPFACHL@Flat?5shading@ 0048fc70     debuggingWindow.obj
 0002:00000c80       ??_C@_09GCGMAPH@Wireframe@ 0048fc80     debuggingWindow.obj
 0002:00000c8c       ??_C@_07MJEANAEL@Quality@  0048fc8c     debuggingWindow.obj
 0002:00000c94       ??_C@_04PHMMJPOJ@High@     0048fc94     debuggingWindow.obj
 0002:00000c9c       ??_C@_06LHIDHMIE@Medium@   0048fc9c     debuggingWindow.obj
 0002:00000ca4       ??_C@_03CMIMKEEK@Low@      0048fca4     debuggingWindow.obj
 0002:00000ca8       ??_C@_04DMAJLHBF@Poor@     0048fca8     debuggingWindow.obj
 0002:00000cb0       ??_C@_08GGMLLKEC@Lighting@ 0048fcb0     debuggingWindow.obj
 0002:00000cbc       ??_C@_0BB@FMLJPMKJ@Default?5lighting@ 0048fcbc     debuggingWindow.obj
 0002:00000cd0       ??_C@_0P@GNJOEOA@Scene?5lighting@ 0048fcd0     debuggingWindow.obj
 0002:00000ce0       ??_C@_09NJDAEDLH@Materials@ 0048fce0     debuggingWindow.obj
 0002:00000cec       ??_C@_0BE@BNGHFPHG@Use?5scene?5materials@ 0048fcec     debuggingWindow.obj
 0002:00000d00       ??_C@_07JLFIFBAE@Display@  0048fd00     debuggingWindow.obj
 0002:00000d08       ??_C@_08OOJNLKLP@Geometry@ 0048fd08     debuggingWindow.obj
 0002:00000d14       ??_C@_06EMKJPPBG@Lights@   0048fd14     debuggingWindow.obj
 0002:00000d1c       ??_C@_06JCBBMBIP@Camera@   0048fd1c     debuggingWindow.obj
 0002:00000d24       ??_C@_04LIMLNCJG@Axes@     0048fd24     debuggingWindow.obj
 0002:00000d2c       ??_C@_07DKDJFLGE@Normals@  0048fd2c     debuggingWindow.obj
 0002:00000d34       ??_C@_04KHKGHNMF@Rays@     0048fd34     debuggingWindow.obj
 0002:00000d3c       ??_C@_0L@KLDABBOG@Visibility@ 0048fd3c     debuggingWindow.obj
 0002:00000d48       ??_C@_0L@IODOICBM@Reflection@ 0048fd48     debuggingWindow.obj
 0002:00000d54       ??_C@_0L@BDEAIFBG@Refraction@ 0048fd54     debuggingWindow.obj
 0002:00000d60       ??_C@_06KHOKADBJ@Shadow@   0048fd60     debuggingWindow.obj
 0002:00000d6c       ??_7Fl_Menu_Bar@@6B@       0048fd6c     debuggingWindow.obj
 0002:00000d7c       ??_C@_0BA@BJBPBEKH@Debugging?5trace@ 0048fd7c     debuggingWindow.obj
 0002:00000d8c       ??_C@_0O@PLGLLPAP@DebuggingView@ 0048fd8c     debuggingWindow.obj
 0002:00000d9c       ??_C@_0BE@JONHPENG@map?1set?$DMT?$DO?5too?5long@ 0048fd9c     glObjects.obj
 0002:00000db0       __real@3f800000            0048fdb0     glObjects.obj
 0002:00000db8       __real@3fc0000000000000    0048fdb8     glObjects.obj
 0002:00000dc0       __real@3ff4cccccccccccd    0048fdc0     glObjects.obj
 0002:00000dc8       __real@3ff8000000000000    0048fdc8     glObjects.obj
 0002:00000dd0       __real@401921fb54442d18    0048fdd0     glObjects.obj
 0002:00000dd8       __real@4038000000000000    0048fdd8     glObjects.obj
 0002:00000de0       __real@4056800000000000    0048fde0     glObjects.obj
 0002:00000de8       __real@4060000000000000    0048fde8     glObjects.obj
 0002:00000df0       __real@bff4cccccccccccd    0048fdf0     glObjects.obj
 0002:00000df8       __real@bff8000000000000    0048fdf8     glObjects.obj
 0002:00000e00       __real@c056800000000000    0048fe00     glObjects.obj
 0002:00000e10       __xmm@3fb999999999999a3fb999999999999a 0048fe10     glObjects.obj
 0002:00000e20       __xmm@3fc999999999999a3fc999999999999a 0048fe20     glObjects.obj
 0002:00000e30       __xmm@3fc999999999999a3ff0000000000000 0048fe30     glObjects.obj
 0002:00000e40       __xmm@3ff00000000000004056800000000000 0048fe40     glObjects.obj
 0002:00000e50       __xmm@3ff00000000000004066800000000000 0048fe50     glObjects.obj
 0002:00000e60       __xmm@3ff00000000000004070e00000000000 0048fe60     glObjects.obj
 0002:00000e70       __xmm@3ff0000000000000c056800000000000 0048fe70     glObjects.obj
 0002:00000e80       __xmm@bfc999999999999a3ff0000000000000 0048fe80     glObjects.obj
 0002:00000e90       __xmm@bfe0000000000000bfe0000000000000 0048fe90     glObjects.obj
 0002:00000ea0       ??_C@_05FHBCAALB@?$CGFile@ 0048fea0     GraphicalUI.obj
 0002:00000ea8       ??_C@_0P@KFLCMLL@?$CGLoad?5Scene?4?4?4@ 0048fea8     GraphicalUI.obj
 0002:00000eb8       ??_C@_0P@IGLBNMCE@?$CGSave?5Image?4?4?4@ 0048feb8     GraphicalUI.obj
 0002:00000ec8       ??_C@_05KNAFKLGA@?$CGExit@ 0048fec8     GraphicalUI.obj
 0002:00000ed0       ??_C@_05JFEBOHHM@?$CGHelp@ 0048fed0     GraphicalUI.obj
 0002:00000ed8       ??_C@_06JDCECANP@?$CGAbout@ 0048fed8     GraphicalUI.obj
 0002:00000ee4       ??_7GraphicalUI@@6B@       0048fee4     GraphicalUI.obj
 0002:00000ef4       ??_7Fl_Int_Input@@6B@      0048fef4     GraphicalUI.obj
 0002:00000f08       ??_7Dialog2@@6B@           0048ff08     GraphicalUI.obj
 0002:00000f18       ??_C@_0BL@IPCEOMMI@Enter?5JPEG?5quality?5setting@ 0048ff18     GraphicalUI.obj
 0002:00000f34       ??_C@_02IJDFDKEE@95@       0048ff34     GraphicalUI.obj
 0002:00000f38       ??_C@_02PNHBFOHM@Ok@       0048ff38     GraphicalUI.obj
 0002:00000f3c       ??_C@_05OACFOCNG@?$CK?4ray@ 0048ff3c     GraphicalUI.obj
 0002:00000f44       ??_C@_0M@GCFCGBJC@Open?5Scene?$DP@ 0048ff44     GraphicalUI.obj
 0002:00000f50       ??_C@_08MDAAHFLF@Ray?5?$DM?$CFs?$DO@ 0048ff50     GraphicalUI.obj
 0002:00000f5c       ??_C@_0BB@NGIDKHOI@Ray?5?$DMNot?5Loaded?$DO@ 0048ff5c     GraphicalUI.obj
 0002:00000f70       ??_C@_07MNJKAJFG@Ray?5?$DM?$CFs@ 0048ff70     GraphicalUI.obj
 0002:00000f78       ??_C@_0L@HDINBN@Save?5Image@ 0048ff78     GraphicalUI.obj
 0002:00000f84       ??_C@_0M@HNIIKIGF@?$CK?4png?7?$CK?4jpg@ 0048ff84     GraphicalUI.obj
 0002:00000f90       ??_C@_04GNPKBLNA@?4jpg@    0048ff90     GraphicalUI.obj
 0002:00000f98       ??_C@_02MFDMBIJM@ok@       0048ff98     GraphicalUI.obj
 0002:00000f9c       ??_C@_0DI@MJLGOENP@RayTracer?5Project?0?5FLTK?5version@ 0048ff9c     GraphicalUI.obj
 0002:00000fd4       ??_C@_09EAKLHDML@?$CI?$CFd?$CF?$CF?$CJ?5?$CFs@ 0048ffd4     GraphicalUI.obj
 0002:00000fe0       ??_C@_02DKCKIIND@?$CFs@    0048ffe0     GraphicalUI.obj
 0002:00000fe4       ??_C@_05BOMFGPKE@Depth@    0048ffe4     GraphicalUI.obj
 0002:00000fec       ??_C@_04EBKMHHBE@Size@     0048ffec     GraphicalUI.obj
 0002:00000ff4       ??_C@_0BC@EBEAHMLD@Debugging?5display@ 0048fff4     GraphicalUI.obj
 0002:00001008       ??_C@_07IIOEJGPH@?$CGRender@ 00490008     GraphicalUI.obj
 0002:00001010       ??_C@_05GIJCMPEM@?$CGStop@ 00490010     GraphicalUI.obj
 0002:00001018       ??_C@_0P@BIKGMPPG@Rendered?5Image@ 00490018     GraphicalUI.obj
 0002:00001028       __real@4024000000000000    00490028     GraphicalUI.obj
 0002:00001030       __real@4050000000000000    00490030     GraphicalUI.obj
 0002:00001038       __real@4059000000000000    00490038     GraphicalUI.obj
 0002:00001040       __real@4080000000000000    00490040     GraphicalUI.obj
 0002:00001048       __real@3c360b61            00490048     ModelerCamera.obj
 0002:0000104c       __real@3cf5c28f            0049004c     ModelerCamera.obj
 0002:00001050       __real@3fc90fdb            00490050     ModelerCamera.obj
 0002:00001058       __real@401921fb60000000    00490058     ModelerCamera.obj
 0002:00001060       __real@4096cbe4            00490060     ModelerCamera.obj
 0002:00001064       __real@40c90fdb            00490064     ModelerCamera.obj
 0002:00001068       __real@bc360b61            00490068     ModelerCamera.obj
 0002:0000106c       __real@bcf5c28f            0049006c     ModelerCamera.obj
 0002:00001070       __real@bda3d70a            00490070     ModelerCamera.obj
 0002:00001074       __real@bf800000            00490074     ModelerCamera.obj
 0002:00001078       ??_C@_0BB@JILKKOCO@Read?5character?5?$GA@ 00490078     buffer.obj
 0002:0000108c       ??_C@_01EEMJAFIK@?6@       0049008c     buffer.obj
 0002:00001090       ??_C@_02KPDBPKPG@?$CD?5@   00490090     buffer.obj
 0002:0001f200       ??_C@_05BGKIEECB@Abort@    004ae200     imageio.obj
 0002:0001f208       ??_C@_0M@NOGOPBLN@?$CD?5?$CFs?5?3?6?$CFs?6?6@ 004ae208     imageio.obj
 0002:0001f214       ??_C@_0BG@IOCOPDAE@CImgInstanceException@ 004ae214     imageio.obj
 0002:0001f22c       ??_C@_0BG@KMDADBLO@CImgArgumentException@ 004ae22c     imageio.obj
 0002:0001f244       ??_C@_0BA@EFAPIJMM@CImgIOException@ 004ae244     imageio.obj
 0002:0001f254       ??_C@_0O@PPAIJIHF@unsigned?5char@ 004ae254     imageio.obj
 0002:0001f264       ??_C@_04ENMBGAPA@char@     004ae264     imageio.obj
 0002:0001f26c       ??_C@_0P@IIMKEEHB@unsigned?5short@ 004ae26c     imageio.obj
 0002:0001f27c       ??_C@_05BFKKPKCG@short@    004ae27c     imageio.obj
 0002:0001f284       ??_C@_0N@OFHMGPAL@unsigned?5int@ 004ae284     imageio.obj
 0002:0001f294       ??_C@_03JBIPMCLC@int@      004ae294     imageio.obj
 0002:0001f298       ??_C@_0O@NMGGJGDE@unsigned?5long@ 004ae298     imageio.obj
 0002:0001f2a8       ??_C@_04GOKPGOLB@long@     004ae2a8     imageio.obj
 0002:0001f2b0       ??_C@_05KNFBNCOH@float@    004ae2b0     imageio.obj
 0002:0001f2b8       ??_C@_06BNJCAIGJ@double@   004ae2b8     imageio.obj
 0002:0001f2c0       ??_C@_0BA@NDMLJGPL@?$DMCImg?5Warning?$DO?5@ 004ae2c0     imageio.obj
 0002:0001f2d0       ??_C@_0BN@CMEAOILB@C?3?2IMAGEM?$HO1?4?$CFu?9Q?2convert?4exe@ 004ae2d0     imageio.obj
 0002:0001f2f0       ??_C@_01KDCPPGHE@r@        004ae2f0     imageio.obj
 0002:0001f2f4       ??_C@_0BL@OGAIALDM@C?3?2IMAGEM?$HO1?4?$CFu?2convert?4exe@ 004ae2f4     imageio.obj
 0002:0001f310       ??_C@_0CJ@HGIPBJJM@C?3?2IMAGEM?$HO1?4?$CFu?9Q?2VISUA?$HO1?2BIN?2co@ 004ae310     imageio.obj
 0002:0001f33c       ??_C@_0CH@JGLEHMLG@C?3?2IMAGEM?$HO1?4?$CFu?2VISUA?$HO1?2BIN?2conv@ 004ae33c     imageio.obj
 0002:0001f364       ??_C@_0CG@MPJCDIBM@C?3?2PROGRA?$HO1?2IMAGEM?$HO1?4?$CFu?9Q?2conve@ 004ae364     imageio.obj
 0002:0001f38c       ??_C@_0CE@DGFOKHAH@C?3?2PROGRA?$HO1?2IMAGEM?$HO1?4?$CFu?2convert@ 004ae38c     imageio.obj
 0002:0001f3b0       ??_C@_0DC@MHNGKGIL@C?3?2PROGRA?$HO1?2IMAGEM?$HO1?4?$CFu?9Q?2VISUA@ 004ae3b0     imageio.obj
 0002:0001f3e4       ??_C@_0DA@KIGFHBAF@C?3?2PROGRA?$HO1?2IMAGEM?$HO1?4?$CFu?2VISUA?$HO1@ 004ae3e4     imageio.obj
 0002:0001f414       ??_C@_0BN@NOCGOBAM@D?3?2IMAGEM?$HO1?4?$CFu?9Q?2convert?4exe@ 004ae414     imageio.obj
 0002:0001f434       ??_C@_0BL@DENNENLK@D?3?2IMAGEM?$HO1?4?$CFu?2convert?4exe@ 004ae434     imageio.obj
 0002:0001f450       ??_C@_0CJ@IDHKOADI@D?3?2IMAGEM?$HO1?4?$CFu?9Q?2VISUA?$HO1?2BIN?2co@ 004ae450     imageio.obj
 0002:0001f47c       ??_C@_0CH@KEHKEIKI@D?3?2IMAGEM?$HO1?4?$CFu?2VISUA?$HO1?2BIN?2conv@ 004ae47c     imageio.obj
 0002:0001f4a4       ??_C@_0CG@NJMKMFDA@D?3?2PROGRA?$HO1?2IMAGEM?$HO1?4?$CFu?9Q?2conve@ 004ae4a4     imageio.obj
 0002:0001f4cc       ??_C@_0CE@GKOOIEGO@D?3?2PROGRA?$HO1?2IMAGEM?$HO1?4?$CFu?2convert@ 004ae4cc     imageio.obj
 0002:0001f4f0       ??_C@_0DC@ONKDOHNO@D?3?2PROGRA?$HO1?2IMAGEM?$HO1?4?$CFu?9Q?2VISUA@ 004ae4f0     imageio.obj
 0002:0001f524       ??_C@_0DA@BIHAPHBB@D?3?2PROGRA?$HO1?2IMAGEM?$HO1?4?$CFu?2VISUA?$HO1@ 004ae524     imageio.obj
 0002:0001f554       ??_C@_0M@BHHDHLFO@convert?4exe@ 004ae554     imageio.obj
 0002:0001f560       ??_C@_0CD@KDFAFDPH@C?3?2PROGRA?$HO1?2XMedCon?2bin?2medcon?4@ 004ae560     imageio.obj
 0002:0001f584       ??_C@_0CD@KABJDOEM@D?3?2PROGRA?$HO1?2XMedCon?2bin?2medcon?4@ 004ae584     imageio.obj
 0002:0001f5a8       ??_C@_0L@MFIFMMMG@medcon?4bat@ 004ae5a8     imageio.obj
 0002:0001f5b4       ??_C@_04PBCBKGHJ@?1tmp@    004ae5b4     imageio.obj
 0002:0001f5bc       ??_C@_0O@MCLGOIG@C?3?2WINNT?2Temp@ 004ae5bc     imageio.obj
 0002:0001f5cc       ??_C@_0BA@OBBKBLLO@C?3?2WINDOWS?2Temp@ 004ae5cc     imageio.obj
 0002:0001f5dc       ??_C@_00CNPNBAHC@@         004ae5dc     imageio.obj
 0002:0001f5e0       ??_C@_02FHMLMLAN@C?3@      004ae5e0     imageio.obj
 0002:0001f5e4       ??_C@_0BA@INLKONMO@?$CFs?1CImg?$CF?44d?4ppm@ 004ae5e4     imageio.obj
 0002:0001f5f4       ??_C@_01NOFIACDB@w@        004ae5f4     imageio.obj
 0002:0001f5f8       ??_C@_0OP@CEAHBIII@cimg?3?3temporary_path?$CI?$CJ?5?3?5Unable@ 004ae5f8     imageio.obj
 0002:0001f6e8       ??_C@_0DE@BHMGPJNB@cimg?3?3fopen?$CI?$CJ?5?3?5Can?8t?5open?5file@ 004ae6e8     imageio.obj
 0002:0001f71c       ??_C@_0M@EGBOBOJO@for?5reading@ 004ae71c     imageio.obj
 0002:0001f728       ??_C@_0M@CADEKHFF@for?5writing@ 004ae728     imageio.obj
 0002:0001f734       ??_C@_0CO@NIPOMIKK@cimg?3?3fopen?$CI?$CJ?5?3?5File?5?8?$CFs?8?5canno@ 004ae734     imageio.obj
 0002:0001f764       ??_C@_0CJ@HOKJDNFD@cimg?3?3fclose?$CI?$CJ?5?3?5Can?8t?5close?5?$CIn@ 004ae764     imageio.obj
 0002:0001f790       ??_C@_0CO@MIIGAONH@cimg?3?3fclose?$CI?$CJ?5?3?5Error?5?$CFd?5durin@ 004ae790     imageio.obj
 0002:0001f7c0       ??_C@_02DPKJAMEF@?$CFd@    004ae7c0     imageio.obj
 0002:0001f7c8       ??_C@_0EE@GIAELHBA@CImgDisplay?3?3resize?$CI?$CJ?5?3?5Specifi@ 004ae7c8     imageio.obj
 0002:0001f80c       ??_C@_01CLKCMJKC@?5@       004ae80c     imageio.obj
 0002:0001f810       ??_C@_09JCBOJPAK@MDICLIENT@ 004ae810     imageio.obj
 0002:0001f820       ??_C@_0EF@MJMKILDN@CImg?$DM?$CFs?$DO?3?3save_convert?$CI?$CJ?5?3?5Inst@ 004ae820     imageio.obj
 0002:0001f868       ??_C@_0DJ@CBMJHKKH@CImg?$DM?$CFs?$DO?3?3save_convert?$CI?$CJ?5?3?5Spec@ 004ae868     imageio.obj
 0002:0001f8a4       ??_C@_02JDPG@rb@           004ae8a4     imageio.obj
 0002:0001f8a8       ??_C@_0BL@DHGFEDCN@?$CC?$CFs?$CC?5?9quality?5?$CFu?$CF?$CF?5?$CFs?5?$CC?$CFs?$CC@ 004ae8a8     imageio.obj
 0002:0001f8c8       ??_C@_0JE@ELMJFOMA@CImg?$DM?$CFs?$DO?3?3save_convert?$CI?$CJ?5?3?5Fail@ 004ae8c8     imageio.obj
 0002:0001f960       ??_C@_0EB@NNLBLHOH@CImg?$DM?$CFs?$DO?3?3save_pnm?$CI?$CJ?5?3?5Instance@ 004ae960     imageio.obj
 0002:0001f9a4       ??_C@_0DF@GHCMKIEE@CImg?$DM?$CFs?$DO?3?3save_pnm?$CI?$CJ?5?3?5Specifie@ 004ae9a4     imageio.obj
 0002:0001f9dc       ??_C@_03CIEPEIDA@pgm@      004ae9dc     imageio.obj
 0002:0001f9e0       ??_C@_02GMLFBBN@wb@        004ae9e0     imageio.obj
 0002:0001f9e4       ??_C@_0DK@NONFCMPL@P?$CFc?6?$CD?5CREATOR?3?5CImg?5?3?5Original?5@ 004ae9e4     imageio.obj
 0002:0001fa20       ??_C@_03EFEGFOOI@asc@      004aea20     imageio.obj
 0002:0001fa24       ??_C@_03PLGBGHBJ@dlm@      004aea24     imageio.obj
 0002:0001fa28       ??_C@_03MHNFGFDE@inr@      004aea28     imageio.obj
 0002:0001fa2c       ??_C@_03HCPOIHIH@hdr@      004aea2c     imageio.obj
 0002:0001fa30       ??_C@_03OBJIDKBM@par@      004aea30     imageio.obj
 0002:0001fa34       ??_C@_03BPEBHJFL@rec@      004aea34     imageio.obj
 0002:0001fa38       ??_C@_03HOPGHEB@pan@       004aea38     imageio.obj
 0002:0001fa3c       ??_C@_03CAKEDOOO@bmp@      004aea3c     imageio.obj
 0002:0001fa40       ??_C@_03NNHBJLDF@png@      004aea40     imageio.obj
 0002:0001fa44       ??_C@_03EOEHCLKG@tif@      004aea44     imageio.obj
 0002:0001fa48       ??_C@_04MFMINNH@tiff@      004aea48     imageio.obj
 0002:0001fa50       ??_C@_03PEGNKCLE@jpg@      004aea50     imageio.obj
 0002:0001fa54       ??_C@_04OFMADDDJ@jpeg@     004aea54     imageio.obj
 0002:0001fa5c       ??_C@_03DBCGPNMF@ppm@      004aea5c     imageio.obj
 0002:0001fa60       ??_C@_03CHJOHDLP@pnm@      004aea60     imageio.obj
 0002:0001fa64       ??_C@_04MLNCBIOF@cimg@     004aea64     imageio.obj
 0002:0001fa6c       ??_C@_03PADNCACE@dcm@      004aea6c     imageio.obj
 0002:0001fa70       ??_C@_05PDDBMHDG@dicom@    004aea70     imageio.obj
 0002:0001fa78       ??_C@_0N@MMBKEAML@CImg?$CF?44d?4hdr@ 004aea78     imageio.obj
 0002:0001fa88       ??_C@_0CA@CEBCIIKH@?$CC?$CFs?$CC?5?9w?5?9c?5anlz?5?9o?5?$CC?$CFs?$CC?5?9f?5?$CC?$CFs?$CC@ 004aea88     imageio.obj
 0002:0001faa8       ??_C@_0M@PMILHFFC@m000?9?$CFs?4hdr@ 004aeaa8     imageio.obj
 0002:0001fab8       ??_C@_0JB@DJGNIMMD@CImg?$DM?$CFs?$DO?3?3get_load_dicom?$CI?$CJ?5?3?5Fa@ 004aeab8     imageio.obj
 0002:0001fb4c       ??_C@_0M@HMFDMPKM@m000?9?$CFs?4img@ 004aeb4c     imageio.obj
 0002:0001fb58       ??_C@_0N@IHGFPPIM@?$CC?$CFs?$CC?5?$CC?$CFs?$CC?5?$CFs@ 004aeb58     imageio.obj
 0002:0001fb68       ??_C@_0JI@FPFFCBNJ@CImg?$DM?$CFs?$DO?3?3get_load_convert?$CI?$CJ?5?3?5@ 004aeb68     imageio.obj
 0002:0001fc00       ??_C@_03PCCGDNHJ@img@      004aec00     imageio.obj
 0002:0001fc04       ??_C@_04OLGJDOOD@?4hdr@    004aec04     imageio.obj
 0002:0001fc10       ??_C@_0EO@EHEMKIGP@CImg?$DM?$CFs?$DO?3?3get_load_analyze?$CI?$CJ?5?3?5@ 004aec10     imageio.obj
 0002:0001fc60       ??_C@_0EE@KFDOMCGJ@CImg?$DM?$CFs?$DO?3?3get_load_analyze?$CI?$CJ?5?3?5@ 004aec60     imageio.obj
 0002:0001fca8       ??_C@_0GE@OGDMNNAJ@CImg?$DM?$CFs?$DO?3?3get_load_analyze?$CI?$CJ?5?3?5@ 004aeca8     imageio.obj
 0002:0001fd10       ??_C@_0EI@PBPINBEI@CImg?$DM?$CFs?$DO?3?3get_load_analyze?$CI?$CJ?5?3?5@ 004aed10     imageio.obj
 0002:0001fd58       ??_C@_07JEOHDBPN@PANDORE@  004aed58     imageio.obj
 0002:0001fd60       ??_C@_0HE@EGKNJGIH@CImg?$DM?$CFs?$DO?3?3get_load_pandore?$CI?$CJ?5?3?5@ 004aed60     imageio.obj
 0002:0001fdd8       ??_C@_0EM@DPHAPKOI@CImg?$DM?$CFs?$DO?3?3get_load_pandore?$CI?$CJ?5?3?5@ 004aedd8     imageio.obj
 0002:0001fe28       ??_C@_0FK@NIEJJMIB@CImg?$DM?$CFs?$DO?3?3get_load_inr?$CI?$CJ?5?3?5File@ 004aee28     imageio.obj
 0002:0001fe88       ??_C@_0FA@NONKEGDL@CImg?$DM?$CFs?$DO?3?3get_load_bmp?$CI?$CJ?5?3?5file@ 004aee88     imageio.obj
 0002:0001fed8       ??_C@_09NCAHDJAN@?$CF1023?$FL?$FO?6?$FN@ 004aeed8     imageio.obj
 0002:0001fee4       ??_C@_04FPNPCBPM@?5P?$CFu@ 004aeee4     imageio.obj
 0002:0001feec       ??_C@_0DP@EOOMEDMP@CImg?$DM?$CFs?$DO?3?3get_load_pnm?$CI?$CJ?5?3?5file@ 004aeeec     imageio.obj
 0002:0001ff2c       ??_C@_0L@NMJGGPEA@?5?$CF1023?$FL?$FO?6?$FN@ 004aef2c     imageio.obj
 0002:0001ff38       ??_C@_09BKOMKIGB@?5?$CFu?5?$CFu?5?$CFu@ 004aef38     imageio.obj
 0002:0001ff48       ??_C@_0EC@EKKPKHJF@CImg?$DM?$CFs?$DO?3?3get_load_pnm?$CI?$CJ?5?3?5file@ 004aef48     imageio.obj
 0002:0001ff8c       ??_C@_0DK@NKCFJOBM@CImg?$DM?$CFs?$DO?3?3get_load_pnm?$CI?$CJ?5?3?5file@ 004aef8c     imageio.obj
 0002:0001ffc8       ??_C@_02GMHACPFF@?$CFu@    004aefc8     imageio.obj
 0002:0001ffcc       ??_C@_08OOHKHLPO@?$CFd?5?$CFd?5?$CFd@ 004aefcc     imageio.obj
 0002:0001ffd8       ??_C@_0ED@CLAPCKPL@CImg?$DM?$CFs?$DO?3?3get_load_pnm?$CI?$CJ?5?3?5file@ 004aefd8     imageio.obj
 0002:0002001c       ??_C@_0BD@NHILCMJC@?$CFlf?$CF255?$FL?$FO0?99?4eE?$CL?9?$FN@ 004af01c     imageio.obj
 0002:00020030       ??_C@_0L@LCOJEAHM@?$CF255?$FL?$FO?6?$FN?$CFc@ 004af030     imageio.obj
 0002:00020040       ??_C@_0GH@CIACHKIA@CImg?$DM?$CFs?$DO?3?3get_load_dlm?$CI?$CJ?5?3?5File@ 004af040     imageio.obj
 0002:000200a8       ??_C@_08NOAHEENC@?$CF255?$FL?$FO?6?$FN@ 004af0a8     imageio.obj
 0002:000200b4       ??_C@_0M@FMGEODLN@?$CFd?5?$CFd?5?$CFd?5?$CFd@ 004af0b4     imageio.obj
 0002:000200c0       ??_C@_0HM@LMMIPMMI@CImg?$DM?$CFs?$DO?3?3get_load_ascii?$CI?$CJ?5?3?5Fi@ 004af0c0     imageio.obj
 0002:0002013c       ??_C@_0BB@CLKJFGDC@?$CFlf?$CF?$CK?$FL?$FO0?99?4eE?$CL?9?$FN@ 004af13c     imageio.obj
 0002:00020150       ??_C@_0EL@MIBLOBKK@CImg?$DM?$CFs?$DO?3?3get_load_ascii?$CI?$CJ?5?3?5Fi@ 004af150     imageio.obj
 0002:000201a0       ??_C@_0EF@DAFDPGMG@CImg?$DM?$CFs?$DO?3?3get_append?$CI?$CJ?5?3?5unknow@ 004af1a0     imageio.obj
 0002:000201e8       ??_C@_06MNKLIBAI@?$CFs?4rec@ 004af1e8     imageio.obj
 0002:000201f0       ??_C@_03OMGDPHGA@PAR@      004af1f0     imageio.obj
 0002:000201f4       ??_C@_06MAFAEMHE@?$CFs?4REC@ 004af1f4     imageio.obj
 0002:000201fc       ??_C@_06DDHCMCEP@?$CFs?4par@ 004af1fc     imageio.obj
 0002:00020204       ??_C@_03BCLKLECH@REC@      004af204     imageio.obj
 0002:00020208       ??_C@_06DOIJAPDD@?$CFs?4PAR@ 004af208     imageio.obj
 0002:00020210       ??_C@_0M@GIJKFKHM@?$CF255?$FL?$FO?6?$FN?$CF?$CKc@ 004af210     imageio.obj
 0002:0002021c       ??_C@_0CK@NOFJIKCO@?$CFu?$CF?$CKu?$CF?$CKu?$CF?$CKu?$CF?$CKu?$CF?$CKu?$CF?$CKu?$CFu?$CF?$CKu?$CFu?$CFu?$CFg@ 004af21c     imageio.obj
 0002:00020248       ??_C@_0EK@FGCFIMIP@CImg?$DM?$CFs?$DO?3?3get_load_parrec?$CI?$CJ?5?3?5C@ 004af248     imageio.obj
 0002:00020298       ??_C@_0FH@HLBOMLJF@CImg?$DM?$CFs?$DO?3?3get_load_parrec?$CI?$CJ?5?3?5f@ 004af298     imageio.obj
 0002:000202f0       ??_C@_04MHIDHOBH@?$CF63s@  004af2f0     imageio.obj
 0002:000202f8       ??_C@_0O@JKHNEGNF@?$CDINRIMAGE?94?$CD?$HL@ 004af2f8     imageio.obj
 0002:00020308       ??_C@_0GK@OMEMALMN@CImg?$DM?$CFs?$DO?3?3get_load_inr?$CI?$CJ?5?3?5File@ 004af308     imageio.obj
 0002:00020374       ??_C@_0M@OPNJDOKN@?5?$CF63?$FL?$FO?6?$FN?$CF?$CKc@ 004af374     imageio.obj
 0002:00020380       ??_C@_0BA@CPKFKIJM@?5XDIM?$CF?$CK?$FL?$FO0?99?$FN?$CFd@ 004af380     imageio.obj
 0002:00020390       ??_C@_0BA@JGFOHDHE@?5YDIM?$CF?$CK?$FL?$FO0?99?$FN?$CFd@ 004af390     imageio.obj
 0002:000203a0       ??_C@_0BA@IHCDBJAN@?5ZDIM?$CF?$CK?$FL?$FO0?99?$FN?$CFd@ 004af3a0     imageio.obj
 0002:000203b0       ??_C@_0BA@MCNGLAOJ@?5VDIM?$CF?$CK?$FL?$FO0?99?$FN?$CFd@ 004af3b0     imageio.obj
 0002:000203c0       ??_C@_0BD@FNPGNHPK@?5PIXSIZE?$CF?$CK?$FL?$FO0?99?$FN?$CFd@ 004af3c0     imageio.obj
 0002:000203d4       ??_C@_0BD@EFGFDMDP@?5VX?$CF?$CK?$FL?$FO0?99?4eE?$CL?9?$FN?$CFf@ 004af3d4     imageio.obj
 0002:000203e8       ??_C@_0BD@MCMDPHHM@?5VY?$CF?$CK?$FL?$FO0?99?4eE?$CL?9?$FN?$CFf@ 004af3e8     imageio.obj
 0002:000203fc       ??_C@_0BD@JBFJKMPI@?5VZ?$CF?$CK?$FL?$FO0?99?4eE?$CL?9?$FN?$CFf@ 004af3fc     imageio.obj
 0002:00020410       ??_C@_0N@PPGHADNP@?5CPU?$CF?$CK?$FL?5?$DN?$FN?$CFs@ 004af410     imageio.obj
 0002:00020420       ??_C@_03OHFMDAD@sun@       004af420     imageio.obj
 0002:00020424       ??_C@_0BB@HDECOHMF@?5TYPE?$CF?$CK?$FL?5?$DN?$FN?$CFs?5?$CFs@ 004af424     imageio.obj
 0002:00020438       ??_C@_08CLLOMHGD@unsigned@ 004af438     imageio.obj
 0002:00020444       ??_C@_05OFLEIIDM@fixed@    004af444     imageio.obj
 0002:0002044c       ??_C@_06DAGLPGKC@packed@   004af44c     imageio.obj
 0002:00020454       ??_C@_0CM@JKJMFACG@cimg?3?3inr_header_read?$CI?$CJ?5?3?5Inval@ 004af454     imageio.obj
 0002:00020480       ??_C@_0EP@MIGIDJJP@CImg?$DM?$CFs?$DO?3?3get_load_inr?$CI?$CJ?5?3?5Bad?5@ 004af480     imageio.obj
 0002:000204d0       ??_C@_0DF@KCGIPHKE@CImg?$DM?$CFs?$DO?3?3get_load_inr?$CI?$CJ?5?3?5TYPE@ 004af4d0     imageio.obj
 0002:00020508       ??_C@_0DI@ECKNFCKI@CImg?$DM?$CFs?$DO?3?3get_load_inr?$CI?$CJ?5?3?5PIXS@ 004af508     imageio.obj
 0002:00020540       ??_C@_0EI@GALHJMEF@CImg?$DM?$CFs?$DO?3?3get_load_inr?$CI?$CJ?5?3?5Big?1@ 004af540     imageio.obj
 0002:00020588       ??_C@_0EB@JPCDMIDN@CImg?$DM?$CFs?$DO?3?3mirror?$CI?$CJ?5?3?5unknow?5axe@ 004af588     imageio.obj
 0002:000205d0       ??_C@_0GC@NILNHHNI@CImg?$DM?$CFs?$DO?3?3assign?$CI?$CJ?5?3?5Cannot?5ass@ 004af5d0     imageio.obj
 0002:00020638       ??_C@_0EL@NABKHCFF@CImg?$DM?$CFs?$DO?3?3draw_image?$CI?$CJ?5?3?5Specif@ 004af638     imageio.obj
 0002:00020688       ??_C@_0EP@LHPLLHBC@CImgl?$DM?$CFs?$DO?3?3insert?$CI?$CJ?5?3?5Can?8t?5ins@ 004af688     imageio.obj
 0002:000206d8       ??_C@_0BD@CFBEFJHJ@?$CFu?$CF?$CKc?$CF255?$FLA?9Za?9z?5?$FN@ 004af6d8     imageio.obj
 0002:000206ec       ??_C@_0DP@MMCMOJIN@CImgl?$DM?$CFs?$DO?3?3get_load_cimg?$CI?$CJ?5?3?5fi@ 004af6ec     imageio.obj
 0002:0002072c       ??_C@_0M@INFEFECB@?$CFu?5?$CFu?5?$CFu?5?$CFu@ 004af72c     imageio.obj
 0002:00020738       ??_C@_05GBMOKKDM@uchar@    004af738     imageio.obj
 0002:00020740       ??_C@_06IHFEHLHH@ushort@   004af740     imageio.obj
 0002:00020748       ??_C@_04EHNLIFAM@uint@     004af748     imageio.obj
 0002:00020750       ??_C@_05ECKAKEHN@ulong@    004af750     imageio.obj
 0002:00020758       ??_C@_0EA@KJEOGNEO@CImgl?$DM?$CFs?$DO?3?3get_load_cimg?$CI?$CJ?5?3?5fi@ 004af758     imageio.obj
 0002:00020798       ??_C@_0EJ@MEDGHJE@cimg?3?3dialog?$CI?$CJ?5?3?5No?5buttons?5hav@ 004af798     imageio.obj
 0002:000207e8       ??_C@_0FB@DEKBNDNK@cimg?3?3fwrite?$CI?$CJ?5?3?5Can?8t?5write?5?$CFu@ 004af7e8     imageio.obj
 0002:00020840       ??_C@_0EE@PIJPKEKO@cimg?3?3fwrite?$CI?$CJ?5?3?5File?5writing?5p@ 004af840     imageio.obj
 0002:00020888       ??_C@_0EN@GJDDEJNF@cimg?3?3fread?$CI?$CJ?5?3?5Can?8t?5read?5?$CFu?5x@ 004af888     imageio.obj
 0002:000208d8       ??_C@_0EA@EOEOLOIN@cimg?3?3fread?$CI?$CJ?5?3?5File?5reading?5pr@ 004af8d8     imageio.obj
 0002:00020918       ??_C@_0DC@OLELLILK@CImg?$DM?$CFs?$DO?3?3draw_line?$CI?$CJ?5?3?5Specifi@ 004af918     imageio.obj
 0002:0002094c       ??_C@_0DF@FNOHKMFL@CImg?$DM?$CFs?$DO?3?3draw_rectangle?5?3?5spec@ 004af94c     imageio.obj
 0002:00020988       ??_C@_0EB@DNNLFFJA@CImg?$DM?$CFs?$DO?3?3get_crop?$CI?$CJ?5?3?5Instance@ 004af988     imageio.obj
 0002:000209d0       ??_C@_0EK@OKKIGFCD@CImgStats?3?3CImgStats?$CI?$CJ?5?3?5Specif@ 004af9d0     imageio.obj
 0002:00020a1c       ??_C@_0DK@JIGOICMJ@CImg?$DM?$CFs?$DO?3?3draw_text?$CI?$CJ?5?3?5Specifi@ 004afa1c     imageio.obj
 0002:00020a58       ??_C@_0DJ@CLJEHJFH@CImg?$DM?$CFs?$DO?3?3draw_text?$CI?$CJ?5?3?5Specifi@ 004afa58     imageio.obj
 0002:00020a98       ??_C@_0HO@GFPCDKNH@CImg?$DM?$CFs?$DO?3?3get_shared_channels?$CI?$CJ@ 004afa98     imageio.obj
 0002:00020b18       ??_C@_0EO@KBONPFAD@CImgDisplay?3?3CImgDisplay?$CI?$CJ?5?3?5Sp@ 004afb18     imageio.obj
 0002:00020b68       ??_C@_0FA@KOIEAEAJ@CImgDisplay?3?3_render_image?$CI?$CJ?5?3?5@ 004afb68     imageio.obj
 0002:00020bb8       ??_C@_0EJ@MEDFIJIB@CImg?$DM?$CFs?$DO?3?3draw_image?$CI?$CJ?5?3?5Specif@ 004afbb8     imageio.obj
 0002:00020c08       ??_C@_0FI@OLAEAJEG@CImg?$DM?$CFs?$DO?3?3draw_image?$CI?$CJ?5?3?5Mask?5d@ 004afc08     imageio.obj
 0002:00020c60       __real@00000000            004afc60     imageio.obj
 0002:00020c64       __real@40000000            004afc64     imageio.obj
 0002:00020c68       __real@4070000000000000    004afc68     imageio.obj
 0002:00020c70       __real@40800000            004afc70     imageio.obj
 0002:00020c74       __real@40c00000            004afc74     imageio.obj
 0002:00020c80       __xmm@41f00000000000000000000000000000 004afc80     imageio.obj
 0002:00020c90       __xmm@7fffffffffffffff7fffffffffffffff 004afc90     imageio.obj
 0002:00020ca0       __real@0000000000000000    004afca0     camera.obj
 0002:00020ca8       __real@404ca5dc1a63bfe5    004afca8     camera.obj
 0002:00020cb0       __real@bff0000000000000    004afcb0     camera.obj
 0002:00020cc0       __xmm@00000000000000003ff0000000000000 004afcc0     camera.obj
 0002:00020cd0       __real@3ee4f8b588e368f1    004afcd0     light.obj
 0002:00020cd8       ??_C@_0CO@BNPMHIMK@Debugging?5the?5Phong?5code?5?$CIor?5la@ 004afcd8     material.obj
 0002:00020d08       ??_C@_0BN@KGHMEIMA@Unable?5to?5load?5texture?5map?5?8@ 004afd08     material.obj
 0002:00020d28       __real@3fbd2f1a9fbe76c9    004afd28     material.obj
 0002:00020d30       __real@3fd322d0e5604189    004afd30     material.obj
 0002:00020d38       __real@3fe2c8b439581062    004afd38     material.obj
 0002:00020d40       __xmm@406fe00000000000406fe00000000000 004afd40     material.obj
 0002:00020d58       ??_7Material@@6B@          004afd58     scene.obj
 0002:00020d60       ??_7Scene@@6B@             004afd60     scene.obj
 0002:00020d68       __real@7fe1ccf385ebc8a0    004afd68     scene.obj
 0002:00020d70       __real@ffe1ccf385ebc8a0    004afd70     scene.obj
 0002:00020d78       __real@54b249ad2594c37d    004afd78     Box.obj
 0002:00020d80       __real@4010000000000000    004afd80     Cone.obj
 0002:00020d88       __real@c000000000000000    004afd88     Cone.obj
 0002:00020d90       __real@8000000000000000    004afd90     Cylinder.obj
 0002:00020da0       __xmm@3fe00000000000003fe0000000000000 004afda0     Sphere.obj
 0002:00020db4       ??_7SceneElement@@6B@      004afdb4     trimesh.obj
 0002:00020dc0       ??_7Geometry@@6B@          004afdc0     trimesh.obj
 0002:00020de0       ??_7SceneObject@@6B@       004afde0     trimesh.obj
 0002:00020e08       ??_7MaterialSceneObject@@6B@ 004afe08     trimesh.obj
 0002:00020e30       ??_7Trimesh@@6B@           004afe30     trimesh.obj
 0002:00020e58       ??_7TrimeshFace@@6B@       004afe58     trimesh.obj
 0002:00020e7c       ??_C@_0CI@DJLMOCOM@Bad?5Trimesh?3?5Wrong?5number?5of?5ma@ 004afe7c     trimesh.obj
 0002:00020ea4       ??_C@_0CG@CGLEALMC@Bad?5Trimesh?3?5Wrong?5number?5of?5no@ 004afea4     trimesh.obj
 0002:00020ed0       ??_7Light@@6B@             004afed0     Parser.obj
 0002:00020ef4       ??_7DirectionalLight@@6B@  004afef4     Parser.obj
 0002:00020f18       ??_7PointLight@@6B@        004aff18     Parser.obj
 0002:00020f3c       ??_7Box@@6B@               004aff3c     Parser.obj
 0002:00020f64       ??_7Cone@@6B@              004aff64     Parser.obj
 0002:00020f8c       ??_7Cylinder@@6B@          004aff8c     Parser.obj
 0002:00020fb4       ??_7Sphere@@6B@            004affb4     Parser.obj
 0002:00020fdc       ??_7Square@@6B@            004affdc     Parser.obj
 0002:00021004       ??_7?$basic_stringbuf@DU?$char_traits@D@std@@V?$allocator@D@2@@std@@6B@ 004b0004     Parser.obj
 0002:00021044       ??_7?$basic_ostringstream@DU?$char_traits@D@std@@V?$allocator@D@2@@std@@6B@ 004b0044     Parser.obj
 0002:00021048       ??_8?$basic_ostringstream@DU?$char_traits@D@std@@V?$allocator@D@2@@std@@7B@ 004b0048     Parser.obj
 0002:00021050       ??_C@_0CP@CKFOIMOD@?5too?5high?$DL?5only?5able?5to?5parser?5@ 004b0050     Parser.obj
 0002:00021080       ??_C@_0BO@OMKHDCNH@SBT?9raytracer?5version?5number?5@ 004b0080     Parser.obj
 0002:000210a0       ??_C@_0DB@BJAPDIEH@Expected?3?5geometry?0?5camera?0?5or?5@ 004b00a0     Parser.obj
 0002:000210d4       ??_C@_0DA@GGEKGFNG@Expected?3?5cannot?5look?5at?5positi@ 004b00d4     Parser.obj
 0002:00021104       ??_C@_0BC@CMCIMEOE@Expected?3?5?8updir?8@ 004b0104     Parser.obj
 0002:00021118       ??_C@_0BE@HKBCCBIE@Expected?3?5?8viewdir?8@ 004b0118     Parser.obj
 0002:0002112c       ??_C@_0BL@DGFPPCPN@Expected?3?5camera?5attribute@ 004b012c     Parser.obj
 0002:00021148       ??_C@_0CA@BCADNCCM@Expected?3?5transformable?5element@ 004b0148     Parser.obj
 0002:00021168       ??_C@_0BK@FIAGOOGO@Expected?3?5?8?$HN?8?5or?5geometry@ 004b0168     Parser.obj
 0002:00021184       ??_C@_0BM@BHJHMHDM@Unrecognized?5geometry?5type?4@ 004b0184     Parser.obj
 0002:000211a0       ??_C@_0BM@MDJMECMA@Expected?3?5sphere?5attributes@ 004b01a0     Parser.obj
 0002:000211bc       ??_C@_0BJ@JEFIHALH@Expected?3?5box?5attributes@ 004b01bc     Parser.obj
 0002:000211d8       ??_C@_0BM@CBCLJACH@Expected?3?5square?5attributes@ 004b01d8     Parser.obj
 0002:000211f4       ??_C@_0BO@MJAKKOLO@Expected?3?5cylinder?5attributes@ 004b01f4     Parser.obj
 0002:00021214       ??_C@_0BK@DGCPPHCJ@Expected?3?5cone?5attributes@ 004b0214     Parser.obj
 0002:00021230       ??_C@_02KEGNLNML@?0?5@     004b0230     Parser.obj
 0002:00021234       ??_C@_0BH@IAIHCODE@Bad?5face?5in?5trimesh?3?5?$CI@ 004b0234     Parser.obj
 0002:0002124c       ??_C@_0BN@HFGBACPK@Expected?3?5trimesh?5attributes@ 004b024c     Parser.obj
 0002:0002126c       ??_C@_0CF@GEDICGEO@Faces?5must?5have?5at?5least?53?5vert@ 004b026c     Parser.obj
 0002:00021294       ??_C@_0BJ@FLPIKKMJ@Expected?5color?5attribute@ 004b0294     Parser.obj
 0002:000212b0       ??_C@_0BO@FJGFLJLJ@Repeated?5?8position?8?5attribute@ 004b02b0     Parser.obj
 0002:000212d0       ??_C@_0BL@HOPDEFJI@Repeated?5?8color?8?5attribute@ 004b02d0     Parser.obj
 0002:000212ec       ??_C@_0BC@MPLNMJED@Expected?3?5?8color?8@ 004b02ec     Parser.obj
 0002:00021300       ??_C@_0BF@BNLFAKBJ@Expected?3?5?8position?8@ 004b0300     Parser.obj
 0002:00021318       ??_C@_0IJ@GJFBILEP@expecting?5?8position?8?5or?5?8color?8@ 004b0318     Parser.obj
 0002:000213a4       ??_C@_0BP@PNDIAFFJ@Repeated?5?8direction?8?5attribute@ 004b03a4     Parser.obj
 0002:000213c4       ??_C@_0CK@KJALOKIM@expecting?5?8position?8?5or?5?8color?8@ 004b03c4     Parser.obj
 0002:000213f0       ??_C@_0BB@CGGHNMEK@Expected?5boolean@ 004b03f0     Parser.obj
 0002:00021404       ??_C@_0BL@NGDMLMNK@Redefinition?5of?5material?5?8@ 004b0404     Parser.obj
 0002:00021420       ??_C@_0BN@KHJDOLNI@Expected?3?5material?5attribute@ 004b0420     Parser.obj
 0002:00021440       ??_C@_01KMDKNFGN@?1@       004b0440     Parser.obj
 0002:00021444       ??_C@_0BB@MOGOBHAF@list?$DMT?$DO?5too?5long@ 004b0444     Parser.obj
 0002:00021458       __real@3f1a36e2eb1c432d    004b0458     Parser.obj
 0002:00021460       __real@3f50624dd2f1a9fc    004b0460     Parser.obj
 0002:00021468       __real@3ff199999999999a    004b0468     Parser.obj
 0002:00021470       __real@bee4f8b588e368f1    004b0470     Parser.obj
 0002:00021480       __xmm@bff0000000000000bff0000000000000 004b0480     Parser.obj
 0002:00021490       ??_C@_02KNHHEEKP@?5?5@     004b0490     ParserException.obj
 0002:00021494       ??_C@_01JKBOJNNK@?$FO@     004b0494     ParserException.obj
 0002:00021498       ??_C@_0BB@JPLPJABL@?3?5syntax?5error?3?5@ 004b0498     ParserException.obj
 0002:000214ac       ??_C@_05KCOECMCO@Line?5@   004b04ac     ParserException.obj
 0002:000214b4       ??_C@_05LAPONLG@false@     004b04b4     Token.obj
 0002:000214bc       ??_C@_04LOAJBDKD@true@     004b04bc     Token.obj
 0002:000214c4       ??_C@_02LMMGGCAJ@?3?5@     004b04c4     Token.obj
 0002:000214c8       ??_C@_03KPJEKKJC@EOF@      004b04c8     Token.obj
 0002:000214cc       ??_C@_0O@FACIOJJJ@SBT?9raytracer@ 004b04cc     Token.obj
 0002:000214dc       ??_C@_0L@GHBDJGA@Identifier@ 004b04dc     Token.obj
 0002:000214e8       ??_C@_06HPHAACHK@Scalar@   004b04e8     Token.obj
 0002:000214f0       ??_C@_0L@GMBOCABO@Left?5paren@ 004b04f0     Token.obj
 0002:000214fc       ??_C@_0M@JHPALLDE@Right?5paren@ 004b04fc     Token.obj
 0002:00021508       ??_C@_0L@KAJFDDNE@Left?5brace@ 004b0508     Token.obj
 0002:00021514       ??_C@_0M@FLHLKIPO@Right?5brace@ 004b0514     Token.obj
 0002:00021520       ??_C@_05CJDGOLEJ@Comma@    004b0520     Token.obj
 0002:00021528       ??_C@_06EDKJEDJD@Equals@   004b0528     Token.obj
 0002:00021530       ??_C@_09FBGFMNJC@Semicolon@ 004b0530     Token.obj
 0002:0002153c       ??_C@_06FNKMPIBD@camera@   004b053c     Token.obj
 0002:00021544       ??_C@_0O@IHCDKIJG@ambient_light@ 004b0544     Token.obj
 0002:00021554       ??_C@_0M@GHOKJKOP@point_light@ 004b0554     Token.obj
 0002:00021560       ??_C@_0BC@CFBAKHOB@directional_light@ 004b0560     Token.obj
 0002:00021574       ??_C@_0BL@GCHPFKFA@constant_attenuation_coeff@ 004b0574     Token.obj
 0002:00021590       ??_C@_0BJ@GGAAGJLB@linear_attenuation_coeff@ 004b0590     Token.obj
 0002:000215ac       ??_C@_0BM@BMILJKBB@quadratic_attenuation_coeff@ 004b05ac     Token.obj
 0002:000215c8       ??_C@_06FOHEPPJH@sphere@   004b05c8     Token.obj
 0002:000215d0       ??_C@_03OLPJGAII@box@      004b05d0     Token.obj
 0002:000215d4       ??_C@_06ICDKOIFG@square@   004b05d4     Token.obj
 0002:000215dc       ??_C@_08GNLJBPEP@cylinder@ 004b05dc     Token.obj
 0002:000215e8       ??_C@_04NOMJJLOC@cone@     004b05e8     Token.obj
 0002:000215f0       ??_C@_07HAACKDAH@trimesh@  004b05f0     Token.obj
 0002:000215f8       ??_C@_08OAGMDKAF@position@ 004b05f8     Token.obj
 0002:00021604       ??_C@_07BDEMJIAO@viewdir@  004b0604     Token.obj
 0002:0002160c       ??_C@_05CELKJGO@updir@     004b060c     Token.obj
 0002:00021614       ??_C@_0M@FFGFHNCN@aspectratio@ 004b0614     Token.obj
 0002:00021620       ??_C@_05PEENBMOG@color@    004b0620     Token.obj
 0002:00021628       ??_C@_09HPKLLIJF@direction@ 004b0628     Token.obj
 0002:00021634       ??_C@_06MGAFENDN@capped@   004b0634     Token.obj
 0002:0002163c       ??_C@_06LNLHEAAG@height@   004b063c     Token.obj
 0002:00021644       ??_C@_0O@MGOOHFDO@bottom_radius@ 004b0644     Token.obj
 0002:00021654       ??_C@_0L@ECCBOGFH@top_radius@ 004b0654     Token.obj
 0002:00021660       ??_C@_0L@JFJFNOGC@quaternian@ 004b0660     Token.obj
 0002:0002166c       ??_C@_06GPGIDCJA@points@   004b066c     Token.obj
 0002:00021674       ??_C@_07MDEPDJDC@normals@  004b0674     Token.obj
 0002:0002167c       ??_C@_09JGGNEAGH@materials@ 004b067c     Token.obj
 0002:00021688       ??_C@_05FHFPJHPF@faces@    004b0688     Token.obj
 0002:00021690       ??_C@_09ODNGOEIO@translate@ 004b0690     Token.obj
 0002:0002169c       ??_C@_05MHMEBBGO@scale@    004b069c     Token.obj
 0002:000216a4       ??_C@_06CEHMNFAL@rotate@   004b06a4     Token.obj
 0002:000216ac       ??_C@_09IFONHNKG@transform@ 004b06ac     Token.obj
 0002:000216b8       ??_C@_08KNOEMJMM@material@ 004b06b8     Token.obj
 0002:000216c4       ??_C@_08GHNOEFBP@emissive@ 004b06c4     Token.obj
 0002:000216d0       ??_C@_07LIABELBC@ambient@  004b06d0     Token.obj
 0002:000216d8       ??_C@_08DPLIAGAA@specular@ 004b06d8     Token.obj
 0002:000216e4       ??_C@_0L@PIKBEMPP@reflective@ 004b06e4     Token.obj
 0002:000216f0       ??_C@_07KFBPAAO@diffuse@   004b06f0     Token.obj
 0002:000216f8       ??_C@_0N@LNDBFIIK@transmissive@ 004b06f8     Token.obj
 0002:00021708       ??_C@_09KFDJGKDF@shininess@ 004b0708     Token.obj
 0002:00021714       ??_C@_05FKHKFDID@index@    004b0714     Token.obj
 0002:0002171c       ??_C@_04MEMAJGDJ@name@     004b071c     Token.obj
 0002:00021724       ??_C@_03HBNNNHNM@map@      004b0724     Token.obj
 0002:00021728       ??_C@_07OGAPFAKM@look_at@  004b0728     Token.obj
 0002:00021730       ??_C@_0BD@LDFMLPAL@Unknown?5token?5type@ 004b0730     Token.obj
 0002:00021744       ??_C@_06FBNLAHKA@colour@   004b0744     Token.obj
 0002:0002174c       ??_C@_03PKBINKFB@fov@      004b074c     Token.obj
 0002:00021750       ??_C@_0L@BHGKEBAO@gennormals@ 004b0750     Token.obj
 0002:0002175c       ??_C@_08BGGMGDGA@polymesh@ 004b075c     Token.obj
 0002:00021768       ??_C@_01BJJEKLCA@?$CC@     004b0768     Token.obj
 0002:0002176c       ??_C@_03NONCDIOG@?3?5?$CC@ 004b076c     Token.obj
 0002:00021774       ??_7Token@@6B@             004b0774     Tokenizer.obj
 0002:0002178c       ??_C@_0BC@MGICLIFO@not?5an?5IdentToken@ 004b078c     Tokenizer.obj
 0002:000217a0       ??_C@_0BC@EGHEPLJL@not?5a?5ScalarToken@ 004b07a0     Tokenizer.obj
 0002:000217b8       ??_7IdentToken@@6B@        004b07b8     Tokenizer.obj
 0002:000217d4       ??_7ScalarToken@@6B@       004b07d4     Tokenizer.obj
 0002:000217ec       ??_C@_0BD@PDPOCNJP@didn?8t?5get?5a?5token@ 004b07ec     Tokenizer.obj
 0002:00021800       ??_C@_0N@MFDCNEGN@Token?5read?3?5@ 004b0800     Tokenizer.obj
 0002:00021810       ??_C@_0BO@BKBDIIJJ@Unterminated?5comment?5in?5line?5@ 004b0810     Tokenizer.obj
 0002:00021830       ??_C@_0BI@GOKDKLJF@unexpected?5character?3?5?8@ 004b0830     Tokenizer.obj
 0002:00021848       ??_C@_0BN@KJKLAGOG@Unterminated?5string?5constant@ 004b0848     Tokenizer.obj
 0002:00021868       ??_C@_0CE@FCMDIHFN@trying?5to?5UnGet?5more?5than?5one?5t@ 004b0868     Tokenizer.obj
 0002:0002188c       ??_C@_0M@FLAGGKJE@?5expected?0?5@ 004b088c     Tokenizer.obj
 0002:00021898       ??_C@_0BA@BOIFONKB@?5found?5instead?$CB@ 004b0898     Tokenizer.obj
 0002:000218ac       ??_7TraceGLWindow@@6B@     004b08ac     TraceGLWindow.obj
 0002:000218cc       ??_C@_0BA@GODACDEP@Tracing?5ray?5at?5@ 004b08cc     TraceGLWindow.obj
 0002:00021a20       __real@3ff02d0e56041893    004b0a20     fltk:Fl.obj
 0002:00021a28       __real@4415af1d78b58c40    004b0a28     fltk:Fl.obj
 0002:00021a34       ??_7Fl_Window@@6B@         004b0a34     fltk:Fl.obj
 0002:00021a50       __real@40c3880000000000    004b0a50     fltk:Fl.obj
 0002:00021a5c       ??_7Fl_Widget@@6B@         004b0a5c     fltk:Fl_Widget.obj
 0002:00021a70       ??_7Fl_Group@@6B@          004b0a70     fltk:Fl_Group.obj
 0002:00021a9c       ??_7Fl_Menu_@@6B@          004b0a9c     fltk:Fl_Menu_.obj
 0002:00021ae4       ??_7Fl_Return_Button@@6B@  004b0ae4     fltk:fl_ask.obj
 0002:00021af8       ??_7Fl_Box@@6B@            004b0af8     fltk:fl_ask.obj
 0002:00021b28       ??_7Fl_Valuator@@6B@       004b0b28     fltk:Fl_Valuator.obj
 0002:00021b44       ??_7Fl_Value_Slider@@6B@   004b0b44     fltk:Fl_Value_Slider.obj
 0002:00021b60       ??_7Fl_Button@@6B@         004b0b60     fltk:Fl_Button.obj
 0002:00021b74       ??_7Fl_Check_Button@@6B@   004b0b74     fltk:Fl_Check_Button.obj
 0002:00021b98       __real@4004000000000000    004b0b98     fltk:Fl_Input_.obj
 0002:00021ba0       __real@400c000000000000    004b0ba0     fltk:Fl_Input_.obj
 0002:00021ba8       __real@4008000000000000    004b0ba8     fltk:Fl_Input_.obj
 0002:00021bb0       __real@4000000000000000    004b0bb0     fltk:Fl_Input_.obj
 0002:00021bbc       ??_7Fl_Input_@@6B@         004b0bbc     fltk:Fl_Input_.obj
 0002:00021bdc       ??_7Fl_Input@@6B@          004b0bdc     fltk:Fl_Input.obj
 0002:00021c70       ??_7Fl_Tile@@6B@           004b0c70     fltk:Fl_File_Chooser.obj
 0002:00021c84       ??_7Fl_Double_Window@@6B@  004b0c84     fltk:Fl_File_Chooser.obj
 0002:00021ca4       ??_7Fl_Bitmap@@6B@         004b0ca4     fltk:Fl_File_Chooser.obj
 0002:00021cc8       ??_7Fl_Image@@6B@          004b0cc8     fltk:Fl_File_Chooser.obj
 0002:00021f1c       ??_7Fl_Text_Display@@6B@   004b0f1c     fltk:Fl_Text_Display.obj
 0002:00021f2c       __real@3f19999a            004b0f2c     fltk:Fl_Text_Display.obj
 0002:00021f30       __real@3f000000            004b0f30     fltk:Fl_Text_Display.obj
 0002:00021f34       __real@3ecccccd            004b0f34     fltk:Fl_Text_Display.obj
 0002:00021f38       __real@3fb999999999999a    004b0f38     fltk:Fl_Text_Display.obj
 0002:00021f40       __real@3f847ae147ae147b    004b0f40     fltk:Fl_Text_Display.obj
 0002:00022054       ??_7Fl_TooltipBox@@6B@     004b1054     fltk:Fl_Tooltip.obj
 0002:00022074       ??_7Fl_Menu_Window@@6B@    004b1074     fltk:Fl_Tooltip.obj
 0002:00022094       ??_7Fl_Single_Window@@6B@  004b1094     fltk:Fl_Tooltip.obj
 0002:00022154       ??_7FLDropSource@@6B@      004b1154     fltk:fl_dnd.obj
 0002:0002216c       ??_7FLDataObject@@6B@      004b116c     fltk:fl_dnd.obj
 0002:000221a0       ??_7FLDropTarget@@6B@      004b11a0     fltk:fl_dnd.obj
 0002:000221bc       __real@3ea8f5c3            004b11bc     fltk:fl_color.obj
 0002:00023458       __real@4037000000000000    004b2458     fltk:Fl_get_system_colors.obj
 0002:00023460       __real@3fe7a6f4de9bd37a    004b2460     fltk:Fl_get_system_colors.obj
 0002:0002346c       ??_7Fl_Pixmap@@6B@         004b246c     fltk:Fl_get_system_colors.obj
 0002:000235c0       __real@404e000000000000    004b25c0     fltk:Fl_Menu.obj
 0002:000235c8       __real@4066800000000000    004b25c8     fltk:Fl_Menu.obj
 0002:000235d0       __real@3e4ccccd            004b25d0     fltk:Fl_Menu.obj
 0002:000235d8       __real@4076800000000000    004b25d8     fltk:Fl_Menu.obj
 0002:000235e4       ??_7menutitle@@6B@         004b25e4     fltk:Fl_Menu.obj
 0002:00023604       ??_7menuwindow@@6B@        004b2604     fltk:Fl_Menu.obj
 0002:00023764       ??_7Fl_Slider@@6B@         004b2764     fltk:Fl_Slider.obj
 0002:0002377c       __real@3f2b851f            004b277c     fltk:Fl_Slider.obj
 0002:000237a4       ??_7Fl_Light_Button@@6B@   004b27a4     fltk:Fl_Light_Button.obj
 0002:000237bc       ??_7Fl_Browser_@@6B@       004b27bc     fltk:Fl_Browser_.obj
 0002:00023800       ??_7Fl_File_Input@@6B@     004b2800     fltk:Fl_File_Input.obj
 0002:000239c8       __real@4020000000000000    004b29c8     fltk:Fl_File_Browser.obj
 0002:000239d0       __real@3fe3333333333333    004b29d0     fltk:Fl_File_Browser.obj
 0002:000239dc       ??_7Fl_File_Browser@@6B@   004b29dc     fltk:Fl_File_Browser.obj
 0002:00023a24       ??_7Fl_Browser@@6B@        004b2a24     fltk:Fl_File_Browser.obj
 0002:00023a68       ??_7Fl_Menu_Button@@6B@    004b2a68     fltk:Fl_Menu_Button.obj
 0002:00023a84       ??_7Fl_Choice@@6B@         004b2a84     fltk:Fl_Choice.obj
 0002:00023ab0       ??_7Fl_RGB_Image@@6B@      004b2ab0     fltk:Fl_Image.obj
 0002:00023b0c       ??_7Fl_Shared_Image@@6B@   004b2b0c     fltk:Fl_Shared_Image.obj
 0002:00023b40       __real@3fa999999999999a    004b2b40     fltk:Fl_Scrollbar.obj
 0002:00023b4c       ??_7Fl_Scrollbar@@6B@      004b2b4c     fltk:Fl_Scrollbar.obj
 0002:00023d90       __real@4079500000000000    004b2d90     fltk:fl_round_box.obj
 0002:00023d98       __real@406c200000000000    004b2d98     fltk:fl_round_box.obj
 0002:00023da0       __real@4046800000000000    004b2da0     fltk:fl_round_box.obj
 0002:00023da8       __real@3dcccccd            004b2da8     fltk:fl_gtk.obj
 0002:00023dac       __real@3d4ccccd            004b2dac     fltk:fl_gtk.obj
 0002:00023db0       __real@3ccccccd            004b2db0     fltk:fl_gtk.obj
 0002:00023e30       __real@3f400000            004b2e30     fltk:fl_plastic.obj
 0002:00023e38       __real@4070e00000000000    004b2e38     fltk:fl_plastic.obj
 0002:00023e40       __real@4073b00000000000    004b2e40     fltk:fl_plastic.obj
 0002:00023e48       __real@4060e00000000000    004b2e48     fltk:fl_plastic.obj
 0002:00023e54       ??_7Fl_Tiled_Image@@6B@    004b2e54     fltk:Fl_Tiled_Image.obj
 0002:00023f10       __real@400921fb54442d18    004b2f10     fltk:fl_arci.obj
 0002:00024018       __real@3fc3333333333333    004b3018     fltk:fl_symbols.obj
 0002:00024020       __real@3ff6e147ae147ae1    004b3020     fltk:fl_symbols.obj
 0002:00024028       __real@3ffb333333333333    004b3028     fltk:fl_symbols.obj
 0002:00024030       __real@bfc3333333333333    004b3030     fltk:fl_symbols.obj
 0002:00024038       __real@3fd999999999999a    004b3038     fltk:fl_symbols.obj
 0002:00024040       __real@3fd3333333333333    004b3040     fltk:fl_symbols.obj
 0002:00024048       __real@bfe999999999999a    004b3048     fltk:fl_symbols.obj
 0002:00024050       __real@bff3333333333333    004b3050     fltk:fl_symbols.obj
 0002:00024058       __real@bfb999999999999a    004b3058     fltk:fl_symbols.obj
 0002:00024060       __real@bffccccccccccccd    004b3060     fltk:fl_symbols.obj
 0002:00024068       __real@bfd3333333333333    004b3068     fltk:fl_symbols.obj
 0002:00024070       __real@3fc999999999999a    004b3070     fltk:fl_symbols.obj
 0002:00024078       __real@bfc999999999999a    004b3078     fltk:fl_symbols.obj
 0002:00024080       __real@bfc0a3d70a3d70a4    004b3080     fltk:fl_symbols.obj
 0002:00024088       __real@bfe75c28f5c28f5c    004b3088     fltk:fl_symbols.obj
 0002:00024090       __real@3fe75c28f5c28f5c    004b3090     fltk:fl_symbols.obj
 0002:00024098       __real@bfd999999999999a    004b3098     fltk:fl_symbols.obj
 0002:000240a0       __real@3fc0a3d70a3d70a4    004b30a0     fltk:fl_symbols.obj
 0002:000240a8       __real@3fe999999999999a    004b30a8     fltk:fl_symbols.obj
 0002:000240b0       __real@3feccccccccccccd    004b30b0     fltk:fl_symbols.obj
 0002:000240b8       __real@bfe6666666666666    004b30b8     fltk:fl_symbols.obj
 0002:000240c0       __real@bfe3333333333333    004b30c0     fltk:fl_symbols.obj
 0002:000240c8       __real@bfee666666666666    004b30c8     fltk:fl_symbols.obj
 0002:000240d0       __real@3fee666666666666    004b30d0     fltk:fl_symbols.obj
 0002:000240d8       __real@3fd6666666666666    004b30d8     fltk:fl_symbols.obj
 0002:000240e0       __real@bfd6666666666666    004b30e0     fltk:fl_symbols.obj
 0002:000240e8       __real@3fe4cccccccccccd    004b30e8     fltk:fl_symbols.obj
 0002:000240f0       __real@bfeccccccccccccd    004b30f0     fltk:fl_symbols.obj
 0002:000240f8       __real@bfe4cccccccccccd    004b30f8     fltk:fl_symbols.obj
 0002:00024100       __real@3feb333333333333    004b3100     fltk:fl_symbols.obj
 0002:00024108       __real@bfd0000000000000    004b3108     fltk:fl_symbols.obj
 0002:00024110       __real@3fe6666666666666    004b3110     fltk:fl_symbols.obj
 0002:00024118       __real@3e800000            004b3118     fltk:fl_symbols.obj
 0002:00024120       __real@c066800000000000    004b3120     fltk:fl_symbols.obj
 0002:00024128       __real@40a00000            004b3128     fltk:fl_symbols.obj
 0002:00024130       __real@4061800000000000    004b3130     fltk:fl_symbols.obj
 0002:00024138       __real@3f8eb851eb851eb8    004b3138     fltk:fl_symbols.obj
 0002:00024140       __real@3f747ae147ae147b    004b3140     fltk:fl_symbols.obj
 0002:00024148       __real@41200000            004b3148     fltk:fl_symbols.obj
 0002:00024150       __real@c060e00000000000    004b3150     fltk:fl_symbols.obj
 0002:000241b8       ??_7Fl_XPM_Image@@6B@      004b31b8     fltk:Fl_XPM_Image.obj
 0002:00024200       ??_7Fl_XBM_Image@@6B@      004b3200     fltk:Fl_XBM_Image.obj
 0002:000242a4       _IID_IOleAdviseHolder      004b32a4     uuid:oleidl_i.obj
 0002:000242b4       _IID_IOleCache             004b32b4     uuid:oleidl_i.obj
 0002:000242c4       _IID_IOleCache2            004b32c4     uuid:oleidl_i.obj
 0002:000242d4       _IID_IOleCacheControl      004b32d4     uuid:oleidl_i.obj
 0002:000242e4       _IID_IParseDisplayName     004b32e4     uuid:oleidl_i.obj
 0002:000242f4       _IID_IOleContainer         004b32f4     uuid:oleidl_i.obj
 0002:00024304       _IID_IOleClientSite        004b3304     uuid:oleidl_i.obj
 0002:00024314       _IID_IOleObject            004b3314     uuid:oleidl_i.obj
 0002:00024324       _IID_IOleWindow            004b3324     uuid:oleidl_i.obj
 0002:00024334       _IID_IOleLink              004b3334     uuid:oleidl_i.obj
 0002:00024344       _IID_IOleItemContainer     004b3344     uuid:oleidl_i.obj
 0002:00024354       _IID_IOleInPlaceUIWindow   004b3354     uuid:oleidl_i.obj
 0002:00024364       _IID_IOleInPlaceActiveObject 004b3364     uuid:oleidl_i.obj
 0002:00024374       _IID_IOleInPlaceFrame      004b3374     uuid:oleidl_i.obj
 0002:00024384       _IID_IOleInPlaceObject     004b3384     uuid:oleidl_i.obj
 0002:00024394       _IID_IOleInPlaceSite       004b3394     uuid:oleidl_i.obj
 0002:000243a4       _IID_IContinue             004b33a4     uuid:oleidl_i.obj
 0002:000243b4       _IID_IViewObject           004b33b4     uuid:oleidl_i.obj
 0002:000243c4       _IID_IViewObject2          004b33c4     uuid:oleidl_i.obj
 0002:000243d4       _IID_IDropSource           004b33d4     uuid:oleidl_i.obj
 0002:000243e4       _IID_IDropTarget           004b33e4     uuid:oleidl_i.obj
 0002:000243f4       _IID_IDropSourceNotify     004b33f4     uuid:oleidl_i.obj
 0002:00024404       _IID_IEnterpriseDropTarget 004b3404     uuid:oleidl_i.obj
 0002:00024414       _IID_IEnumOLEVERB          004b3414     uuid:oleidl_i.obj
 0002:00024424       _IID_IUnknown              004b3424     uuid:unknwn_i.obj
 0002:00024434       _IID_AsyncIUnknown         004b3434     uuid:unknwn_i.obj
 0002:00024444       _IID_IClassFactory         004b3444     uuid:unknwn_i.obj
 0002:00024454       _IID_IMarshal              004b3454     uuid:objidl_i.obj
 0002:00024464       _IID_INoMarshal            004b3464     uuid:objidl_i.obj
 0002:00024474       _IID_IAgileObject          004b3474     uuid:objidl_i.obj
 0002:00024484       _IID_IActivationFilter     004b3484     uuid:objidl_i.obj
 0002:00024494       _IID_IMarshal2             004b3494     uuid:objidl_i.obj
 0002:000244a4       _IID_IMalloc               004b34a4     uuid:objidl_i.obj
 0002:000244b4       _IID_IStdMarshalInfo       004b34b4     uuid:objidl_i.obj
 0002:000244c4       _IID_IExternalConnection   004b34c4     uuid:objidl_i.obj
 0002:000244d4       _IID_IMultiQI              004b34d4     uuid:objidl_i.obj
 0002:000244e4       _IID_AsyncIMultiQI         004b34e4     uuid:objidl_i.obj
 0002:000244f4       _IID_IInternalUnknown      004b34f4     uuid:objidl_i.obj
 0002:00024504       _IID_IEnumUnknown          004b3504     uuid:objidl_i.obj
 0002:00024514       _IID_IEnumString           004b3514     uuid:objidl_i.obj
 0002:00024524       _IID_ISequentialStream     004b3524     uuid:objidl_i.obj
 0002:00024534       _IID_IStream               004b3534     uuid:objidl_i.obj
 0002:00024544       _IID_IRpcChannelBuffer     004b3544     uuid:objidl_i.obj
 0002:00024554       _IID_IRpcChannelBuffer2    004b3554     uuid:objidl_i.obj
 0002:00024564       _IID_IAsyncRpcChannelBuffer 004b3564     uuid:objidl_i.obj
 0002:00024574       _IID_IRpcChannelBuffer3    004b3574     uuid:objidl_i.obj
 0002:00024584       _IID_IRpcSyntaxNegotiate   004b3584     uuid:objidl_i.obj
 0002:00024594       _IID_IRpcProxyBuffer       004b3594     uuid:objidl_i.obj
 0002:000245a4       _IID_IRpcStubBuffer        004b35a4     uuid:objidl_i.obj
 0002:000245b4       _IID_IPSFactoryBuffer      004b35b4     uuid:objidl_i.obj
 0002:000245c4       _IID_IChannelHook          004b35c4     uuid:objidl_i.obj
 0002:000245d4       _IID_IClientSecurity       004b35d4     uuid:objidl_i.obj
 0002:000245e4       _IID_IServerSecurity       004b35e4     uuid:objidl_i.obj
 0002:000245f4       _IID_IRpcOptions           004b35f4     uuid:objidl_i.obj
 0002:00024604       _IID_IGlobalOptions        004b3604     uuid:objidl_i.obj
 0002:00024614       _IID_ISurrogate            004b3614     uuid:objidl_i.obj
 0002:00024624       _IID_IGlobalInterfaceTable 004b3624     uuid:objidl_i.obj
 0002:00024634       _IID_ISynchronize          004b3634     uuid:objidl_i.obj
 0002:00024644       _IID_ISynchronizeHandle    004b3644     uuid:objidl_i.obj
 0002:00024654       _IID_ISynchronizeEvent     004b3654     uuid:objidl_i.obj
 0002:00024664       _IID_ISynchronizeContainer 004b3664     uuid:objidl_i.obj
 0002:00024674       _IID_ISynchronizeMutex     004b3674     uuid:objidl_i.obj
 0002:00024684       _IID_ICancelMethodCalls    004b3684     uuid:objidl_i.obj
 0002:00024694       _IID_IAsyncManager         004b3694     uuid:objidl_i.obj
 0002:000246a4       _IID_ICallFactory          004b36a4     uuid:objidl_i.obj
 0002:000246b4       _IID_IRpcHelper            004b36b4     uuid:objidl_i.obj
 0002:000246c4       _IID_IReleaseMarshalBuffers 004b36c4     uuid:objidl_i.obj
 0002:000246d4       _IID_IWaitMultiple         004b36d4     uuid:objidl_i.obj
 0002:000246e4       _IID_IAddrTrackingControl  004b36e4     uuid:objidl_i.obj
 0002:000246f4       _IID_IAddrExclusionControl 004b36f4     uuid:objidl_i.obj
 0002:00024704       _IID_IPipeByte             004b3704     uuid:objidl_i.obj
 0002:00024714       _IID_AsyncIPipeByte        004b3714     uuid:objidl_i.obj
 0002:00024724       _IID_IPipeLong             004b3724     uuid:objidl_i.obj
 0002:00024734       _IID_AsyncIPipeLong        004b3734     uuid:objidl_i.obj
 0002:00024744       _IID_IPipeDouble           004b3744     uuid:objidl_i.obj
 0002:00024754       _IID_AsyncIPipeDouble      004b3754     uuid:objidl_i.obj
 0002:00024764       _IID_IEnumContextProps     004b3764     uuid:objidl_i.obj
 0002:00024774       _IID_IContext              004b3774     uuid:objidl_i.obj
 0002:00024784       _IID_IObjContext           004b3784     uuid:objidl_i.obj
 0002:00024794       _IID_IComThreadingInfo     004b3794     uuid:objidl_i.obj
 0002:000247a4       _IID_IProcessInitControl   004b37a4     uuid:objidl_i.obj
 0002:000247b4       _IID_IFastRundown          004b37b4     uuid:objidl_i.obj
 0002:000247c4       _IID_IMarshalingStream     004b37c4     uuid:objidl_i.obj
 0002:000247d4       _IID_IAgileReference       004b37d4     uuid:objidl_i.obj
 0002:000247e4       _IID_IMallocSpy            004b37e4     uuid:objidl_i.obj
 0002:000247f4       _IID_IBindCtx              004b37f4     uuid:objidl_i.obj
 0002:00024804       _IID_IEnumMoniker          004b3804     uuid:objidl_i.obj
 0002:00024814       _IID_IRunnableObject       004b3814     uuid:objidl_i.obj
 0002:00024824       _IID_IRunningObjectTable   004b3824     uuid:objidl_i.obj
 0002:00024834       _IID_IPersist              004b3834     uuid:objidl_i.obj
 0002:00024844       _IID_IPersistStream        004b3844     uuid:objidl_i.obj
 0002:00024854       _IID_IMoniker              004b3854     uuid:objidl_i.obj
 0002:00024864       _IID_IROTData              004b3864     uuid:objidl_i.obj
 0002:00024874       _IID_IEnumSTATSTG          004b3874     uuid:objidl_i.obj
 0002:00024884       _IID_IStorage              004b3884     uuid:objidl_i.obj
 0002:00024894       _IID_IPersistFile          004b3894     uuid:objidl_i.obj
 0002:000248a4       _IID_IPersistStorage       004b38a4     uuid:objidl_i.obj
 0002:000248b4       _IID_ILockBytes            004b38b4     uuid:objidl_i.obj
 0002:000248c4       _IID_IEnumFORMATETC        004b38c4     uuid:objidl_i.obj
 0002:000248d4       _IID_IEnumSTATDATA         004b38d4     uuid:objidl_i.obj
 0002:000248e4       _IID_IRootStorage          004b38e4     uuid:objidl_i.obj
 0002:000248f4       _IID_IAdviseSink           004b38f4     uuid:objidl_i.obj
 0002:00024904       _IID_AsyncIAdviseSink      004b3904     uuid:objidl_i.obj
 0002:00024914       _IID_IAdviseSink2          004b3914     uuid:objidl_i.obj
 0002:00024924       _IID_AsyncIAdviseSink2     004b3924     uuid:objidl_i.obj
 0002:00024934       _IID_IDataObject           004b3934     uuid:objidl_i.obj
 0002:00024944       _IID_IDataAdviseHolder     004b3944     uuid:objidl_i.obj
 0002:00024954       _IID_IMessageFilter        004b3954     uuid:objidl_i.obj
 0002:00024964       _IID_IClassActivator       004b3964     uuid:objidl_i.obj
 0002:00024974       _IID_IFillLockBytes        004b3974     uuid:objidl_i.obj
 0002:00024984       _IID_IProgressNotify       004b3984     uuid:objidl_i.obj
 0002:00024994       _IID_ILayoutStorage        004b3994     uuid:objidl_i.obj
 0002:000249a4       _IID_IBlockingLock         004b39a4     uuid:objidl_i.obj
 0002:000249b4       _IID_ITimeAndNoticeControl 004b39b4     uuid:objidl_i.obj
 0002:000249c4       _IID_IOplockStorage        004b39c4     uuid:objidl_i.obj
 0002:000249d4       _IID_IDirectWriterLock     004b39d4     uuid:objidl_i.obj
 0002:000249e4       _IID_IUrlMon               004b39e4     uuid:objidl_i.obj
 0002:000249f4       _IID_IForegroundTransfer   004b39f4     uuid:objidl_i.obj
 0002:00024a04       _IID_IThumbnailExtractor   004b3a04     uuid:objidl_i.obj
 0002:00024a14       _IID_IDummyHICONIncluder   004b3a14     uuid:objidl_i.obj
 0002:00024a24       _IID_IProcessLock          004b3a24     uuid:objidl_i.obj
 0002:00024a34       _IID_ISurrogateService     004b3a34     uuid:objidl_i.obj
 0002:00024a44       _IID_IInitializeSpy        004b3a44     uuid:objidl_i.obj
 0002:00024a54       _IID_IApartmentShutdown    004b3a54     uuid:objidl_i.obj
 0002:00024a68       ??_7type_info@@6B@         004b3a68     MSVCRT:std_type_info_static.obj
 0002:00024a70       ??_C@_1EC@JIJBPKFM@?$AAa?$AAp?$AAi?$AA?9?$AAm?$AAs?$AA?9?$AAw?$AAi?$AAn?$AA?9?$AAc?$AAo?$AAr?$AAe@ 004b3a70     MSVCRT:thread_safe_statics.obj
 0002:00024ab4       ??_C@_1BK@MGMFAEKH@?$AAk?$AAe?$AAr?$AAn?$AAe?$AAl?$AA3?$AA2?$AA?4?$AAd?$AAl?$AAl@ 004b3ab4     MSVCRT:thread_safe_statics.obj
 0002:00024ad0       ??_C@_0BM@HLJJNPAH@InitializeConditionVariable@ 004b3ad0     MSVCRT:thread_safe_statics.obj
 0002:00024aec       ??_C@_0BJ@JEBJOJFJ@SleepConditionVariableCS@ 004b3aec     MSVCRT:thread_safe_statics.obj
 0002:00024b08       ??_C@_0BJ@PGPPEPCC@WakeAllConditionVariable@ 004b3b08     MSVCRT:thread_safe_statics.obj
 0002:00024bb8       ??_7bad_alloc@std@@6B@     004b3bb8     MSVCRT:throw_bad_alloc.obj
 0002:00024bc0       ??_C@_0P@GHFPNOJB@bad?5allocation@ 004b3bc0     MSVCRT:throw_bad_alloc.obj
 0002:00024bd4       ??_7bad_array_new_length@std@@6B@ 004b3bd4     MSVCRT:throw_bad_alloc.obj
 0002:00024bdc       ??_C@_0BF@KINCDENJ@bad?5array?5new?5length@ 004b3bdc     MSVCRT:throw_bad_alloc.obj
 0002:00024c58       __load_config_used         004b3c58     MSVCRT:loadcfg.obj
 0002:00024cf8       __imp__sprintf             004b3cf8     <linker-defined>
 0002:00024cfc       __imp__sscanf              004b3cfc     <linker-defined>
 0002:00024d00       __imp__fprintf             004b3d00     <linker-defined>
 0002:00024d04       __tls_used                 004b3d04     MSVCRT:tlssup.obj
 0002:00024d1c       ??_R4exception@std@@6B@    004b3d1c     RayTracer.obj
 0002:00024d30       ??_R3exception@std@@8      004b3d30     RayTracer.obj
 0002:00024d40       ??_R2exception@std@@8      004b3d40     RayTracer.obj
 0002:00024d48       ??_R1A@?0A@EA@exception@std@@8 004b3d48     RayTracer.obj
 0002:00024d64       ??_R4?$basic_filebuf@DU?$char_traits@D@std@@@std@@6B@ 004b3d64     RayTracer.obj
 0002:00024d78       ??_R3?$basic_filebuf@DU?$char_traits@D@std@@@std@@8 004b3d78     RayTracer.obj
 0002:00024d88       ??_R2?$basic_filebuf@DU?$char_traits@D@std@@@std@@8 004b3d88     RayTracer.obj
 0002:00024d94       ??_R1A@?0A@EA@?$basic_filebuf@DU?$char_traits@D@std@@@std@@8 004b3d94     RayTracer.obj
 0002:00024db0       ??_R1A@?0A@EA@?$basic_streambuf@DU?$char_traits@D@std@@@std@@8 004b3db0     RayTracer.obj
 0002:00024dcc       ??_R3?$basic_streambuf@DU?$char_traits@D@std@@@std@@8 004b3dcc     RayTracer.obj
 0002:00024ddc       ??_R2?$basic_streambuf@DU?$char_traits@D@std@@@std@@8 004b3ddc     RayTracer.obj
 0002:00024de4       ??_R4?$basic_ifstream@DU?$char_traits@D@std@@@std@@6B@ 004b3de4     RayTracer.obj
 0002:00024df8       ??_R3?$basic_ifstream@DU?$char_traits@D@std@@@std@@8 004b3df8     RayTracer.obj
 0002:00024e08       ??_R2?$basic_ifstream@DU?$char_traits@D@std@@@std@@8 004b3e08     RayTracer.obj
 0002:00024e20       ??_R1A@?0A@EA@?$basic_ifstream@DU?$char_traits@D@std@@@std@@8 004b3e20     RayTracer.obj
 0002:00024e3c       ??_R1A@?0A@EA@?$basic_istream@DU?$char_traits@D@std@@@std@@8 004b3e3c     RayTracer.obj
 0002:00024e58       ??_R3?$basic_istream@DU?$char_traits@D@std@@@std@@8 004b3e58     RayTracer.obj
 0002:00024e68       ??_R2?$basic_istream@DU?$char_traits@D@std@@@std@@8 004b3e68     RayTracer.obj
 0002:00024e7c       ??_R1A@A@3FA@?$basic_ios@DU?$char_traits@D@std@@@std@@8 004b3e7c     RayTracer.obj
 0002:00024e98       ??_R3?$basic_ios@DU?$char_traits@D@std@@@std@@8 004b3e98     RayTracer.obj
 0002:00024ea8       ??_R2?$basic_ios@DU?$char_traits@D@std@@@std@@8 004b3ea8     RayTracer.obj
 0002:00024eb8       ??_R1A@?0A@EA@?$basic_ios@DU?$char_traits@D@std@@@std@@8 004b3eb8     RayTracer.obj
 0002:00024ed4       ??_R1A@?0A@EA@ios_base@std@@8 004b3ed4     RayTracer.obj
 0002:00024ef0       ??_R3ios_base@std@@8       004b3ef0     RayTracer.obj
 0002:00024f00       ??_R2ios_base@std@@8       004b3f00     RayTracer.obj
 0002:00024f0c       ??_R17?0A@EA@?$_Iosb@H@std@@8 004b3f0c     RayTracer.obj
 0002:00024f28       ??_R3?$_Iosb@H@std@@8      004b3f28     RayTracer.obj
 0002:00024f38       ??_R2?$_Iosb@H@std@@8      004b3f38     RayTracer.obj
 0002:00024f40       ??_R1A@?0A@EA@?$_Iosb@H@std@@8 004b3f40     RayTracer.obj
 0002:00024f5c       ??_R1A@A@3EA@ios_base@std@@8 004b3f5c     RayTracer.obj
 0002:00024f78       ??_R17A@3EA@?$_Iosb@H@std@@8 004b3f78     RayTracer.obj
 0002:00024f94       ??_R4bad_cast@std@@6B@     004b3f94     RayTracer.obj
 0002:00024fa8       ??_R3bad_cast@std@@8       004b3fa8     RayTracer.obj
 0002:00024fb8       ??_R2bad_cast@std@@8       004b3fb8     RayTracer.obj
 0002:00024fc4       ??_R1A@?0A@EA@bad_cast@std@@8 004b3fc4     RayTracer.obj
 0002:00024fe0       ??_R4TraceUI@@6B@          004b3fe0     CommandLineUI.obj
 0002:00024ff4       ??_R3TraceUI@@8            004b3ff4     CommandLineUI.obj
 0002:00025004       ??_R2TraceUI@@8            004b4004     CommandLineUI.obj
 0002:0002500c       ??_R1A@?0A@EA@TraceUI@@8   004b400c     CommandLineUI.obj
 0002:00025028       ??_R4CommandLineUI@@6B@    004b4028     CommandLineUI.obj
 0002:0002503c       ??_R3CommandLineUI@@8      004b403c     CommandLineUI.obj
 0002:0002504c       ??_R2CommandLineUI@@8      004b404c     CommandLineUI.obj
 0002:00025058       ??_R1A@?0A@EA@CommandLineUI@@8 004b4058     CommandLineUI.obj
 0002:00025074       ??_R4Fl_Gl_Window@@6B@     004b4074     debuggingView.obj
 0002:00025088       ??_R3Fl_Gl_Window@@8       004b4088     debuggingView.obj
 0002:00025098       ??_R2Fl_Gl_Window@@8       004b4098     debuggingView.obj
 0002:000250ac       ??_R1A@?0A@EA@Fl_Gl_Window@@8 004b40ac     debuggingView.obj
 0002:000250c8       ??_R1A@?0A@EA@Fl_Window@@8 004b40c8     debuggingView.obj
 0002:000250e4       ??_R3Fl_Window@@8          004b40e4     debuggingView.obj
 0002:000250f4       ??_R2Fl_Window@@8          004b40f4     debuggingView.obj
 0002:00025104       ??_R1A@?0A@EA@Fl_Group@@8  004b4104     debuggingView.obj
 0002:00025120       ??_R3Fl_Group@@8           004b4120     debuggingView.obj
 0002:00025130       ??_R2Fl_Group@@8           004b4130     debuggingView.obj
 0002:0002513c       ??_R1A@?0A@EA@Fl_Widget@@8 004b413c     debuggingView.obj
 0002:00025158       ??_R3Fl_Widget@@8          004b4158     debuggingView.obj
 0002:00025168       ??_R2Fl_Widget@@8          004b4168     debuggingView.obj
 0002:00025170       ??_R4DebuggingView@@6B@    004b4170     debuggingView.obj
 0002:00025184       ??_R3DebuggingView@@8      004b4184     debuggingView.obj
 0002:00025194       ??_R2DebuggingView@@8      004b4194     debuggingView.obj
 0002:000251ac       ??_R1A@?0A@EA@DebuggingView@@8 004b41ac     debuggingView.obj
 0002:000251c8       ??_R4Fl_Menu_Bar@@6B@      004b41c8     debuggingWindow.obj
 0002:000251dc       ??_R3Fl_Menu_Bar@@8        004b41dc     debuggingWindow.obj
 0002:000251ec       ??_R2Fl_Menu_Bar@@8        004b41ec     debuggingWindow.obj
 0002:000251fc       ??_R1A@?0A@EA@Fl_Menu_Bar@@8 004b41fc     debuggingWindow.obj
 0002:00025218       ??_R1A@?0A@EA@Fl_Menu_@@8  004b4218     debuggingWindow.obj
 0002:00025234       ??_R3Fl_Menu_@@8           004b4234     debuggingWindow.obj
 0002:00025244       ??_R2Fl_Menu_@@8           004b4244     debuggingWindow.obj
 0002:00025250       ??_R4GraphicalUI@@6B@      004b4250     GraphicalUI.obj
 0002:00025264       ??_R3GraphicalUI@@8        004b4264     GraphicalUI.obj
 0002:00025274       ??_R2GraphicalUI@@8        004b4274     GraphicalUI.obj
 0002:00025280       ??_R1A@?0A@EA@GraphicalUI@@8 004b4280     GraphicalUI.obj
 0002:0002529c       ??_R4Fl_Int_Input@@6B@     004b429c     GraphicalUI.obj
 0002:000252b0       ??_R3Fl_Int_Input@@8       004b42b0     GraphicalUI.obj
 0002:000252c0       ??_R2Fl_Int_Input@@8       004b42c0     GraphicalUI.obj
 0002:000252d4       ??_R1A@?0A@EA@Fl_Int_Input@@8 004b42d4     GraphicalUI.obj
 0002:000252f0       ??_R1A@?0A@EA@Fl_Input@@8  004b42f0     GraphicalUI.obj
 0002:0002530c       ??_R3Fl_Input@@8           004b430c     GraphicalUI.obj
 0002:0002531c       ??_R2Fl_Input@@8           004b431c     GraphicalUI.obj
 0002:0002532c       ??_R1A@?0A@EA@Fl_Input_@@8 004b432c     GraphicalUI.obj
 0002:00025348       ??_R3Fl_Input_@@8          004b4348     GraphicalUI.obj
 0002:00025358       ??_R2Fl_Input_@@8          004b4358     GraphicalUI.obj
 0002:00025364       ??_R4Dialog2@@6B@          004b4364     GraphicalUI.obj
 0002:00025378       ??_R3Dialog2@@8            004b4378     GraphicalUI.obj
 0002:00025388       ??_R2Dialog2@@8            004b4388     GraphicalUI.obj
 0002:00025398       ??_R1A@?0A@EA@Dialog2@@8   004b4398     GraphicalUI.obj
 0002:000253b4       ??_R4Scene@@6B@            004b43b4     scene.obj
 0002:000253c8       ??_R3Scene@@8              004b43c8     scene.obj
 0002:000253d8       ??_R2Scene@@8              004b43d8     scene.obj
 0002:000253e0       ??_R1A@?0A@EA@Scene@@8     004b43e0     scene.obj
 0002:000253fc       ??_R4Material@@6B@         004b43fc     scene.obj
 0002:00025410       ??_R3Material@@8           004b4410     scene.obj
 0002:00025420       ??_R2Material@@8           004b4420     scene.obj
 0002:00025428       ??_R1A@?0A@EA@Material@@8  004b4428     scene.obj
 0002:00025444       ??_R4SceneObject@@6B@      004b4444     trimesh.obj
 0002:00025458       ??_R3SceneObject@@8        004b4458     trimesh.obj
 0002:00025468       ??_R2SceneObject@@8        004b4468     trimesh.obj
 0002:00025478       ??_R1A@?0A@EA@SceneObject@@8 004b4478     trimesh.obj
 0002:00025494       ??_R1A@?0A@EA@Geometry@@8  004b4494     trimesh.obj
 0002:000254b0       ??_R3Geometry@@8           004b44b0     trimesh.obj
 0002:000254c0       ??_R2Geometry@@8           004b44c0     trimesh.obj
 0002:000254cc       ??_R1A@?0A@EA@SceneElement@@8 004b44cc     trimesh.obj
 0002:000254e8       ??_R3SceneElement@@8       004b44e8     trimesh.obj
 0002:000254f8       ??_R2SceneElement@@8       004b44f8     trimesh.obj
 0002:00025500       ??_R4SceneElement@@6B@     004b4500     trimesh.obj
 0002:00025514       ??_R4Geometry@@6B@         004b4514     trimesh.obj
 0002:00025528       ??_R4MaterialSceneObject@@6B@ 004b4528     trimesh.obj
 0002:0002553c       ??_R3MaterialSceneObject@@8 004b453c     trimesh.obj
 0002:0002554c       ??_R2MaterialSceneObject@@8 004b454c     trimesh.obj
 0002:00025560       ??_R1A@?0A@EA@MaterialSceneObject@@8 004b4560     trimesh.obj
 0002:0002557c       ??_R4TrimeshFace@@6B@      004b457c     trimesh.obj
 0002:00025590       ??_R3TrimeshFace@@8        004b4590     trimesh.obj
 0002:000255a0       ??_R2TrimeshFace@@8        004b45a0     trimesh.obj
 0002:000255b8       ??_R1A@?0A@EA@TrimeshFace@@8 004b45b8     trimesh.obj
 0002:000255d4       ??_R4Trimesh@@6B@          004b45d4     trimesh.obj
 0002:000255e8       ??_R3Trimesh@@8            004b45e8     trimesh.obj
 0002:000255f8       ??_R2Trimesh@@8            004b45f8     trimesh.obj
 0002:00025610       ??_R1A@?0A@EA@Trimesh@@8   004b4610     trimesh.obj
 0002:0002562c       ??_R4?$basic_stringbuf@DU?$char_traits@D@std@@V?$allocator@D@2@@std@@6B@ 004b462c     Parser.obj
 0002:00025640       ??_R3?$basic_stringbuf@DU?$char_traits@D@std@@V?$allocator@D@2@@std@@8 004b4640     Parser.obj
 0002:00025650       ??_R2?$basic_stringbuf@DU?$char_traits@D@std@@V?$allocator@D@2@@std@@8 004b4650     Parser.obj
 0002:0002565c       ??_R1A@?0A@EA@?$basic_stringbuf@DU?$char_traits@D@std@@V?$allocator@D@2@@std@@8 004b465c     Parser.obj
 0002:00025678       ??_R4?$basic_ostringstream@DU?$char_traits@D@std@@V?$allocator@D@2@@std@@6B@ 004b4678     Parser.obj
 0002:0002568c       ??_R3?$basic_ostringstream@DU?$char_traits@D@std@@V?$allocator@D@2@@std@@8 004b468c     Parser.obj
 0002:0002569c       ??_R2?$basic_ostringstream@DU?$char_traits@D@std@@V?$allocator@D@2@@std@@8 004b469c     Parser.obj
 0002:000256b4       ??_R1A@?0A@EA@?$basic_ostringstream@DU?$char_traits@D@std@@V?$allocator@D@2@@std@@8 004b46b4     Parser.obj
 0002:000256d0       ??_R1A@?0A@EA@?$basic_ostream@DU?$char_traits@D@std@@@std@@8 004b46d0     Parser.obj
 0002:000256ec       ??_R3?$basic_ostream@DU?$char_traits@D@std@@@std@@8 004b46ec     Parser.obj
 0002:000256fc       ??_R2?$basic_ostream@DU?$char_traits@D@std@@@std@@8 004b46fc     Parser.obj
 0002:00025710       ??_R4Light@@6B@            004b4710     Parser.obj
 0002:00025724       ??_R3Light@@8              004b4724     Parser.obj
 0002:00025734       ??_R2Light@@8              004b4734     Parser.obj
 0002:00025740       ??_R1A@?0A@EA@Light@@8     004b4740     Parser.obj
 0002:0002575c       ??_R4DirectionalLight@@6B@ 004b475c     Parser.obj
 0002:00025770       ??_R3DirectionalLight@@8   004b4770     Parser.obj
 0002:00025780       ??_R2DirectionalLight@@8   004b4780     Parser.obj
 0002:00025790       ??_R1A@?0A@EA@DirectionalLight@@8 004b4790     Parser.obj
 0002:000257ac       ??_R4PointLight@@6B@       004b47ac     Parser.obj
 0002:000257c0       ??_R3PointLight@@8         004b47c0     Parser.obj
 0002:000257d0       ??_R2PointLight@@8         004b47d0     Parser.obj
 0002:000257e0       ??_R1A@?0A@EA@PointLight@@8 004b47e0     Parser.obj
 0002:000257fc       ??_R4Box@@6B@              004b47fc     Parser.obj
 0002:00025810       ??_R3Box@@8                004b4810     Parser.obj
 0002:00025820       ??_R2Box@@8                004b4820     Parser.obj
 0002:00025838       ??_R1A@?0A@EA@Box@@8       004b4838     Parser.obj
 0002:00025854       ??_R4Cone@@6B@             004b4854     Parser.obj
 0002:00025868       ??_R3Cone@@8               004b4868     Parser.obj
 0002:00025878       ??_R2Cone@@8               004b4878     Parser.obj
 0002:00025890       ??_R1A@?0A@EA@Cone@@8      004b4890     Parser.obj
 0002:000258ac       ??_R4Cylinder@@6B@         004b48ac     Parser.obj
 0002:000258c0       ??_R3Cylinder@@8           004b48c0     Parser.obj
 0002:000258d0       ??_R2Cylinder@@8           004b48d0     Parser.obj
 0002:000258e8       ??_R1A@?0A@EA@Cylinder@@8  004b48e8     Parser.obj
 0002:00025904       ??_R4Sphere@@6B@           004b4904     Parser.obj
 0002:00025918       ??_R3Sphere@@8             004b4918     Parser.obj
 0002:00025928       ??_R2Sphere@@8             004b4928     Parser.obj
 0002:00025940       ??_R1A@?0A@EA@Sphere@@8    004b4940     Parser.obj
 0002:0002595c       ??_R4Square@@6B@           004b495c     Parser.obj
 0002:00025970       ??_R3Square@@8             004b4970     Parser.obj
 0002:00025980       ??_R2Square@@8             004b4980     Parser.obj
 0002:00025998       ??_R1A@?0A@EA@Square@@8    004b4998     Parser.obj
 0002:000259b4       ??_R4Token@@6B@            004b49b4     Tokenizer.obj
 0002:000259c8       ??_R3Token@@8              004b49c8     Tokenizer.obj
 0002:000259d8       ??_R2Token@@8              004b49d8     Tokenizer.obj
 0002:000259e0       ??_R1A@?0A@EA@Token@@8     004b49e0     Tokenizer.obj
 0002:000259fc       ??_R4IdentToken@@6B@       004b49fc     Tokenizer.obj
 0002:00025a10       ??_R3IdentToken@@8         004b4a10     Tokenizer.obj
 0002:00025a20       ??_R2IdentToken@@8         004b4a20     Tokenizer.obj
 0002:00025a2c       ??_R1A@?0A@EA@IdentToken@@8 004b4a2c     Tokenizer.obj
 0002:00025a48       ??_R4ScalarToken@@6B@      004b4a48     Tokenizer.obj
 0002:00025a5c       ??_R3ScalarToken@@8        004b4a5c     Tokenizer.obj
 0002:00025a6c       ??_R2ScalarToken@@8        004b4a6c     Tokenizer.obj
 0002:00025a78       ??_R1A@?0A@EA@ScalarToken@@8 004b4a78     Tokenizer.obj
 0002:00025a94       ??_R4TraceGLWindow@@6B@    004b4a94     TraceGLWindow.obj
 0002:00025aa8       ??_R3TraceGLWindow@@8      004b4aa8     TraceGLWindow.obj
 0002:00025ab8       ??_R2TraceGLWindow@@8      004b4ab8     TraceGLWindow.obj
 0002:00025ad0       ??_R1A@?0A@EA@TraceGLWindow@@8 004b4ad0     TraceGLWindow.obj
 0002:00025aec       ??_R4Fl_Window@@6B@        004b4aec     fltk:Fl.obj
 0002:00025b00       ??_R4Fl_Widget@@6B@        004b4b00     fltk:Fl_Widget.obj
 0002:00025b14       ??_R4Fl_Group@@6B@         004b4b14     fltk:Fl_Group.obj
 0002:00025b28       ??_R4Fl_Menu_@@6B@         004b4b28     fltk:Fl_Menu_.obj
 0002:00025b3c       ??_R4Fl_Box@@6B@           004b4b3c     fltk:fl_ask.obj
 0002:00025b50       ??_R3Fl_Box@@8             004b4b50     fltk:fl_ask.obj
 0002:00025b60       ??_R2Fl_Box@@8             004b4b60     fltk:fl_ask.obj
 0002:00025b6c       ??_R1A@?0A@EA@Fl_Box@@8    004b4b6c     fltk:fl_ask.obj
 0002:00025b88       ??_R4Fl_Return_Button@@6B@ 004b4b88     fltk:fl_ask.obj
 0002:00025b9c       ??_R3Fl_Return_Button@@8   004b4b9c     fltk:fl_ask.obj
 0002:00025bac       ??_R2Fl_Return_Button@@8   004b4bac     fltk:fl_ask.obj
 0002:00025bbc       ??_R1A@?0A@EA@Fl_Return_Button@@8 004b4bbc     fltk:fl_ask.obj
 0002:00025bd8       ??_R1A@?0A@EA@Fl_Button@@8 004b4bd8     fltk:fl_ask.obj
 0002:00025bf4       ??_R3Fl_Button@@8          004b4bf4     fltk:fl_ask.obj
 0002:00025c04       ??_R2Fl_Button@@8          004b4c04     fltk:fl_ask.obj
 0002:00025c10       ??_R4Fl_Valuator@@6B@      004b4c10     fltk:Fl_Valuator.obj
 0002:00025c24       ??_R3Fl_Valuator@@8        004b4c24     fltk:Fl_Valuator.obj
 0002:00025c34       ??_R2Fl_Valuator@@8        004b4c34     fltk:Fl_Valuator.obj
 0002:00025c40       ??_R1A@?0A@EA@Fl_Valuator@@8 004b4c40     fltk:Fl_Valuator.obj
 0002:00025c5c       ??_R4Fl_Value_Slider@@6B@  004b4c5c     fltk:Fl_Value_Slider.obj
 0002:00025c70       ??_R3Fl_Value_Slider@@8    004b4c70     fltk:Fl_Value_Slider.obj
 0002:00025c80       ??_R2Fl_Value_Slider@@8    004b4c80     fltk:Fl_Value_Slider.obj
 0002:00025c94       ??_R1A@?0A@EA@Fl_Value_Slider@@8 004b4c94     fltk:Fl_Value_Slider.obj
 0002:00025cb0       ??_R1A@?0A@EA@Fl_Slider@@8 004b4cb0     fltk:Fl_Value_Slider.obj
 0002:00025ccc       ??_R3Fl_Slider@@8          004b4ccc     fltk:Fl_Value_Slider.obj
 0002:00025cdc       ??_R2Fl_Slider@@8          004b4cdc     fltk:Fl_Value_Slider.obj
 0002:00025cec       ??_R4Fl_Button@@6B@        004b4cec     fltk:Fl_Button.obj
 0002:00025d00       ??_R4Fl_Check_Button@@6B@  004b4d00     fltk:Fl_Check_Button.obj
 0002:00025d14       ??_R3Fl_Check_Button@@8    004b4d14     fltk:Fl_Check_Button.obj
 0002:00025d24       ??_R2Fl_Check_Button@@8    004b4d24     fltk:Fl_Check_Button.obj
 0002:00025d38       ??_R1A@?0A@EA@Fl_Check_Button@@8 004b4d38     fltk:Fl_Check_Button.obj
 0002:00025d54       ??_R1A@?0A@EA@Fl_Light_Button@@8 004b4d54     fltk:Fl_Check_Button.obj
 0002:00025d70       ??_R3Fl_Light_Button@@8    004b4d70     fltk:Fl_Check_Button.obj
 0002:00025d80       ??_R2Fl_Light_Button@@8    004b4d80     fltk:Fl_Check_Button.obj
 0002:00025d90       ??_R4Fl_Input_@@6B@        004b4d90     fltk:Fl_Input_.obj
 0002:00025da4       ??_R4Fl_Input@@6B@         004b4da4     fltk:Fl_Input.obj
 0002:00025db8       ??_R4Fl_Double_Window@@6B@ 004b4db8     fltk:Fl_File_Chooser.obj
 0002:00025dcc       ??_R3Fl_Double_Window@@8   004b4dcc     fltk:Fl_File_Chooser.obj
 0002:00025ddc       ??_R2Fl_Double_Window@@8   004b4ddc     fltk:Fl_File_Chooser.obj
 0002:00025df0       ??_R1A@?0A@EA@Fl_Double_Window@@8 004b4df0     fltk:Fl_File_Chooser.obj
 0002:00025e0c       ??_R4Fl_Tile@@6B@          004b4e0c     fltk:Fl_File_Chooser.obj
 0002:00025e20       ??_R3Fl_Tile@@8            004b4e20     fltk:Fl_File_Chooser.obj
 0002:00025e30       ??_R2Fl_Tile@@8            004b4e30     fltk:Fl_File_Chooser.obj
 0002:00025e40       ??_R1A@?0A@EA@Fl_Tile@@8   004b4e40     fltk:Fl_File_Chooser.obj
 0002:00025e5c       ??_R4Fl_Image@@6B@         004b4e5c     fltk:Fl_File_Chooser.obj
 0002:00025e70       ??_R3Fl_Image@@8           004b4e70     fltk:Fl_File_Chooser.obj
 0002:00025e80       ??_R2Fl_Image@@8           004b4e80     fltk:Fl_File_Chooser.obj
 0002:00025e88       ??_R1A@?0A@EA@Fl_Image@@8  004b4e88     fltk:Fl_File_Chooser.obj
 0002:00025ea4       ??_R4Fl_Bitmap@@6B@        004b4ea4     fltk:Fl_File_Chooser.obj
 0002:00025eb8       ??_R3Fl_Bitmap@@8          004b4eb8     fltk:Fl_File_Chooser.obj
 0002:00025ec8       ??_R2Fl_Bitmap@@8          004b4ec8     fltk:Fl_File_Chooser.obj
 0002:00025ed4       ??_R1A@?0A@EA@Fl_Bitmap@@8 004b4ed4     fltk:Fl_File_Chooser.obj
 0002:00025ef0       ??_R4Fl_Text_Display@@6B@  004b4ef0     fltk:Fl_Text_Display.obj
 0002:00025f04       ??_R3Fl_Text_Display@@8    004b4f04     fltk:Fl_Text_Display.obj
 0002:00025f14       ??_R2Fl_Text_Display@@8    004b4f14     fltk:Fl_Text_Display.obj
 0002:00025f24       ??_R1A@?0A@EA@Fl_Text_Display@@8 004b4f24     fltk:Fl_Text_Display.obj
 0002:00025f40       ??_R4Fl_Single_Window@@6B@ 004b4f40     fltk:Fl_Tooltip.obj
 0002:00025f54       ??_R3Fl_Single_Window@@8   004b4f54     fltk:Fl_Tooltip.obj
 0002:00025f64       ??_R2Fl_Single_Window@@8   004b4f64     fltk:Fl_Tooltip.obj
 0002:00025f78       ??_R1A@?0A@EA@Fl_Single_Window@@8 004b4f78     fltk:Fl_Tooltip.obj
 0002:00025f94       ??_R4Fl_Menu_Window@@6B@   004b4f94     fltk:Fl_Tooltip.obj
 0002:00025fa8       ??_R3Fl_Menu_Window@@8     004b4fa8     fltk:Fl_Tooltip.obj
 0002:00025fb8       ??_R2Fl_Menu_Window@@8     004b4fb8     fltk:Fl_Tooltip.obj
 0002:00025fd0       ??_R1A@?0A@EA@Fl_Menu_Window@@8 004b4fd0     fltk:Fl_Tooltip.obj
 0002:00025fec       ??_R4Fl_TooltipBox@@6B@    004b4fec     fltk:Fl_Tooltip.obj
 0002:00026000       ??_R3Fl_TooltipBox@@8      004b5000     fltk:Fl_Tooltip.obj
 0002:00026010       ??_R2Fl_TooltipBox@@8      004b5010     fltk:Fl_Tooltip.obj
 0002:0002602c       ??_R1A@?0A@EA@Fl_TooltipBox@@8 004b502c     fltk:Fl_Tooltip.obj
 0002:00026048       ??_R4FLDataObject@@6B@     004b5048     fltk:fl_dnd.obj
 0002:0002605c       ??_R3FLDataObject@@8       004b505c     fltk:fl_dnd.obj
 0002:0002606c       ??_R2FLDataObject@@8       004b506c     fltk:fl_dnd.obj
 0002:0002607c       ??_R1A@?0A@EA@FLDataObject@@8 004b507c     fltk:fl_dnd.obj
 0002:00026098       ??_R1A@?0A@EA@IDataObject@@8 004b5098     fltk:fl_dnd.obj
 0002:000260b4       ??_R3IDataObject@@8        004b50b4     fltk:fl_dnd.obj
 0002:000260c4       ??_R2IDataObject@@8        004b50c4     fltk:fl_dnd.obj
 0002:000260d0       ??_R1A@?0A@EA@IUnknown@@8  004b50d0     fltk:fl_dnd.obj
 0002:000260ec       ??_R3IUnknown@@8           004b50ec     fltk:fl_dnd.obj
 0002:000260fc       ??_R2IUnknown@@8           004b50fc     fltk:fl_dnd.obj
 0002:00026104       ??_R4FLDropSource@@6B@     004b5104     fltk:fl_dnd.obj
 0002:00026118       ??_R3FLDropSource@@8       004b5118     fltk:fl_dnd.obj
 0002:00026128       ??_R2FLDropSource@@8       004b5128     fltk:fl_dnd.obj
 0002:00026138       ??_R1A@?0A@EA@FLDropSource@@8 004b5138     fltk:fl_dnd.obj
 0002:00026154       ??_R1A@?0A@EA@IDropSource@@8 004b5154     fltk:fl_dnd.obj
 0002:00026170       ??_R3IDropSource@@8        004b5170     fltk:fl_dnd.obj
 0002:00026180       ??_R2IDropSource@@8        004b5180     fltk:fl_dnd.obj
 0002:0002618c       ??_R4FLDropTarget@@6B@     004b518c     fltk:fl_dnd.obj
 0002:000261a0       ??_R3FLDropTarget@@8       004b51a0     fltk:fl_dnd.obj
 0002:000261b0       ??_R2FLDropTarget@@8       004b51b0     fltk:fl_dnd.obj
 0002:000261c0       ??_R1A@?0A@EA@FLDropTarget@@8 004b51c0     fltk:fl_dnd.obj
 0002:000261dc       ??_R1A@?0A@EA@IDropTarget@@8 004b51dc     fltk:fl_dnd.obj
 0002:000261f8       ??_R3IDropTarget@@8        004b51f8     fltk:fl_dnd.obj
 0002:00026208       ??_R2IDropTarget@@8        004b5208     fltk:fl_dnd.obj
 0002:00026214       ??_R4Fl_Pixmap@@6B@        004b5214     fltk:Fl_get_system_colors.obj
 0002:00026228       ??_R3Fl_Pixmap@@8          004b5228     fltk:Fl_get_system_colors.obj
 0002:00026238       ??_R2Fl_Pixmap@@8          004b5238     fltk:Fl_get_system_colors.obj
 0002:00026244       ??_R1A@?0A@EA@Fl_Pixmap@@8 004b5244     fltk:Fl_get_system_colors.obj
 0002:00026260       ??_R4menutitle@@6B@        004b5260     fltk:Fl_Menu.obj
 0002:00026274       ??_R3menutitle@@8          004b5274     fltk:Fl_Menu.obj
 0002:00026284       ??_R2menutitle@@8          004b5284     fltk:Fl_Menu.obj
 0002:000262a0       ??_R1A@?0A@EA@menutitle@@8 004b52a0     fltk:Fl_Menu.obj
 0002:000262bc       ??_R4menuwindow@@6B@       004b52bc     fltk:Fl_Menu.obj
 0002:000262d0       ??_R3menuwindow@@8         004b52d0     fltk:Fl_Menu.obj
 0002:000262e0       ??_R2menuwindow@@8         004b52e0     fltk:Fl_Menu.obj
 0002:000262fc       ??_R1A@?0A@EA@menuwindow@@8 004b52fc     fltk:Fl_Menu.obj
 0002:00026318       ??_R4Fl_Slider@@6B@        004b5318     fltk:Fl_Slider.obj
 0002:0002632c       ??_R4Fl_Light_Button@@6B@  004b532c     fltk:Fl_Light_Button.obj
 0002:00026340       ??_R4Fl_Browser_@@6B@      004b5340     fltk:Fl_Browser_.obj
 0002:00026354       ??_R3Fl_Browser_@@8        004b5354     fltk:Fl_Browser_.obj
 0002:00026364       ??_R2Fl_Browser_@@8        004b5364     fltk:Fl_Browser_.obj
 0002:00026374       ??_R1A@?0A@EA@Fl_Browser_@@8 004b5374     fltk:Fl_Browser_.obj
 0002:00026390       ??_R4Fl_File_Input@@6B@    004b5390     fltk:Fl_File_Input.obj
 0002:000263a4       ??_R3Fl_File_Input@@8      004b53a4     fltk:Fl_File_Input.obj
 0002:000263b4       ??_R2Fl_File_Input@@8      004b53b4     fltk:Fl_File_Input.obj
 0002:000263c8       ??_R1A@?0A@EA@Fl_File_Input@@8 004b53c8     fltk:Fl_File_Input.obj
 0002:000263e4       ??_R4Fl_File_Browser@@6B@  004b53e4     fltk:Fl_File_Browser.obj
 0002:000263f8       ??_R3Fl_File_Browser@@8    004b53f8     fltk:Fl_File_Browser.obj
 0002:00026408       ??_R2Fl_File_Browser@@8    004b5408     fltk:Fl_File_Browser.obj
 0002:00026420       ??_R1A@?0A@EA@Fl_File_Browser@@8 004b5420     fltk:Fl_File_Browser.obj
 0002:0002643c       ??_R1A@?0A@EA@Fl_Browser@@8 004b543c     fltk:Fl_File_Browser.obj
 0002:00026458       ??_R3Fl_Browser@@8         004b5458     fltk:Fl_File_Browser.obj
 0002:00026468       ??_R2Fl_Browser@@8         004b5468     fltk:Fl_File_Browser.obj
 0002:0002647c       ??_R4Fl_Browser@@6B@       004b547c     fltk:Fl_File_Browser.obj
 0002:00026490       ??_R4Fl_Menu_Button@@6B@   004b5490     fltk:Fl_Menu_Button.obj
 0002:000264a4       ??_R3Fl_Menu_Button@@8     004b54a4     fltk:Fl_Menu_Button.obj
 0002:000264b4       ??_R2Fl_Menu_Button@@8     004b54b4     fltk:Fl_Menu_Button.obj
 0002:000264c4       ??_R1A@?0A@EA@Fl_Menu_Button@@8 004b54c4     fltk:Fl_Menu_Button.obj
 0002:000264e0       ??_R4Fl_Choice@@6B@        004b54e0     fltk:Fl_Choice.obj
 0002:000264f4       ??_R3Fl_Choice@@8          004b54f4     fltk:Fl_Choice.obj
 0002:00026504       ??_R2Fl_Choice@@8          004b5504     fltk:Fl_Choice.obj
 0002:00026514       ??_R1A@?0A@EA@Fl_Choice@@8 004b5514     fltk:Fl_Choice.obj
 0002:00026530       ??_R4Fl_RGB_Image@@6B@     004b5530     fltk:Fl_Image.obj
 0002:00026544       ??_R3Fl_RGB_Image@@8       004b5544     fltk:Fl_Image.obj
 0002:00026554       ??_R2Fl_RGB_Image@@8       004b5554     fltk:Fl_Image.obj
 0002:00026560       ??_R1A@?0A@EA@Fl_RGB_Image@@8 004b5560     fltk:Fl_Image.obj
 0002:0002657c       ??_R4Fl_Shared_Image@@6B@  004b557c     fltk:Fl_Shared_Image.obj
 0002:00026590       ??_R3Fl_Shared_Image@@8    004b5590     fltk:Fl_Shared_Image.obj
 0002:000265a0       ??_R2Fl_Shared_Image@@8    004b55a0     fltk:Fl_Shared_Image.obj
 0002:000265ac       ??_R1A@?0A@EA@Fl_Shared_Image@@8 004b55ac     fltk:Fl_Shared_Image.obj
 0002:000265c8       ??_R4Fl_Scrollbar@@6B@     004b55c8     fltk:Fl_Scrollbar.obj
 0002:000265dc       ??_R3Fl_Scrollbar@@8       004b55dc     fltk:Fl_Scrollbar.obj
 0002:000265ec       ??_R2Fl_Scrollbar@@8       004b55ec     fltk:Fl_Scrollbar.obj
 0002:00026600       ??_R1A@?0A@EA@Fl_Scrollbar@@8 004b5600     fltk:Fl_Scrollbar.obj
 0002:0002661c       ??_R4Fl_Tiled_Image@@6B@   004b561c     fltk:Fl_Tiled_Image.obj
 0002:00026630       ??_R3Fl_Tiled_Image@@8     004b5630     fltk:Fl_Tiled_Image.obj
 0002:00026640       ??_R2Fl_Tiled_Image@@8     004b5640     fltk:Fl_Tiled_Image.obj
 0002:0002664c       ??_R1A@?0A@EA@Fl_Tiled_Image@@8 004b564c     fltk:Fl_Tiled_Image.obj
 0002:00026668       ??_R4Fl_XPM_Image@@6B@     004b5668     fltk:Fl_XPM_Image.obj
 0002:0002667c       ??_R3Fl_XPM_Image@@8       004b567c     fltk:Fl_XPM_Image.obj
 0002:0002668c       ??_R2Fl_XPM_Image@@8       004b568c     fltk:Fl_XPM_Image.obj
 0002:0002669c       ??_R1A@?0A@EA@Fl_XPM_Image@@8 004b569c     fltk:Fl_XPM_Image.obj
 0002:000266b8       ??_R4Fl_XBM_Image@@6B@     004b56b8     fltk:Fl_XBM_Image.obj
 0002:000266cc       ??_R3Fl_XBM_Image@@8       004b56cc     fltk:Fl_XBM_Image.obj
 0002:000266dc       ??_R2Fl_XBM_Image@@8       004b56dc     fltk:Fl_XBM_Image.obj
 0002:000266ec       ??_R1A@?0A@EA@Fl_XBM_Image@@8 004b56ec     fltk:Fl_XBM_Image.obj
 0002:00026708       ??_R4type_info@@6B@        004b5708     MSVCRT:std_type_info_static.obj
 0002:0002671c       ??_R3type_info@@8          004b571c     MSVCRT:std_type_info_static.obj
 0002:0002672c       ??_R2type_info@@8          004b572c     MSVCRT:std_type_info_static.obj
 0002:00026734       ??_R1A@?0A@EA@type_info@@8 004b5734     MSVCRT:std_type_info_static.obj
 0002:00026750       ??_R4bad_alloc@std@@6B@    004b5750     MSVCRT:throw_bad_alloc.obj
 0002:00026764       ??_R3bad_alloc@std@@8      004b5764     MSVCRT:throw_bad_alloc.obj
 0002:00026774       ??_R2bad_alloc@std@@8      004b5774     MSVCRT:throw_bad_alloc.obj
 0002:00026780       ??_R1A@?0A@EA@bad_alloc@std@@8 004b5780     MSVCRT:throw_bad_alloc.obj
 0002:0002679c       ??_R4bad_array_new_length@std@@6B@ 004b579c     MSVCRT:throw_bad_alloc.obj
 0002:000267b0       ??_R3bad_array_new_length@std@@8 004b57b0     MSVCRT:throw_bad_alloc.obj
 0002:000267c0       ??_R2bad_array_new_length@std@@8 004b57c0     MSVCRT:throw_bad_alloc.obj
 0002:000267d0       ??_R1A@?0A@EA@bad_array_new_length@std@@8 004b57d0     MSVCRT:throw_bad_alloc.obj
 0002:000267f0       ___safe_se_handler_table   004b57f0     <linker-defined>
 0002:00026f54       ___rtc_iaa                 004b5f54     MSVCRT:_initsect_.obj
 0002:00026f58       ___rtc_izz                 004b5f58     MSVCRT:_initsect_.obj
 0002:00026f5c       ___rtc_taa                 004b5f5c     MSVCRT:_initsect_.obj
 0002:00026f60       ___rtc_tzz                 004b5f60     MSVCRT:_initsect_.obj
 0002:00026f64       __tls_start                004b5f64     MSVCRT:tlssup.obj
 0002:00026f68       __Init_thread_epoch        004b5f68     MSVCRT:thread_safe_statics.obj
 0002:00026f6c       __tls_end                  004b5f6c     MSVCRT:tlssup.obj
 0002:000271f0       __CT??_R0?AVexception@std@@@8??0exception@std@@QAE@ABV01@@Z12 004b61f0     RayTracer.obj
 0002:0002720c       __TI2?AVbad_cast@std@@     004b620c     RayTracer.obj
 0002:0002721c       __CTA2?AVbad_cast@std@@    004b621c     RayTracer.obj
 0002:00027228       __CT??_R0?AVbad_cast@std@@@8??0bad_cast@std@@QAE@ABV01@@Z12 004b6228     RayTracer.obj
 0002:00028620       __TI2?AUCImgIOException@cimg_library@@ 004b7620     imageio.obj
 0002:00028630       __CTA2?AUCImgIOException@cimg_library@@ 004b7630     imageio.obj
 0002:0002863c       __CT??_R0?AUCImgIOException@cimg_library@@@81024 004b763c     imageio.obj
 0002:00028658       __CT??_R0?AUCImgException@cimg_library@@@81024 004b7658     imageio.obj
 0002:00028674       __TI2?AUCImgArgumentException@cimg_library@@ 004b7674     imageio.obj
 0002:00028684       __CTA2?AUCImgArgumentException@cimg_library@@ 004b7684     imageio.obj
 0002:00028690       __CT??_R0?AUCImgArgumentException@cimg_library@@@81024 004b7690     imageio.obj
 0002:000286ac       __TI2?AUCImgInstanceException@cimg_library@@ 004b76ac     imageio.obj
 0002:000286bc       __CTA2?AUCImgInstanceException@cimg_library@@ 004b76bc     imageio.obj
 0002:000286c8       __CT??_R0?AUCImgInstanceException@cimg_library@@@81024 004b76c8     imageio.obj
 0002:000287a4       __TI1?AVTextureMapException@@ 004b77a4     material.obj
 0002:000287b4       __CTA1?AVTextureMapException@@ 004b77b4     material.obj
 0002:000287bc       __CT??_R0?AVTextureMapException@@@8??0TextureMapException@@QAE@ABV0@@Z24 004b77bc     material.obj
 0002:00029314       __TI2?AVParserFatalException@@ 004b8314     Parser.obj
 0002:00029324       __CTA2?AVParserFatalException@@ 004b8324     Parser.obj
 0002:00029330       __CT??_R0?AVParserFatalException@@@8??0ParserFatalException@@QAE@ABV0@@Z24 004b8330     Parser.obj
 0002:0002934c       __CT??_R0?AVParserException@@@8??0ParserException@@QAE@ABV0@@Z24 004b834c     Parser.obj
 0002:00029368       __TI1?AVParserException@@  004b8368     Parser.obj
 0002:00029378       __CTA1?AVParserException@@ 004b8378     Parser.obj
 0002:00029380       __TI2?AVSyntaxErrorException@@ 004b8380     Parser.obj
 0002:00029390       __CTA2?AVSyntaxErrorException@@ 004b8390     Parser.obj
 0002:0002939c       __CT??_R0?AVSyntaxErrorException@@@8??0SyntaxErrorException@@QAE@ABV0@@Z48 004b839c     Parser.obj
 0002:0002a704       __TI2?AVbad_alloc@std@@    004b9704     MSVCRT:throw_bad_alloc.obj
 0002:0002a714       __CTA2?AVbad_alloc@std@@   004b9714     MSVCRT:throw_bad_alloc.obj
 0002:0002a720       __CT??_R0?AVbad_alloc@std@@@8??0bad_alloc@std@@QAE@ABV01@@Z12 004b9720     MSVCRT:throw_bad_alloc.obj
 0002:0002a73c       __TI3?AVbad_array_new_length@std@@ 004b973c     MSVCRT:throw_bad_alloc.obj
 0002:0002a74c       __CTA3?AVbad_array_new_length@std@@ 004b974c     MSVCRT:throw_bad_alloc.obj
 0002:0002a75c       __CT??_R0?AVbad_array_new_length@std@@@8??0bad_array_new_length@std@@QAE@ABV01@@Z12 004b975c     MSVCRT:throw_bad_alloc.obj
 0002:0002a79c       __IMPORT_DESCRIPTOR_WSOCK32 004b979c     wsock32:WSOCK32.dll
 0002:0002a7b0       __IMPORT_DESCRIPTOR_OPENGL32 004b97b0     opengl32:OPENGL32.dll
 0002:0002a7c4       __IMPORT_DESCRIPTOR_GLU32  004b97c4     glu32:GLU32.dll
 0002:0002a7d8       __IMPORT_DESCRIPTOR_KERNEL32 004b97d8     kernel32:KERNEL32.dll
 0002:0002a7ec       __IMPORT_DESCRIPTOR_USER32 004b97ec     user32:USER32.dll
 0002:0002a800       __IMPORT_DESCRIPTOR_GDI32  004b9800     gdi32:GDI32.dll
 0002:0002a814       __IMPORT_DESCRIPTOR_ADVAPI32 004b9814     advapi32:ADVAPI32.dll
 0002:0002a828       __IMPORT_DESCRIPTOR_SHELL32 004b9828     shell32:SHELL32.dll
 0002:0002a83c       __IMPORT_DESCRIPTOR_ole32  004b983c     ole32:ole32.dll
 0002:0002a850       __IMPORT_DESCRIPTOR_MSVCP140 004b9850     msvcprt:MSVCP140.dll
 0002:0002a864       __IMPORT_DESCRIPTOR_VCRUNTIME140 004b9864     vcruntime:VCRUNTIME140.dll
 0002:0002a878       __IMPORT_DESCRIPTOR_api-ms-win-crt-string-l1-1-0 004b9878     ucrt:api-ms-win-crt-string-l1-1-0.dll
 0002:0002a88c       __IMPORT_DESCRIPTOR_api-ms-win-crt-runtime-l1-1-0 004b988c     ucrt:api-ms-win-crt-runtime-l1-1-0.dll
 0002:0002a8a0       __IMPORT_DESCRIPTOR_api-ms-win-crt-stdio-l1-1-0 004b98a0     ucrt:api-ms-win-crt-stdio-l1-1-0.dll
 0002:0002a8b4       __IMPORT_DESCRIPTOR_api-ms-win-crt-filesystem-l1-1-0 004b98b4     ucrt:api-ms-win-crt-filesystem-l1-1-0.dll
 0002:0002a8c8       __IMPORT_DESCRIPTOR_api-ms-win-crt-math-l1-1-0 004b98c8     ucrt:api-ms-win-crt-math-l1-1-0.dll
 0002:0002a8dc       __IMPORT_DESCRIPTOR_api-ms-win-crt-convert-l1-1-0 004b98dc     ucrt:api-ms-win-crt-convert-l1-1-0.dll
 0002:0002a8f0       __IMPORT_DESCRIPTOR_api-ms-win-crt-time-l1-1-0 004b98f0     ucrt:api-ms-win-crt-time-l1-1-0.dll
 0002:0002a904       __IMPORT_DESCRIPTOR_api-ms-win-crt-utility-l1-1-0 004b9904     ucrt:api-ms-win-crt-utility-l1-1-0.dll
 0002:0002a918       __IMPORT_DESCRIPTOR_api-ms-win-crt-heap-l1-1-0 004b9918     ucrt:api-ms-win-crt-heap-l1-1-0.dll
 0002:0002a92c       __IMPORT_DESCRIPTOR_api-ms-win-crt-locale-l1-1-0 004b992c     ucrt:api-ms-win-crt-locale-l1-1-0.dll
 0002:0002a940       __IMPORT_DESCRIPTOR_api-ms-win-crt-environment-l1-1-0 004b9940     ucrt:api-ms-win-crt-environment-l1-1-0.dll
 0002:0002a954       __IMPORT_DESCRIPTOR_COMCTL32 004b9954     comctl32:COMCTL32.dll
 0002:0002a968       __NULL_IMPORT_DESCRIPTOR   004b9968     wsock32:WSOCK32.dll
 0003:00000008       ?letters@@3PAY0N@EA        004bd008     debuggingView.obj
 0003:000001a0       ?menu_m_debuggingMenuBar@DebuggingWindow@@2PAUFl_Menu_Item@@A 004bd1a0     debuggingWindow.obj
 0003:00000830       ?menuitems@GraphicalUI@@0PAUFl_Menu_Item@@A 004bd830     GraphicalUI.obj
 0003:0000092c       ?doneTrace@GraphicalUI@@0_NA 004bd92c     GraphicalUI.obj
 0003:0000092d       ?first_time@?1??get_logo40x38@?$CImg@E@cimg_library@@SA?AU23@XZ@4_NA 004bd92d     imageio.obj
 0003:0000092e       ?first_time@?1??save_convert@?$CImg@E@cimg_library@@QBEABU23@PBDI@Z@4_NA 004bd92e     imageio.obj
 0003:0000092f       ?first_time@?1??get_load_dicom@?$CImg@E@cimg_library@@SA?AU23@PBD@Z@4_NA 004bd92f     imageio.obj
 0003:00000930       ?first_time@?1??get_load_convert@?$CImg@E@cimg_library@@SA?AU23@PBD@Z@4_NA 004bd930     imageio.obj
 0003:00000934       ?e_text@Fl@@2PADA          004bd934     fltk:Fl.obj
 0003:00000938       ?visible_focus_@Fl@@2HA    004bd938     fltk:Fl.obj
 0003:0000093c       ?dnd_text_ops_@Fl@@2HA     004bd93c     fltk:Fl.obj
 0003:00000940       ?enter@Fl_Tooltip@@2P6AXPAVFl_Widget@@@ZA 004bd940     fltk:Fl.obj
 0003:00000944       ?exit@Fl_Tooltip@@2P6AXPAVFl_Widget@@@ZA 004bd944     fltk:Fl.obj
 0003:00000948       ?fl_lock_function@@3P6AXXZA 004bd948     fltk:Fl.obj
 0003:0000094c       ?fl_unlock_function@@3P6AXXZA 004bd94c     fltk:Fl.obj
 0003:00000950       ?atclose@Fl@@2P6AXPAVFl_Window@@PAX@ZA 004bd950     fltk:Fl_Window.obj
 0003:00000954       ?FL_NORMAL_SIZE@@3HA       004bd954     fltk:Fl_Widget.obj
 0003:0000095c       ?fl_message_size_@@3EA     004bd95c     fltk:fl_ask.obj
 0003:00000960       ?fl_no@@3PBDB              004bd960     fltk:fl_ask.obj
 0003:00000964       ?fl_yes@@3PBDB             004bd964     fltk:fl_ask.obj
 0003:00000968       ?fl_ok@@3PBDB              004bd968     fltk:fl_ask.obj
 0003:0000096c       ?fl_cancel@@3PBDB          004bd96c     fltk:fl_ask.obj
 0003:00000970       ?fl_close@@3PBDB           004bd970     fltk:fl_ask.obj
 0003:00000974       ??_R0?AVFl_Box@@@8         004bd974     fltk:fl_ask.obj
 0003:0000098c       ??_R0?AVFl_Return_Button@@@8 004bd98c     fltk:fl_ask.obj
 0003:000009ac       ??_R0?AVFl_Button@@@8      004bd9ac     fltk:fl_ask.obj
 0003:000009c4       ??_R0?AVFl_Valuator@@@8    004bd9c4     fltk:Fl_Valuator.obj
 0003:000009e0       ??_R0?AVFl_Value_Slider@@@8 004bd9e0     fltk:Fl_Value_Slider.obj
 0003:00000a00       ??_R0?AVFl_Slider@@@8      004bda00     fltk:Fl_Value_Slider.obj
 0003:00000a18       ??_R0?AVFl_Check_Button@@@8 004bda18     fltk:Fl_Check_Button.obj
 0003:00000a38       ??_R0?AVFl_Light_Button@@@8 004bda38     fltk:Fl_Check_Button.obj
 0003:00000a80       ??_R0?AVFl_Double_Window@@@8 004bda80     fltk:Fl_File_Chooser.obj
 0003:00000aa0       ??_R0?AVFl_Tile@@@8        004bdaa0     fltk:Fl_File_Chooser.obj
 0003:00000ab8       ??_R0?AVFl_Image@@@8       004bdab8     fltk:Fl_File_Chooser.obj
 0003:00000ad0       ??_R0?AVFl_Bitmap@@@8      004bdad0     fltk:Fl_File_Chooser.obj
 0003:00000ae8       ?add_favorites_label@Fl_File_Chooser@@2PBDB 004bdae8     fltk:Fl_File_Chooser2.obj
 0003:00000aec       ?all_files_label@Fl_File_Chooser@@2PBDB 004bdaec     fltk:Fl_File_Chooser2.obj
 0003:00000af0       ?custom_filter_label@Fl_File_Chooser@@2PBDB 004bdaf0     fltk:Fl_File_Chooser2.obj
 0003:00000af4       ?existing_file_label@Fl_File_Chooser@@2PBDB 004bdaf4     fltk:Fl_File_Chooser2.obj
 0003:00000af8       ?favorites_label@Fl_File_Chooser@@2PBDB 004bdaf8     fltk:Fl_File_Chooser2.obj
 0003:00000afc       ?filename_label@Fl_File_Chooser@@2PBDB 004bdafc     fltk:Fl_File_Chooser2.obj
 0003:00000b00       ?filesystems_label@Fl_File_Chooser@@2PBDB 004bdb00     fltk:Fl_File_Chooser2.obj
 0003:00000b04       ?manage_favorites_label@Fl_File_Chooser@@2PBDB 004bdb04     fltk:Fl_File_Chooser2.obj
 0003:00000b08       ?new_directory_label@Fl_File_Chooser@@2PBDB 004bdb08     fltk:Fl_File_Chooser2.obj
 0003:00000b0c       ?new_directory_tooltip@Fl_File_Chooser@@2PBDB 004bdb0c     fltk:Fl_File_Chooser2.obj
 0003:00000b10       ?preview_label@Fl_File_Chooser@@2PBDB 004bdb10     fltk:Fl_File_Chooser2.obj
 0003:00000b14       ?save_label@Fl_File_Chooser@@2PBDB 004bdb14     fltk:Fl_File_Chooser2.obj
 0003:00000b18       ?show_label@Fl_File_Chooser@@2PBDB 004bdb18     fltk:Fl_File_Chooser2.obj
 0003:00000b1c       ?sort@Fl_File_Chooser@@2P6AHPAPAUdirent@@0@ZA 004bdb1c     fltk:Fl_File_Chooser2.obj
 0003:00000b20       ??_R0?AVFl_Text_Display@@@8 004bdb20     fltk:Fl_Text_Display.obj
 0003:00000b40       ?delay_@Fl_Tooltip@@0MA    004bdb40     fltk:Fl_Tooltip.obj
 0003:00000b44       ?hoverdelay_@Fl_Tooltip@@0MA 004bdb44     fltk:Fl_Tooltip.obj
 0003:00000b48       ?enabled_@Fl_Tooltip@@0HA  004bdb48     fltk:Fl_Tooltip.obj
 0003:00000b4c       ?textcolor_@Fl_Tooltip@@0IA 004bdb4c     fltk:Fl_Tooltip.obj
 0003:00000b50       ??_R0?AVFl_Single_Window@@@8 004bdb50     fltk:Fl_Tooltip.obj
 0003:00000b70       ??_R0?AVFl_Menu_Window@@@8 004bdb70     fltk:Fl_Tooltip.obj
 0003:00000b90       ??_R0?AVFl_TooltipBox@@@8  004bdb90     fltk:Fl_Tooltip.obj
 0003:00000bf0       ?flIDropTarget@@3PAUIDropTarget@@A 004bdbf0     fltk:fl_dnd.obj
 0003:00000bf4       ??_R0?AVFLDataObject@@@8   004bdbf4     fltk:fl_dnd.obj
 0003:00000c10       ??_R0?AUIDataObject@@@8    004bdc10     fltk:fl_dnd.obj
 0003:00000c2c       ??_R0?AUIUnknown@@@8       004bdc2c     fltk:fl_dnd.obj
 0003:00000c44       ??_R0?AVFLDropSource@@@8   004bdc44     fltk:fl_dnd.obj
 0003:00000c60       ??_R0?AUIDropSource@@@8    004bdc60     fltk:fl_dnd.obj
 0003:00000c7c       ??_R0?AVFLDropTarget@@@8   004bdc7c     fltk:fl_dnd.obj
 0003:00000c98       ??_R0?AUIDropTarget@@@8    004bdc98     fltk:fl_dnd.obj
 0003:000010b8       ?warning@Fl@@2P6AXPBDZZA   004be0b8     fltk:Fl_abort.obj
 0003:000010bc       ?error@Fl@@2P6AXPBDZZA     004be0bc     fltk:Fl_abort.obj
 0003:000010c0       ?fatal@Fl@@2P6AXPBDZZA     004be0c0     fltk:Fl_abort.obj
 0003:0000123c       ??_R0?AVFl_Pixmap@@@8      004be23c     fltk:Fl_get_system_colors.obj
 0003:00001ad8       ?fl_fonts@@3PAUFl_Fontdesc@@A 004bead8     fltk:fl_font.obj
 0003:00002718       ??_R0?AVmenutitle@@@8      004bf718     fltk:Fl_Menu.obj
 0003:00002730       ??_R0?AVmenuwindow@@@8     004bf730     fltk:Fl_Menu.obj
 0003:00002860       ?scrollbar_width_@Fl_Browser_@@0HA 004bf860     fltk:Fl_Browser_.obj
 0003:00002864       ??_R0?AVFl_Browser_@@@8    004bf864     fltk:Fl_Browser_.obj
 0003:00002880       ??_R0?AVFl_File_Input@@@8  004bf880     fltk:Fl_File_Input.obj
 0003:0000289c       ?lastEntrySet@Node@Fl_Preferences@@2HA 004bf89c     fltk:Fl_Preferences.obj
 0003:000028b4       ??_R0?AVFl_File_Browser@@@8 004bf8b4     fltk:Fl_File_Browser.obj
 0003:000028d4       ??_R0?AVFl_Browser@@@8     004bf8d4     fltk:Fl_File_Browser.obj
 0003:000028f0       ??_R0?AVFl_Menu_Button@@@8 004bf8f0     fltk:Fl_Menu_Button.obj
 0003:00002910       ??_R0?AVFl_Choice@@@8      004bf910     fltk:Fl_Choice.obj
 0003:0000293c       ??_R0?AVFl_RGB_Image@@@8   004bf93c     fltk:Fl_Image.obj
 0003:00002a88       ??_R0?AVFl_Shared_Image@@@8 004bfa88     fltk:Fl_Shared_Image.obj
 0003:00002aa8       ??_R0?AVFl_Scrollbar@@@8   004bfaa8     fltk:Fl_Scrollbar.obj
 0003:00002b64       ??_R0?AVFl_Tiled_Image@@@8 004bfb64     fltk:Fl_Tiled_Image.obj
 0003:00002bb8       ??_R0?AVFl_XPM_Image@@@8   004bfbb8     fltk:Fl_XPM_Image.obj
 0003:00002bd4       ??_R0?AVFl_XBM_Image@@@8   004bfbd4     fltk:Fl_XBM_Image.obj
 0003:00002c20       ___security_cookie_complement 004bfc20     MSVCRT:gs_cookie.obj
 0003:00002c24       ___security_cookie         004bfc24     MSVCRT:gs_cookie.obj
 0003:00002c28       __fltused                  004bfc28     MSVCRT:fltused.obj
 0003:00002c2c       ___scrt_native_dllmain_reason 004bfc2c     MSVCRT:utility.obj
 0003:00002c30       __Init_global_epoch        004bfc30     MSVCRT:thread_safe_statics.obj
 0003:00002c40       ___isa_enabled             004bfc40     MSVCRT:_cpu_disp_.obj
 0003:00002c50       ___scrt_default_matherr    004bfc50     MSVCRT:matherr.obj
 0003:00002c54       ___scrt_ucrt_dll_is_in_use 004bfc54     MSVCRT:ucrt_stubs.obj
 0003:00002c58       ??_R0?AVexception@std@@@8  004bfc58     RayTracer.obj
 0003:00002c74       ??_R0?AVParserException@@@8 004bfc74     RayTracer.obj
 0003:00002c94       ??_R0?AVSyntaxErrorException@@@8 004bfc94     RayTracer.obj
 0003:00002cb8       ??_R0?AVTextureMapException@@@8 004bfcb8     RayTracer.obj
 0003:00002cdc       ??_R0?AVbad_cast@std@@@8   004bfcdc     RayTracer.obj
 0003:00002cf8       ??_R0?AV?$basic_filebuf@DU?$char_traits@D@std@@@std@@@8 004bfcf8     RayTracer.obj
 0003:00002d34       ??_R0?AV?$basic_streambuf@DU?$char_traits@D@std@@@std@@@8 004bfd34     RayTracer.obj
 0003:00002d70       ??_R0?AV?$basic_ifstream@DU?$char_traits@D@std@@@std@@@8 004bfd70     RayTracer.obj
 0003:00002dac       ??_R0?AV?$basic_istream@DU?$char_traits@D@std@@@std@@@8 004bfdac     RayTracer.obj
 0003:00002de8       ??_R0?AV?$basic_ios@DU?$char_traits@D@std@@@std@@@8 004bfde8     RayTracer.obj
 0003:00002e20       ??_R0?AVios_base@std@@@8   004bfe20     RayTracer.obj
 0003:00002e3c       ??_R0?AV?$_Iosb@H@std@@@8  004bfe3c     RayTracer.obj
 0003:00002e58       ??_R0?AVTraceUI@@@8        004bfe58     CommandLineUI.obj
 0003:00002e70       ??_R0?AVCommandLineUI@@@8  004bfe70     CommandLineUI.obj
 0003:00002e8c       ??_R0?AVFl_Gl_Window@@@8   004bfe8c     debuggingView.obj
 0003:00002ea8       ??_R0?AVFl_Window@@@8      004bfea8     debuggingView.obj
 0003:00002ec0       ??_R0?AVFl_Group@@@8       004bfec0     debuggingView.obj
 0003:00002ed8       ??_R0?AVFl_Widget@@@8      004bfed8     debuggingView.obj
 0003:00002ef0       ??_R0?AVDebuggingView@@@8  004bfef0     debuggingView.obj
 0003:00002f0c       ??_R0?AVFl_Menu_Bar@@@8    004bff0c     debuggingWindow.obj
 0003:00002f28       ??_R0?AVFl_Menu_@@@8       004bff28     debuggingWindow.obj
 0003:00002f40       ??_R0?AVGraphicalUI@@@8    004bff40     GraphicalUI.obj
 0003:00002f5c       ??_R0?AVFl_Int_Input@@@8   004bff5c     GraphicalUI.obj
 0003:00002f78       ??_R0?AVFl_Input@@@8       004bff78     GraphicalUI.obj
 0003:00002f90       ??_R0?AVFl_Input_@@@8      004bff90     GraphicalUI.obj
 0003:00002fa8       ??_R0?AVDialog2@@@8        004bffa8     GraphicalUI.obj
 0003:00002fc0       ??_R0?AUCImgException@cimg_library@@@8 004bffc0     imageio.obj
 0003:00002fec       ??_R0?AUCImgIOException@cimg_library@@@8 004bffec     imageio.obj
 0003:00003018       ??_R0?AUCImgArgumentException@cimg_library@@@8 004c0018     imageio.obj
 0003:0000304c       ??_R0?AUCImgInstanceException@cimg_library@@@8 004c004c     imageio.obj
 0003:00003080       ??_R0?AVScene@@@8          004c0080     scene.obj
 0003:00003094       ??_R0?AVMaterial@@@8       004c0094     scene.obj
 0003:000030ac       ??_R0?AVSceneObject@@@8    004c00ac     trimesh.obj
 0003:000030c8       ??_R0?AVGeometry@@@8       004c00c8     trimesh.obj
 0003:000030e0       ??_R0?AVSceneElement@@@8   004c00e0     trimesh.obj
 0003:000030fc       ??_R0?AVMaterialSceneObject@@@8 004c00fc     trimesh.obj
 0003:00003120       ??_R0?AVTrimeshFace@@@8    004c0120     trimesh.obj
 0003:0000313c       ??_R0?AVTrimesh@@@8        004c013c     trimesh.obj
 0003:00003154       ??_R0?AVParserFatalException@@@8 004c0154     Parser.obj
 0003:00003178       ??_R0?AV?$basic_stringbuf@DU?$char_traits@D@std@@V?$allocator@D@2@@std@@@8 004c0178     Parser.obj
 0003:000031c8       ??_R0?AV?$basic_ostringstream@DU?$char_traits@D@std@@V?$allocator@D@2@@std@@@8 004c01c8     Parser.obj
 0003:0000321c       ??_R0?AV?$basic_ostream@DU?$char_traits@D@std@@@std@@@8 004c021c     Parser.obj
 0003:00003258       ??_R0?AVLight@@@8          004c0258     Parser.obj
 0003:0000326c       ??_R0?AVDirectionalLight@@@8 004c026c     Parser.obj
 0003:0000328c       ??_R0?AVPointLight@@@8     004c028c     Parser.obj
 0003:000032a8       ??_R0?AVBox@@@8            004c02a8     Parser.obj
 0003:000032bc       ??_R0?AVCone@@@8           004c02bc     Parser.obj
 0003:000032d0       ??_R0?AVCylinder@@@8       004c02d0     Parser.obj
 0003:000032e8       ??_R0?AVSphere@@@8         004c02e8     Parser.obj
 0003:00003300       ??_R0?AVSquare@@@8         004c0300     Parser.obj
 0003:00003318       ??_R0?AVToken@@@8          004c0318     Tokenizer.obj
 0003:0000332c       ??_R0?AVIdentToken@@@8     004c032c     Tokenizer.obj
 0003:00003348       ??_R0?AVScalarToken@@@8    004c0348     Tokenizer.obj
 0003:00003364       ??_R0?AVTraceGLWindow@@@8  004c0364     TraceGLWindow.obj
 0003:00003380       ??_R0?AVtype_info@@@8      004c0380     MSVCRT:std_type_info_static.obj
 0003:00003398       ??_R0?AVbad_alloc@std@@@8  004c0398     MSVCRT:throw_bad_alloc.obj
 0003:000033b4       ??_R0?AVbad_array_new_length@std@@@8 004c03b4     MSVCRT:throw_bad_alloc.obj
 0003:000033e0       ?optarg@@3PADA             004c03e0     getopt.obj
 0003:000033e4       ?optind@@3HA               004c03e4     getopt.obj
 0003:000033e8       ?opterr@@3HA               004c03e8     getopt.obj
 0003:000033ec       ?optopt@@3HA               004c03ec     getopt.obj
 0003:000033f0       ?theRayTracer@@3PAVRayTracer@@A 004c03f0     main.obj
 0003:000033f4       ?traceUI@@3PAVTraceUI@@A   004c03f4     main.obj
 0003:000033f8       ?debugMode@@3_NA           004c03f8     RayTracer.obj
 0003:000033fc       ?_Stinit@?1??_Init@?$basic_filebuf@DU?$char_traits@D@std@@@std@@IAEXPAU_iobuf@@W4_Initfl@23@@Z@4U_Mbstatet@@A 004c03fc     RayTracer.obj
 0003:00003404       ?_Psave@?$_Facetptr@V?$codecvt@DDU_Mbstatet@@@std@@@std@@2PBVfacet@locale@2@B 004c0404     RayTracer.obj
 0003:00003408       ?space@@3PAEA              004c0408     debuggingView.obj
 0003:00003415       ?m_showGeometry@@3_NA      004c0415     debuggingView.obj
 0003:00003416       ?m_showLights@@3_NA        004c0416     debuggingView.obj
 0003:00003417       ?m_showCamera@@3_NA        004c0417     debuggingView.obj
 0003:00003418       ?fontOffset@@3IA           004c0418     debuggingView.obj
 0003:0000341c       ?m_showAxes@@3_NA          004c041c     debuggingView.obj
 0003:0000341d       ?m_showVisibilityRays@@3_NA 004c041d     debuggingView.obj
 0003:0000341e       ?m_showReflectionRays@@3_NA 004c041e     debuggingView.obj
 0003:0000341f       ?m_showRefractionRays@@3_NA 004c041f     debuggingView.obj
 0003:00003420       ?m_showShadowRays@@3_NA    004c0420     debuggingView.obj
 0003:00003428       ?_OptionsStorage@?1??__local_stdio_printf_options@@9@4_KA 004c0428     debuggingView.obj
 0003:0000347c       ?stopTrace@GraphicalUI@@0_NA 004c047c     GraphicalUI.obj
 0003:00003488       ?_OptionsStorage@?1??__local_stdio_scanf_options@@9@4_KA 004c0488     imageio.obj
 0003:00003490       ?val@?1??Win32attr@cimg@cimg_library@@YAAAUWin32info@23@XZ@4U423@A 004c0490     imageio.obj
 0003:00003494       ?$TSS0@?1??Win32attr@cimg@cimg_library@@YAAAUWin32info@23@XZ@4HA 004c0494     imageio.obj
 0003:00003498       ?st_convert_path@?1??convert_path@cimg@cimg_library@@YAPBDXZ@4PADA 004c0498     imageio.obj
 0003:0000349c       ?st_medcon_path@?1??medcon_path@cimg@cimg_library@@YAPBDXZ@4PADA 004c049c     imageio.obj
 0003:000034a0       ?st_temporary_path@?1??temporary_path@cimg@cimg_library@@YAPBDXZ@4PADA 004c04a0     imageio.obj
 0003:000034a4       ?st_time@?1??time@cimg@cimg_library@@YAKXZ@4U_SYSTEMTIME@@A 004c04a4     imageio.obj
 0003:000034b4       ?res@?1??get_logo40x38@?$CImg@E@cimg_library@@SA?AU23@XZ@4U23@A 004c04b4     imageio.obj
 0003:000034cc       ?$TSS0@?1??get_logo40x38@?$CImg@E@cimg_library@@SA?AU23@XZ@4HA 004c04cc     imageio.obj
 0003:000034d0       ?font7x11@?4??get_font@?$CImgl@E@cimg_library@@SA?AU23@I_N@Z@4U23@A 004c04d0     imageio.obj
 0003:000034dc       ?$TSS0@?4??get_font@?$CImgl@E@cimg_library@@SA?AU23@I_N@Z@4HA 004c04dc     imageio.obj
 0003:000034e0       ?nfont7x11@?4??get_font@?$CImgl@E@cimg_library@@SA?AU23@I_N@Z@4U23@A 004c04e0     imageio.obj
 0003:000034ec       ?font10x13@?M@??get_font@?$CImgl@E@cimg_library@@SA?AU23@I_N@Z@4U23@A 004c04ec     imageio.obj
 0003:000034f8       ?$TSS2@?M@??get_font@?$CImgl@E@cimg_library@@SA?AU23@I_N@Z@4HA 004c04f8     imageio.obj
 0003:000034fc       ?nfont10x13@?M@??get_font@?$CImgl@E@cimg_library@@SA?AU23@I_N@Z@4U23@A 004c04fc     imageio.obj
 0003:00003508       ?font8x17@?BD@??get_font@?$CImgl@E@cimg_library@@SA?AU23@I_N@Z@4U23@A 004c0508     imageio.obj
 0003:00003514       ?$TSS4@?BD@??get_font@?$CImgl@E@cimg_library@@SA?AU23@I_N@Z@4HA 004c0514     imageio.obj
 0003:00003518       ?nfont8x17@?BD@??get_font@?$CImgl@E@cimg_library@@SA?AU23@I_N@Z@4U23@A 004c0518     imageio.obj
 0003:00003524       ?font10x19@?BK@??get_font@?$CImgl@E@cimg_library@@SA?AU23@I_N@Z@4U23@A 004c0524     imageio.obj
 0003:00003530       ?$TSS6@?BK@??get_font@?$CImgl@E@cimg_library@@SA?AU23@I_N@Z@4HA 004c0530     imageio.obj
 0003:00003534       ?nfont10x19@?BK@??get_font@?$CImgl@E@cimg_library@@SA?AU23@I_N@Z@4U23@A 004c0534     imageio.obj
 0003:00003540       ?font12x24@?CB@??get_font@?$CImgl@E@cimg_library@@SA?AU23@I_N@Z@4U23@A 004c0540     imageio.obj
 0003:0000354c       ?$TSS8@?CB@??get_font@?$CImgl@E@cimg_library@@SA?AU23@I_N@Z@4HA 004c054c     imageio.obj
 0003:00003550       ?nfont12x24@?CB@??get_font@?$CImgl@E@cimg_library@@SA?AU23@I_N@Z@4U23@A 004c0550     imageio.obj
 0003:0000355c       ?font16x32@?CI@??get_font@?$CImgl@E@cimg_library@@SA?AU23@I_N@Z@4U23@A 004c055c     imageio.obj
 0003:00003568       ?$TSS10@?CI@??get_font@?$CImgl@E@cimg_library@@SA?AU23@I_N@Z@4HA 004c0568     imageio.obj
 0003:0000356c       ?nfont16x32@?CI@??get_font@?$CImgl@E@cimg_library@@SA?AU23@I_N@Z@4U23@A 004c056c     imageio.obj
 0003:00003578       ?font19x38@?CP@??get_font@?$CImgl@E@cimg_library@@SA?AU23@I_N@Z@4U23@A 004c0578     imageio.obj
 0003:00003584       ?$TSS12@?CP@??get_font@?$CImgl@E@cimg_library@@SA?AU23@I_N@Z@4HA 004c0584     imageio.obj
 0003:00003588       ?nfont19x38@?CP@??get_font@?$CImgl@E@cimg_library@@SA?AU23@I_N@Z@4U23@A 004c0588     imageio.obj
 0003:00003594       ?font29x57@?1??get_font@?$CImgl@E@cimg_library@@SA?AU23@I_N@Z@4U23@A 004c0594     imageio.obj
 0003:000035a0       ?$TSS14@?1??get_font@?$CImgl@E@cimg_library@@SA?AU23@I_N@Z@4HA 004c05a0     imageio.obj
 0003:000035a4       ?nfont29x57@?1??get_font@?$CImgl@E@cimg_library@@SA?AU23@I_N@Z@4U23@A 004c05a4     imageio.obj
 0003:000035b0       ___isa_available_default   004c05b0     imageio.obj
 0003:000035d4       ?fl_show_iconic@@3DA       004c05d4     fltk:Fl.obj
 0003:000035d8       ?e_keysym@Fl@@2HA          004c05d8     fltk:Fl.obj
 0003:000035dc       ?e_is_click@Fl@@2HA        004c05dc     fltk:Fl.obj
 0003:000035e0       ?e_y_root@Fl@@2HA          004c05e0     fltk:Fl.obj
 0003:000035e4       ?belowmouse_@Fl@@2PAVFl_Widget@@A 004c05e4     fltk:Fl.obj
 0003:000035e8       ?fl_default_cursor@@3PAUHICON__@@A 004c05e8     fltk:Fl.obj
 0003:000035ec       ?e_x@Fl@@2HA               004c05ec     fltk:Fl.obj
 0003:000035f0       ?fl_selection_length@@3PAHA 004c05f0     fltk:Fl.obj
 0003:000035f8       ?focus_@Fl@@2PAVFl_Widget@@A 004c05f8     fltk:Fl.obj
 0003:000035fc       ?e_clicks@Fl@@2HA          004c05fc     fltk:Fl.obj
 0003:00003600       ?fl_xmousewin@@3PAVFl_Window@@A 004c0600     fltk:Fl.obj
 0003:00003604       ?grab_@Fl@@2PAVFl_Window@@A 004c0604     fltk:Fl.obj
 0003:00003608       ?fl_capture@@3PAUHWND__@@A 004c0608     fltk:Fl.obj
 0003:0000360c       ?fl_xfocus@@3PAVFl_Window@@A 004c060c     fltk:Fl.obj
 0003:00003614       ?e_dx@Fl@@2HA              004c0614     fltk:Fl.obj
 0003:00003618       ?e_length@Fl@@2HA          004c0618     fltk:Fl.obj
 0003:0000361c       ?idle@Fl@@2P6AXXZA         004c061c     fltk:Fl.obj
 0003:00003620       ?e_original_keysym@Fl@@2HA 004c0620     fltk:Fl.obj
 0003:00003624       ?fl_disable_transient_for@@3HA 004c0624     fltk:Fl.obj
 0003:00003628       ?e_dy@Fl@@2HA              004c0628     fltk:Fl.obj
 0003:00003630       ?fl_i_own_selection@@3PADA 004c0630     fltk:Fl.obj
 0003:00003634       ?fl_msg@@3UtagMSG@@A       004c0634     fltk:Fl.obj
 0003:00003650       ?e_x_root@Fl@@2HA          004c0650     fltk:Fl.obj
 0003:00003654       ?fl_selection_buffer_length@@3PAHA 004c0654     fltk:Fl.obj
 0003:00003664       ?current_@Fl_Window@@1PAV1@A 004c0664     fltk:Fl.obj
 0003:00003668       ?first@Fl_X@@2PAV1@A       004c0668     fltk:Fl.obj
 0003:0000366c       ?e_state@Fl@@2HA           004c066c     fltk:Fl.obj
 0003:00003670       ?pushed_@Fl@@2PAVFl_Widget@@A 004c0670     fltk:Fl.obj
 0003:00003674       ?e_y@Fl@@2HA               004c0674     fltk:Fl.obj
 0003:00003678       ?fl_local_grab@@3P6AHH@ZA  004c0678     fltk:Fl.obj
 0003:0000367c       ?fl_oldfocus@@3PAVFl_Widget@@A 004c067c     fltk:Fl.obj
 0003:00003684       ?selection_owner_@Fl@@2PAVFl_Widget@@A 004c0684     fltk:Fl.obj
 0003:0000368c       ?fl_selection_buffer@@3PAPADA 004c068c     fltk:Fl.obj
 0003:00003694       ?damage_@Fl@@2HA           004c0694     fltk:Fl.obj
 0003:00003698       ?modal_@Fl@@2PAVFl_Window@@A 004c0698     fltk:Fl.obj
 0003:0000369c       ?e_number@Fl@@2HA          004c069c     fltk:Fl.obj
 0003:000039d0       ?fl_wake_msg@@3IA          004c09d0     fltk:Fl.obj
 0003:000039d4       ?fl_gc@@3PAUHDC__@@A       004c09d4     fltk:Fl.obj
 0003:000039d8       ?fl_window@@3PAUHWND__@@A  004c09d8     fltk:Fl.obj
 0003:000039fc       ?fl_display@@3PAUHINSTANCE__@@A 004c09fc     fltk:Fl.obj
 0003:00003e88       ?current_@Fl_Group@@0PAV1@A 004c0e88     fltk:Fl_Group.obj
 0003:00003e8c       ?fl_menu_array_owner@@3PAVFl_Menu_@@A 004c0e8c     fltk:Fl_Menu_.obj
 0003:00003eac       ?fl_message_font_@@3W4Fl_Font@@A 004c0eac     fltk:fl_ask.obj
 0003:00004320       ?prefs_@Fl_File_Chooser@@0VFl_Preferences@@A 004c1320     fltk:Fl_File_Chooser2.obj
 0003:00004b48       ?compose_state@Fl@@2HA     004c1b48     fltk:Fl_compose.obj
 0003:00004b5c       ?font_@Fl_Tooltip@@0HA     004c1b5c     fltk:Fl_Tooltip.obj
 0003:00004b60       ?widget_@Fl_Tooltip@@0PAVFl_Widget@@A 004c1b60     fltk:Fl_Tooltip.obj
 0003:00004b68       ?color_@Fl_Tooltip@@0IA    004c1b68     fltk:Fl_Tooltip.obj
 0003:00004b6c       ?size_@Fl_Tooltip@@0HA     004c1b6c     fltk:Fl_Tooltip.obj
 0003:00004be4       ?fl_clip_state_number@@3HA 004c1be4     fltk:fl_rect.obj
 0003:00004bec       ?awake_ring_head_@Fl@@2HA  004c1bec     fltk:Fl_lock.obj
 0003:00004bf0       ?cs_ring@@3PAU_RTL_CRITICAL_SECTION@@A 004c1bf0     fltk:Fl_lock.obj
 0003:00004bf4       ?awake_ring_tail_@Fl@@2HA  004c1bf4     fltk:Fl_lock.obj
 0003:00004bf8       ?awake_ring_size_@Fl@@2HA  004c1bf8     fltk:Fl_lock.obj
 0003:00004bfc       ?awake_data_@Fl@@2PAPAXA   004c1bfc     fltk:Fl_lock.obj
 0003:00004c00       ?awake_ring_@Fl@@2PAP6AXPAX@ZA 004c1c00     fltk:Fl_lock.obj
 0003:00004c04       ?cs@@3U_RTL_CRITICAL_SECTION@@A 004c1c04     fltk:Fl_lock.obj
 0003:00004d28       ?fl_dnd_target_window@@3PAVFl_Window@@A 004c1d28     fltk:fl_dnd.obj
 0003:00004d2c       ?currDragRef@FLDropTarget@@0PAUIDataObject@@A 004c1d2c     fltk:fl_dnd.obj
 0003:00004d30       ?currDragData@FLDropTarget@@0PADA 004c1d30     fltk:fl_dnd.obj
 0003:00004d34       ?currDragSize@FLDropTarget@@0HA 004c1d34     fltk:fl_dnd.obj
 0003:00004d38       ?currDragResult@FLDropTarget@@0DA 004c1d38     fltk:fl_dnd.obj
 0003:00004d3c       ?flDropTarget@@3VFLDropTarget@@A 004c1d3c     fltk:fl_dnd.obj
 0003:00004d50       ?fl_color_@@3W4Fl_Color@@A 004c1d50     fltk:fl_color.obj
 0003:00004d54       ?fl_palette@@3PAUHPALETTE__@@A 004c1d54     fltk:fl_color.obj
 0003:00004d58       ?fl_xmap@@3PAUFl_XMap@@A   004c1d58     fltk:fl_color.obj
 0003:00005958       ?fl_current_xmap@@3PAUFl_XMap@@A 004c2958     fltk:fl_color.obj
 0003:00005a38       ?fl_fg@@3PBDB              004c2a38     fltk:Fl_get_system_colors.obj
 0003:00005a3c       ?fl_bg@@3PBDB              004c2a3c     fltk:Fl_get_system_colors.obj
 0003:00005a40       ?fl_bg2@@3PBDB             004c2a40     fltk:Fl_get_system_colors.obj
 0003:00005a44       ?scheme_@Fl@@2PBDB         004c2a44     fltk:Fl_get_system_colors.obj
 0003:00005a48       ?scheme_bg_@Fl@@2PAVFl_Image@@A 004c2a48     fltk:Fl_get_system_colors.obj
 0003:00005e78       ?fl_fontsize@@3PAVFl_FontSize@@A 004c2e78     fltk:fl_font.obj
 0003:00005e7c       ?fl_font_@@3HA             004c2e7c     fltk:fl_font.obj
 0003:00005e80       ?fl_size_@@3HA             004c2e80     fltk:fl_font.obj
 0003:00005eac       ?fl_draw_shortcut@@3DA     004c2eac     fltk:fl_draw.obj
 0003:00005ed8       ?nameBuffer@Fl_Preferences@@0PADA 004c2ed8     fltk:Fl_Preferences.obj
 0003:00005f88       ?first_@Fl_File_Icon@@0PAV1@A 004c2f88     fltk:Fl_File_Icon.obj
 0003:00005f8c       ?images_@Fl_Shared_Image@@1PAPAV1@A 004c2f8c     fltk:Fl_Shared_Image.obj
 0003:00005f90       ?num_images_@Fl_Shared_Image@@1HA 004c2f90     fltk:Fl_Shared_Image.obj
 0003:00005f94       ?alloc_images_@Fl_Shared_Image@@1HA 004c2f94     fltk:Fl_Shared_Image.obj
 0003:00005f98       ?handlers_@Fl_Shared_Image@@1PAP6APAVFl_Image@@PBDPAEH@ZA 004c2f98     fltk:Fl_Shared_Image.obj
 0003:00005f9c       ?num_handlers_@Fl_Shared_Image@@1HA 004c2f9c     fltk:Fl_Shared_Image.obj
 0003:00005fa0       ?alloc_handlers_@Fl_Shared_Image@@1HA 004c2fa0     fltk:Fl_Shared_Image.obj
 0003:0000746c       ?fl_mask_bitmap@@3PAPAEA   004c446c     fltk:fl_draw_pixmap.obj
 0003:00007478       ?fl_overlay@@3EA           004c4478     fltkgl:Fl_Gl_Window.obj
 0003:0000747c       ?fl_overlay_depth@@3HA     004c447c     fltkgl:Fl_Gl_Window.obj
 0003:000074a0       ___scrt_current_native_startup_state 004c44a0     MSVCRT:utility.obj
 0003:000074a4       ___scrt_native_startup_lock 004c44a4     MSVCRT:utility.obj
 0003:000074ec       __tls_index                004c44ec     MSVCRT:tlssup.obj
 0003:0000780c       ___isa_available           004c480c     MSVCRT:_cpu_disp_.obj
 0003:00007810       ___favor                   004c4810     MSVCRT:_cpu_disp_.obj
 0003:00007814       ___scrt_debugger_hook_flag 004c4814     MSVCRT:utility_desktop.obj
 0003:00007818       ?__type_info_root_node@@3U__type_info_node@@A 004c4818     MSVCRT:tncleanup.obj
 0003:00007828       ___dyn_tls_dtor_callback   004c4828     <common>
 0003:0000782c       ___dyn_tls_init_callback   004c482c     <common>

 entry point at        0001:000882aa

 Static symbols

 0002:fff71000       __unwindtable$??1sentry@?$basic_ostream@DU?$char_traits@D@std@@@std@@QAE@XZ 00400000     TraceGLWindow.obj
 0000:fff33000       .debug$S                   00400000     kernel32:KERNEL32.dll
 0000:fff33000       .debug$S                   00400000     kernel32:KERNEL32.dll
 0000:fff33000       .debug$S                   00400000     kernel32:KERNEL32.dll
 0000:fff33000       .debug$S                   00400000     kernel32:KERNEL32.dll
 0000:fff33000       .debug$S                   00400000     kernel32:KERNEL32.dll
 0000:fff33000       .debug$S                   00400000     kernel32:KERNEL32.dll
 0000:fff33000       .debug$S                   00400000     kernel32:KERNEL32.dll
 0000:fff33000       .debug$S                   00400000     kernel32:KERNEL32.dll
 0000:fff33000       .debug$S                   00400000     kernel32:KERNEL32.dll
 0000:fff33000       .debug$S                   00400000     kernel32:KERNEL32.dll
 0000:fff33000       .debug$S                   00400000     kernel32:KERNEL32.dll
 0000:fff33000       .debug$S                   00400000     kernel32:KERNEL32.dll
 0000:fff33000       .debug$S                   00400000     kernel32:KERNEL32.dll
 0000:fff33000       .debug$S                   00400000     kernel32:KERNEL32.dll
 0000:fff33000       .debug$S                   00400000     kernel32:KERNEL32.dll
 0000:fff33000       .debug$S                   00400000     kernel32:KERNEL32.dll
 0000:fff33000       .debug$S                   00400000     kernel32:KERNEL32.dll
 0001:fffff000       __unwindfunclet$??$?6U?$char_traits@D@std@@@std@@YAAAV?$basic_ostream@DU?$char_traits@D@std@@@0@AAV10@PBD@Z$3 00400000 f   material.obj
 0000:fff33000       .debug$S                   00400000     comctl32:COMCTL32.dll
 0002:fff71000       __ehfuncinfo$??1_Sentry_base@?$basic_ostream@DU?$char_traits@D@std@@@std@@QAE@XZ 00400000     TraceGLWindow.obj
 0002:fff71000       __catchsym$??$?6U?$char_traits@D@std@@@std@@YAAAV?$basic_ostream@DU?$char_traits@D@std@@@0@AAV10@PBD@Z$6 00400000     TraceGLWindow.obj
 0001:fffff000       __ehhandler$??1_Sentry_base@?$basic_ostream@DU?$char_traits@D@std@@@std@@QAE@XZ 00400000 f   material.obj
 0001:fffff000       __ehhandler$??1sentry@?$basic_ostream@DU?$char_traits@D@std@@@std@@QAE@XZ 00400000 f   material.obj
 0002:fff71000       __catchsym$??$?6U?$char_traits@D@std@@@std@@YAAAV?$basic_ostream@DU?$char_traits@D@std@@@0@AAV10@PBD@Z$6 00400000     material.obj
 0001:fffff000       __ehhandler$??1sentry@?$basic_ostream@DU?$char_traits@D@std@@@std@@QAE@XZ 00400000 f   TraceGLWindow.obj
 0001:fffff000       __ehhandler$??1_Sentry_base@?$basic_ostream@DU?$char_traits@D@std@@@std@@QAE@XZ 00400000 f   TraceGLWindow.obj
 0002:fff71000       __ehfuncinfo$??1_Sentry_base@?$basic_ostream@DU?$char_traits@D@std@@@std@@QAE@XZ 00400000     material.obj
 0001:fffff000       __unwindfunclet$??$?6U?$char_traits@D@std@@@std@@YAAAV?$basic_ostream@DU?$char_traits@D@std@@@0@AAV10@PBD@Z$3 00400000 f   TraceGLWindow.obj
 0002:fff71000       __unwindtable$??1sentry@?$basic_ostream@DU?$char_traits@D@std@@@std@@QAE@XZ 00400000     material.obj
 0001:fffff000       __unwindfunclet$??1Fl_Browser@@UAE@XZ$0 00400000 f   fltk:Fl_Browser.obj
 0000:fff33000       .debug$S                   00400000     ucrt:api-ms-win-crt-runtime-l1-1-0.dll
 0000:fff33000       .debug$S                   00400000     ucrt:api-ms-win-crt-stdio-l1-1-0.dll
 0000:fff33000       .debug$S                   00400000     ucrt:api-ms-win-crt-heap-l1-1-0.dll
 0000:fff33000       .debug$S                   00400000     ucrt:api-ms-win-crt-locale-l1-1-0.dll
 0000:fff33000       .debug$S                   00400000     ucrt:api-ms-win-crt-runtime-l1-1-0.dll
 0000:fff33000       .debug$S                   00400000     ucrt:api-ms-win-crt-runtime-l1-1-0.dll
 0000:fff33000       .debug$S                   00400000     ucrt:api-ms-win-crt-runtime-l1-1-0.dll
 0000:fff33000       .debug$S                   00400000     ucrt:api-ms-win-crt-runtime-l1-1-0.dll
 0000:fff33000       .debug$S                   00400000     ucrt:api-ms-win-crt-stdio-l1-1-0.dll
 0000:fff33000       .debug$S                   00400000     ucrt:api-ms-win-crt-runtime-l1-1-0.dll
 0000:fff33000       .debug$S                   00400000     ucrt:api-ms-win-crt-runtime-l1-1-0.dll
 0000:fff33000       .debug$S                   00400000     ucrt:api-ms-win-crt-runtime-l1-1-0.dll
 0000:fff33000       .debug$S                   00400000     ucrt:api-ms-win-crt-runtime-l1-1-0.dll
 0000:fff33000       .debug$S                   00400000     ucrt:api-ms-win-crt-math-l1-1-0.dll
 0000:fff33000       .debug$S                   00400000     ucrt:api-ms-win-crt-runtime-l1-1-0.dll
 0000:fff33000       .debug$S                   00400000     ucrt:api-ms-win-crt-runtime-l1-1-0.dll
 0000:fff33000       .debug$S                   00400000     ucrt:api-ms-win-crt-math-l1-1-0.dll
 0000:fff33000       .debug$S                   00400000     ucrt:api-ms-win-crt-runtime-l1-1-0.dll
 0000:fff33000       .debug$S                   00400000     ucrt:api-ms-win-crt-runtime-l1-1-0.dll
 0000:fff33000       .debug$S                   00400000     ucrt:api-ms-win-crt-runtime-l1-1-0.dll
 0000:fff33000       .debug$S                   00400000     ucrt:api-ms-win-crt-runtime-l1-1-0.dll
 0000:fff33000       .debug$S                   00400000     ucrt:api-ms-win-crt-runtime-l1-1-0.dll
 0000:fff33000       .debug$S                   00400000     ucrt:api-ms-win-crt-runtime-l1-1-0.dll
 0000:fff33000       .debug$S                   00400000     ucrt:api-ms-win-crt-runtime-l1-1-0.dll
 0000:fff33000       .debug$S                   00400000     ucrt:api-ms-win-crt-runtime-l1-1-0.dll
 0000:fff33000       .debug$S                   00400000     ucrt:api-ms-win-crt-runtime-l1-1-0.dll
 0000:fff33000       .debug$S                   00400000     ucrt:api-ms-win-crt-runtime-l1-1-0.dll
 0000:fff33000       .debug$S                   00400000     ucrt:api-ms-win-crt-heap-l1-1-0.dll
 0000:fff33000       .debug$S                   00400000     ucrt:api-ms-win-crt-string-l1-1-0.dll
 0000:fff33000       .debug$S                   00400000     ucrt:api-ms-win-crt-math-l1-1-0.dll
 0000:fff33000       .debug$S                   00400000     ucrt:api-ms-win-crt-math-l1-1-0.dll
 0000:fff33000       .debug$S                   00400000     ucrt:api-ms-win-crt-math-l1-1-0.dll
 0000:fff33000       .debug$S                   00400000     ucrt:api-ms-win-crt-stdio-l1-1-0.dll
 0000:fff33000       .debug$S                   00400000     ucrt:api-ms-win-crt-utility-l1-1-0.dll
 0000:fff33000       .debug$S                   00400000     ucrt:api-ms-win-crt-utility-l1-1-0.dll
 0000:fff33000       .debug$S                   00400000     ucrt:api-ms-win-crt-filesystem-l1-1-0.dll
 0000:fff33000       .debug$S                   00400000     ucrt:api-ms-win-crt-heap-l1-1-0.dll
 0000:fff33000       .debug$S                   00400000     ucrt:api-ms-win-crt-stdio-l1-1-0.dll
 0000:fff33000       .debug$S                   00400000     ucrt:api-ms-win-crt-stdio-l1-1-0.dll
 0000:fff33000       .debug$S                   00400000     ucrt:api-ms-win-crt-string-l1-1-0.dll
 0000:fff33000       .debug$S                   00400000     ucrt:api-ms-win-crt-convert-l1-1-0.dll
 0000:fff33000       .debug$S                   00400000     ucrt:api-ms-win-crt-math-l1-1-0.dll
 0000:fff33000       .debug$S                   00400000     ucrt:api-ms-win-crt-environment-l1-1-0.dll
 0000:fff33000       .debug$S                   00400000     ucrt:api-ms-win-crt-math-l1-1-0.dll
 0000:fff33000       .debug$S                   00400000     ucrt:api-ms-win-crt-math-l1-1-0.dll
 0000:fff33000       .debug$S                   00400000     ucrt:api-ms-win-crt-string-l1-1-0.dll
 0000:fff33000       .debug$S                   00400000     ucrt:api-ms-win-crt-filesystem-l1-1-0.dll
 0000:fff33000       .debug$S                   00400000     ucrt:api-ms-win-crt-runtime-l1-1-0.dll
 0000:fff33000       .debug$S                   00400000     ucrt:api-ms-win-crt-runtime-l1-1-0.dll
 0000:fff33000       .debug$S                   00400000     ucrt:api-ms-win-crt-filesystem-l1-1-0.dll
 0000:fff33000       .debug$S                   00400000     ucrt:api-ms-win-crt-string-l1-1-0.dll
 0000:fff33000       .debug$S                   00400000     ucrt:api-ms-win-crt-string-l1-1-0.dll
 0000:fff33000       .debug$S                   00400000     ucrt:api-ms-win-crt-environment-l1-1-0.dll
 0000:fff33000       .debug$S                   00400000     ucrt:api-ms-win-crt-locale-l1-1-0.dll
 0000:fff33000       .debug$S                   00400000     ucrt:api-ms-win-crt-string-l1-1-0.dll
 0000:fff33000       .debug$S                   00400000     ucrt:api-ms-win-crt-string-l1-1-0.dll
 0000:fff33000       .debug$S                   00400000     ucrt:api-ms-win-crt-math-l1-1-0.dll
 0000:fff33000       .debug$S                   00400000     ucrt:api-ms-win-crt-math-l1-1-0.dll
 0000:fff33000       .debug$S                   00400000     ucrt:api-ms-win-crt-string-l1-1-0.dll
 0000:fff33000       .debug$S                   00400000     ucrt:api-ms-win-crt-string-l1-1-0.dll
 0000:fff33000       .debug$S                   00400000     ucrt:api-ms-win-crt-string-l1-1-0.dll
 0000:fff33000       .debug$S                   00400000     ucrt:api-ms-win-crt-heap-l1-1-0.dll
 0000:fff33000       .debug$S                   00400000     ucrt:api-ms-win-crt-string-l1-1-0.dll
 0000:fff33000       .debug$S                   00400000     ucrt:api-ms-win-crt-utility-l1-1-0.dll
 0000:fff33000       .debug$S                   00400000     ucrt:api-ms-win-crt-heap-l1-1-0.dll
 0000:fff33000       .debug$S                   00400000     ucrt:api-ms-win-crt-string-l1-1-0.dll
 0000:fff33000       .debug$S                   00400000     ucrt:api-ms-win-crt-heap-l1-1-0.dll
 0000:fff33000       .debug$S                   00400000     ucrt:api-ms-win-crt-string-l1-1-0.dll
 0000:fff33000       .debug$S                   00400000     ucrt:api-ms-win-crt-string-l1-1-0.dll
 0000:fff33000       .debug$S                   00400000     ucrt:api-ms-win-crt-string-l1-1-0.dll
 0000:fff33000       .debug$S                   00400000     ucrt:api-ms-win-crt-string-l1-1-0.dll
 0000:fff33000       .debug$S                   00400000     ucrt:api-ms-win-crt-string-l1-1-0.dll
 0000:fff33000       .debug$S                   00400000     ucrt:api-ms-win-crt-string-l1-1-0.dll
 0000:fff33000       .debug$S                   00400000     ucrt:api-ms-win-crt-convert-l1-1-0.dll
 0000:fff33000       .debug$S                   00400000     ucrt:api-ms-win-crt-math-l1-1-0.dll
 0000:fff33000       .debug$S                   00400000     ucrt:api-ms-win-crt-math-l1-1-0.dll
 0000:fff33000       .debug$S                   00400000     ucrt:api-ms-win-crt-time-l1-1-0.dll
 0000:fff33000       .debug$S                   00400000     ucrt:api-ms-win-crt-string-l1-1-0.dll
 0000:fff33000       .debug$S                   00400000     ucrt:api-ms-win-crt-utility-l1-1-0.dll
 0000:fff33000       .debug$S                   00400000     ucrt:api-ms-win-crt-utility-l1-1-0.dll
 0000:fff33000       .debug$S                   00400000     ucrt:api-ms-win-crt-stdio-l1-1-0.dll
 0000:fff33000       .debug$S                   00400000     ucrt:api-ms-win-crt-stdio-l1-1-0.dll
 0000:fff33000       .debug$S                   00400000     ucrt:api-ms-win-crt-filesystem-l1-1-0.dll
 0000:fff33000       .debug$S                   00400000     ucrt:api-ms-win-crt-stdio-l1-1-0.dll
 0000:fff33000       .debug$S                   00400000     ucrt:api-ms-win-crt-stdio-l1-1-0.dll
 0000:fff33000       .debug$S                   00400000     ucrt:api-ms-win-crt-math-l1-1-0.dll
 0000:fff33000       .debug$S                   00400000     ucrt:api-ms-win-crt-filesystem-l1-1-0.dll
 0000:fff33000       .debug$S                   00400000     ucrt:api-ms-win-crt-stdio-l1-1-0.dll
 0000:fff33000       .debug$S                   00400000     ucrt:api-ms-win-crt-math-l1-1-0.dll
 0000:fff33000       .debug$S                   00400000     ucrt:api-ms-win-crt-math-l1-1-0.dll
 0000:fff33000       .debug$S                   00400000     ucrt:api-ms-win-crt-stdio-l1-1-0.dll
 0000:fff33000       .debug$S                   00400000     ucrt:api-ms-win-crt-stdio-l1-1-0.dll
 0000:fff33000       .debug$S                   00400000     ucrt:api-ms-win-crt-time-l1-1-0.dll
 0000:fff33000       .debug$S                   00400000     ucrt:api-ms-win-crt-convert-l1-1-0.dll
 0000:fff33000       .debug$S                   00400000     ucrt:api-ms-win-crt-runtime-l1-1-0.dll
 0000:fff33000       .debug$S                   00400000     ucrt:api-ms-win-crt-math-l1-1-0.dll
 0000:fff33000       .debug$S                   00400000     ucrt:api-ms-win-crt-filesystem-l1-1-0.dll
 0000:fff33000       .debug$S                   00400000     ucrt:api-ms-win-crt-filesystem-l1-1-0.dll
 0000:fff33000       .debug$S                   00400000     ucrt:api-ms-win-crt-stdio-l1-1-0.dll
 0000:fff33000       .debug$S                   00400000     ucrt:api-ms-win-crt-stdio-l1-1-0.dll
 0000:fff33000       .debug$S                   00400000     ucrt:api-ms-win-crt-stdio-l1-1-0.dll
 0000:fff33000       .debug$S                   00400000     ucrt:api-ms-win-crt-stdio-l1-1-0.dll
 0000:fff33000       .debug$S                   00400000     ucrt:api-ms-win-crt-stdio-l1-1-0.dll
 0000:fff33000       .debug$S                   00400000     ucrt:api-ms-win-crt-stdio-l1-1-0.dll
 0000:fff33000       .debug$S                   00400000     ucrt:api-ms-win-crt-stdio-l1-1-0.dll
 0000:fff33000       .debug$S                   00400000     ucrt:api-ms-win-crt-stdio-l1-1-0.dll
 0000:fff33000       .debug$S                   00400000     ucrt:api-ms-win-crt-stdio-l1-1-0.dll
 0000:fff33000       .debug$S                   00400000     ucrt:api-ms-win-crt-stdio-l1-1-0.dll
 0000:fff33000       .debug$S                   00400000     ucrt:api-ms-win-crt-stdio-l1-1-0.dll
 0000:fff33000       .debug$S                   00400000     ucrt:api-ms-win-crt-stdio-l1-1-0.dll
 0000:fff33000       .debug$S                   00400000     ucrt:api-ms-win-crt-runtime-l1-1-0.dll
 0000:fff33000       .debug$S                   00400000     ucrt:api-ms-win-crt-string-l1-1-0.dll
 0000:fff33000       .debug$S                   00400000     ucrt:api-ms-win-crt-string-l1-1-0.dll
 0002:fff71000       __unwindtable$??1Fl_Browser@@UAE@XZ 00400000     fltk:Fl_Browser.obj
 0000:fff33000       .debug$S                   00400000     vcruntime:VCRUNTIME140.dll
 0000:fff33000       .debug$S                   00400000     vcruntime:VCRUNTIME140.dll
 0000:fff33000       .debug$S                   00400000     vcruntime:VCRUNTIME140.dll
 0000:fff33000       .debug$S                   00400000     vcruntime:VCRUNTIME140.dll
 0000:fff33000       .debug$S                   00400000     vcruntime:VCRUNTIME140.dll
 0000:fff33000       .debug$S                   00400000     vcruntime:VCRUNTIME140.dll
 0000:fff33000       .debug$S                   00400000     vcruntime:VCRUNTIME140.dll
 0000:fff33000       .debug$S                   00400000     vcruntime:VCRUNTIME140.dll
 0000:fff33000       .debug$S                   00400000     vcruntime:VCRUNTIME140.dll
 0000:fff33000       .debug$S                   00400000     vcruntime:VCRUNTIME140.dll
 0000:fff33000       .debug$S                   00400000     vcruntime:VCRUNTIME140.dll
 0000:fff33000       .debug$S                   00400000     vcruntime:VCRUNTIME140.dll
 0000:fff33000       .debug$S                   00400000     vcruntime:VCRUNTIME140.dll
 0000:fff33000       .debug$S                   00400000     vcruntime:VCRUNTIME140.dll
 0000:fff33000       .debug$S                   00400000     vcruntime:VCRUNTIME140.dll
 0000:fff33000       .debug$S                   00400000     vcruntime:VCRUNTIME140.dll
 0001:fffff000       __unwindfunclet$??1Fl_Browser_@@UAE@XZ$0 00400000 f   fltk:Fl_Browser.obj
 0000:fff33000       .debug$S                   00400000     msvcprt:MSVCP140.dll
 0000:fff33000       .debug$S                   00400000     msvcprt:MSVCP140.dll
 0000:fff33000       .debug$S                   00400000     msvcprt:MSVCP140.dll
 0000:fff33000       .debug$S                   00400000     msvcprt:MSVCP140.dll
 0000:fff33000       .debug$S                   00400000     msvcprt:MSVCP140.dll
 0000:fff33000       .debug$S                   00400000     msvcprt:MSVCP140.dll
 0000:fff33000       .debug$S                   00400000     msvcprt:MSVCP140.dll
 0000:fff33000       .debug$S                   00400000     msvcprt:MSVCP140.dll
 0000:fff33000       .debug$S                   00400000     msvcprt:MSVCP140.dll
 0000:fff33000       .debug$S                   00400000     msvcprt:MSVCP140.dll
 0000:fff33000       .debug$S                   00400000     msvcprt:MSVCP140.dll
 0000:fff33000       .debug$S                   00400000     msvcprt:MSVCP140.dll
 0000:fff33000       .debug$S                   00400000     msvcprt:MSVCP140.dll
 0000:fff33000       .debug$S                   00400000     msvcprt:MSVCP140.dll
 0000:fff33000       .debug$S                   00400000     msvcprt:MSVCP140.dll
 0000:fff33000       .debug$S                   00400000     msvcprt:MSVCP140.dll
 0000:fff33000       .debug$S                   00400000     msvcprt:MSVCP140.dll
 0000:fff33000       .debug$S                   00400000     msvcprt:MSVCP140.dll
 0000:fff33000       .debug$S                   00400000     msvcprt:MSVCP140.dll
 0000:fff33000       .debug$S                   00400000     msvcprt:MSVCP140.dll
 0000:fff33000       .debug$S                   00400000     msvcprt:MSVCP140.dll
 0000:fff33000       .debug$S                   00400000     msvcprt:MSVCP140.dll
 0000:fff33000       .debug$S                   00400000     msvcprt:MSVCP140.dll
 0000:fff33000       .debug$S                   00400000     msvcprt:MSVCP140.dll
 0000:fff33000       .debug$S                   00400000     msvcprt:MSVCP140.dll
 0000:fff33000       .debug$S                   00400000     msvcprt:MSVCP140.dll
 0000:fff33000       .debug$S                   00400000     msvcprt:MSVCP140.dll
 0000:fff33000       .debug$S                   00400000     msvcprt:MSVCP140.dll
 0000:fff33000       .debug$S                   00400000     msvcprt:MSVCP140.dll
 0000:fff33000       .debug$S                   00400000     msvcprt:MSVCP140.dll
 0000:fff33000       .debug$S                   00400000     msvcprt:MSVCP140.dll
 0000:fff33000       .debug$S                   00400000     msvcprt:MSVCP140.dll
 0000:fff33000       .debug$S                   00400000     msvcprt:MSVCP140.dll
 0000:fff33000       .debug$S                   00400000     msvcprt:MSVCP140.dll
 0000:fff33000       .debug$S                   00400000     msvcprt:MSVCP140.dll
 0000:fff33000       .debug$S                   00400000     msvcprt:MSVCP140.dll
 0000:fff33000       .debug$S                   00400000     msvcprt:MSVCP140.dll
 0000:fff33000       .debug$S                   00400000     msvcprt:MSVCP140.dll
 0000:fff33000       .debug$S                   00400000     msvcprt:MSVCP140.dll
 0000:fff33000       .debug$S                   00400000     msvcprt:MSVCP140.dll
 0000:fff33000       .debug$S                   00400000     msvcprt:MSVCP140.dll
 0000:fff33000       .debug$S                   00400000     msvcprt:MSVCP140.dll
 0000:fff33000       .debug$S                   00400000     msvcprt:MSVCP140.dll
 0000:fff33000       .debug$S                   00400000     msvcprt:MSVCP140.dll
 0000:fff33000       .debug$S                   00400000     msvcprt:MSVCP140.dll
 0000:fff33000       .debug$S                   00400000     msvcprt:MSVCP140.dll
 0000:fff33000       .debug$S                   00400000     msvcprt:MSVCP140.dll
 0002:fff71000       __guard_fids__             00400000     msvcprt:locale0_implib.obj
 0002:fff71000       __unwindtable$??1Fl_Browser_@@UAE@XZ 00400000     fltk:Fl_Browser.obj
 0001:fffff000       __unwindfunclet$??$?6U?$char_traits@D@std@@@std@@YAAAV?$basic_ostream@DU?$char_traits@D@std@@@0@AAV10@PBD@Z$3 00400000 f   Parser.obj
 0001:fffff000       __ehhandler$??1_Sentry_base@?$basic_ostream@DU?$char_traits@D@std@@@std@@QAE@XZ 00400000 f   Parser.obj
 0002:fff71000       __guard_fids_??__E_Fac_tidy_reg@std@@YAXXZ 00400000     msvcprt:locale0_implib.obj
 0001:fffff000       __ehhandler$??1sentry@?$basic_ostream@DU?$char_traits@D@std@@@std@@QAE@XZ 00400000 f   Parser.obj
 0001:fffff000       __unwindfunclet$??$_Insert_string@DU?$char_traits@D@std@@I@std@@YAAAV?$basic_ostream@DU?$char_traits@D@std@@@0@AAV10@QBDI@Z$3 00400000 f   Parser.obj
 0002:fff71000       __unwindtable$??1sentry@?$basic_ostream@DU?$char_traits@D@std@@@std@@QAE@XZ 00400000     Tokenizer.obj
 0002:fff71000       __catchsym$??$?6U?$char_traits@D@std@@@std@@YAAAV?$basic_ostream@DU?$char_traits@D@std@@@0@AAV10@PBD@Z$6 00400000     Parser.obj
 0000:fff33000       .debug$S                   00400000     msvcprt:MSVCP140.dll
 0000:fff33000       .debug$S                   00400000     msvcprt:MSVCP140.dll
 0000:fff33000       .debug$S                   00400000     msvcprt:MSVCP140.dll
 0000:fff33000       .debug$S                   00400000     msvcprt:MSVCP140.dll
 0002:fff71000       __ehfuncinfo$??1_Sentry_base@?$basic_ostream@DU?$char_traits@D@std@@@std@@QAE@XZ 00400000     Parser.obj
 0002:fff71000       __guard_fids___guard_icall_checks_enforced 00400000     MSVCRT:guard_support.obj
 0002:fff71000       __guard_fids__             00400000     MSVCRT:guard_support.obj
 0002:fff71000       __guard_fids___except_handler4 00400000     MSVCRT:_chandler4gs_.obj
 0002:fff71000       __unwindtable$??1sentry@?$basic_ostream@DU?$char_traits@D@std@@@std@@QAE@XZ 00400000     Parser.obj
 0002:fff71000       __guard_fids____scrt_set_unhandled_exception_filter 00400000     MSVCRT:utility_desktop.obj
 0002:fff71000       __guard_fids__             00400000     MSVCRT:throw_bad_alloc.obj
 0002:fff71000       __guard_fids__             00400000     MSVCRT:throw_bad_alloc.obj
 0002:fff71000       __guard_fids__             00400000     MSVCRT:throw_bad_alloc.obj
 0002:fff71000       __guard_fids__             00400000     MSVCRT:throw_bad_alloc.obj
 0002:fff71000       __guard_fids__             00400000     MSVCRT:throw_bad_alloc.obj
 0002:fff71000       __guard_fids__             00400000     MSVCRT:throw_bad_alloc.obj
 0002:fff71000       __guard_fids__             00400000     MSVCRT:throw_bad_alloc.obj
 0002:fff71000       __guard_fids__             00400000     MSVCRT:throw_bad_alloc.obj
 0002:fff71000       __catchsym$??$_Insert_string@DU?$char_traits@D@std@@I@std@@YAAAV?$basic_ostream@DU?$char_traits@D@std@@@0@AAV10@QBDI@Z$6 00400000     Parser.obj
 0001:fffff000       __unwindfunclet$??$?6U?$char_traits@D@std@@@std@@YAAAV?$basic_ostream@DU?$char_traits@D@std@@@0@AAV10@PBD@Z$3 00400000 f   ParserException.obj
 0002:fff71000       __guard_fids_?pre_c_initialization@@YAHXZ 00400000     MSVCRT:exe_main.obj
 0001:fffff000       __ehhandler$??1_Sentry_base@?$basic_ostream@DU?$char_traits@D@std@@@std@@QAE@XZ 00400000 f   ParserException.obj
 0001:fffff000       __ehhandler$??1sentry@?$basic_ostream@DU?$char_traits@D@std@@@std@@QAE@XZ 00400000 f   ParserException.obj
 0001:fffff000       __unwindfunclet$??$_Insert_string@DU?$char_traits@D@std@@I@std@@YAAAV?$basic_ostream@DU?$char_traits@D@std@@@0@AAV10@QBDI@Z$3 00400000 f   ParserException.obj
 0001:fffff000       __unwindfunclet$??$?6U?$char_traits@D@std@@@std@@YAAAV?$basic_ostream@DU?$char_traits@D@std@@@0@AAV10@PBD@Z$3 00400000 f   debuggingView.obj
 0001:fffff000       __ehhandler$??1_Sentry_base@?$basic_ostream@DU?$char_traits@D@std@@@std@@QAE@XZ 00400000 f   debuggingView.obj
 0002:fff71000       __guard_fids__             00400000     MSVCRT:exe_main.obj
 0001:fffff000       __ehhandler$??1sentry@?$basic_ostream@DU?$char_traits@D@std@@@std@@QAE@XZ 00400000 f   debuggingView.obj
 0002:fff71000       __ehfuncinfo$??1_Sentry_base@?$basic_ostream@DU?$char_traits@D@std@@@std@@QAE@XZ 00400000     Tokenizer.obj
 0002:fff71000       __catchsym$??$?6U?$char_traits@D@std@@@std@@YAAAV?$basic_ostream@DU?$char_traits@D@std@@@0@AAV10@PBD@Z$6 00400000     ParserException.obj
 0002:fff71000       __ehfuncinfo$??1_Sentry_base@?$basic_ostream@DU?$char_traits@D@std@@@std@@QAE@XZ 00400000     ParserException.obj
 0002:fff71000       __unwindtable$??1sentry@?$basic_ostream@DU?$char_traits@D@std@@@std@@QAE@XZ 00400000     ParserException.obj
 0002:fff71000       __catchsym$??$_Insert_string@DU?$char_traits@D@std@@I@std@@YAAAV?$basic_ostream@DU?$char_traits@D@std@@@0@AAV10@QBDI@Z$6 00400000     ParserException.obj
 0002:fff71000       __unwindtable$?str@?$basic_ostringstream@DU?$char_traits@D@std@@V?$allocator@D@2@@std@@QBE?AV?$basic_string@DU?$char_traits@D@std@@V?$allocator@D@2@@2@XZ 00400000     Tokenizer.obj
 0002:fff71000       __catchsym$??$?6U?$char_traits@D@std@@@std@@YAAAV?$basic_ostream@DU?$char_traits@D@std@@@0@AAV10@PBD@Z$6 00400000     debuggingView.obj
 0002:fff71000       __unwindtable$??0?$basic_ostringstream@DU?$char_traits@D@std@@V?$allocator@D@2@@std@@QAE@H@Z 00400000     Tokenizer.obj
 0002:fff71000       __ehfuncinfo$??1_Sentry_base@?$basic_ostream@DU?$char_traits@D@std@@@std@@QAE@XZ 00400000     debuggingView.obj
 0002:fff71000       __catchsym$??$?6U?$char_traits@D@std@@@std@@YAAAV?$basic_ostream@DU?$char_traits@D@std@@@0@AAV10@D@Z$6 00400000     Tokenizer.obj
 0002:fff71000       __unwindtable$??1sentry@?$basic_ostream@DU?$char_traits@D@std@@@std@@QAE@XZ 00400000     debuggingView.obj
 0001:fffff000       __unwindfunclet$??$?6U?$char_traits@D@std@@@std@@YAAAV?$basic_ostream@DU?$char_traits@D@std@@@0@AAV10@PBD@Z$3 00400000 f   Token.obj
 0001:fffff000       __unwindfunclet$?str@?$basic_ostringstream@DU?$char_traits@D@std@@V?$allocator@D@2@@std@@QBE?AV?$basic_string@DU?$char_traits@D@std@@V?$allocator@D@2@@2@XZ$1 00400000 f   Token.obj
 0001:fffff000       __ehhandler$??1_Sentry_base@?$basic_ostream@DU?$char_traits@D@std@@@std@@QAE@XZ 00400000 f   Token.obj
 0001:fffff000       __ehhandler$??1sentry@?$basic_ostream@DU?$char_traits@D@std@@@std@@QAE@XZ 00400000 f   Token.obj
 0001:fffff000       __unwindfunclet$??$_Insert_string@DU?$char_traits@D@std@@I@std@@YAAAV?$basic_ostream@DU?$char_traits@D@std@@@0@AAV10@QBDI@Z$3 00400000 f   Token.obj
 0002:fff71000       __catchsym$??$?6U?$char_traits@D@std@@@std@@YAAAV?$basic_ostream@DU?$char_traits@D@std@@@0@AAV10@PBD@Z$6 00400000     Token.obj
 0001:fffff000       __unwindfunclet$??0Fl_Pixmap@@QAE@PBQBD@Z$0 00400000 f   fltk:Fl_Pixmap.obj
 0002:fff71000       __unwindtable$??0Fl_Pixmap@@QAE@PBQBD@Z 00400000     fltk:Fl_Pixmap.obj
 0002:fff71000       __unwindtable$?str@?$basic_ostringstream@DU?$char_traits@D@std@@V?$allocator@D@2@@std@@QBE?AV?$basic_string@DU?$char_traits@D@std@@V?$allocator@D@2@@2@XZ 00400000     Token.obj
 0002:fff71000       __ehfuncinfo$??1_Sentry_base@?$basic_ostream@DU?$char_traits@D@std@@@std@@QAE@XZ 00400000     Token.obj
 0002:fff71000       __unwindtable$??1sentry@?$basic_ostream@DU?$char_traits@D@std@@@std@@QAE@XZ 00400000     Token.obj
 0002:fff71000       __catchsym$??$_Insert_string@DU?$char_traits@D@std@@I@std@@YAAAV?$basic_ostream@DU?$char_traits@D@std@@@0@AAV10@QBDI@Z$6 00400000     Token.obj
 0001:fffff000       __unwindfunclet$??0SyntaxErrorException@@QAE@ABV0@@Z$0 00400000 f   Tokenizer.obj
 0002:fff71000       __catchsym$??$?6U?$char_traits@D@std@@@std@@YAAAV?$basic_ostream@DU?$char_traits@D@std@@@0@AAV10@PBD@Z$6 00400000     Tokenizer.obj
 0001:fffff000       __unwindfunclet$??$?6U?$char_traits@D@std@@@std@@YAAAV?$basic_ostream@DU?$char_traits@D@std@@@0@AAV10@PBD@Z$3 00400000 f   Tokenizer.obj
 0001:fffff000       __unwindfunclet$??0Fl_Pixmap@@QAE@PBQAD@Z$0 00400000 f   fltk:Fl_XPM_Image.obj
 0002:fff71000       __unwindtable$??0Fl_Pixmap@@QAE@PBQAD@Z 00400000     fltk:Fl_XPM_Image.obj
 0001:fffff000       __unwindfunclet$??$?6U?$char_traits@D@std@@@std@@YAAAV?$basic_ostream@DU?$char_traits@D@std@@@0@AAV10@D@Z$3 00400000 f   Tokenizer.obj
 0001:fffff000       __unwindfunclet$??0?$basic_ostringstream@DU?$char_traits@D@std@@V?$allocator@D@2@@std@@QAE@H@Z$0 00400000 f   Tokenizer.obj
 0001:fffff000       __unwindfunclet$??$?6U?$char_traits@D@std@@@std@@YAAAV?$basic_ostream@DU?$char_traits@D@std@@@0@AAV10@PBD@Z$3 00400000 f   buffer.obj
 0002:fff71000       __catchsym$??$_Insert_string@DU?$char_traits@D@std@@I@std@@YAAAV?$basic_ostream@DU?$char_traits@D@std@@@0@AAV10@QBDI@Z$6 00400000     buffer.obj
 0002:fff71000       __unwindtable$??1sentry@?$basic_ostream@DU?$char_traits@D@std@@@std@@QAE@XZ 00400000     buffer.obj
 0002:fff71000       __ehfuncinfo$??1_Sentry_base@?$basic_ostream@DU?$char_traits@D@std@@@std@@QAE@XZ 00400000     buffer.obj
 0002:fff71000       __catchsym$??$?6U?$char_traits@D@std@@@std@@YAAAV?$basic_ostream@DU?$char_traits@D@std@@@0@AAV10@PBD@Z$6 00400000     buffer.obj
 0001:fffff000       __unwindfunclet$?str@?$basic_ostringstream@DU?$char_traits@D@std@@V?$allocator@D@2@@std@@QBE?AV?$basic_string@DU?$char_traits@D@std@@V?$allocator@D@2@@2@XZ$1 00400000 f   Tokenizer.obj
 0001:fffff000       __ehhandler$??1_Sentry_base@?$basic_ostream@DU?$char_traits@D@std@@@std@@QAE@XZ 00400000 f   Tokenizer.obj
 0002:fff71000       __guard_fids_?__scrt_initialize_thread_safe_statics@@YAHXZ 00400000     MSVCRT:thread_safe_statics.obj
 0000:fff33000       .debug$S                   00400000     wsock32:WSOCK32.dll
 0000:fff33000       .debug$S                   00400000     wsock32:WSOCK32.dll
 0001:fffff000       __unwindfunclet$??$_Insert_string@DU?$char_traits@D@std@@I@std@@YAAAV?$basic_ostream@DU?$char_traits@D@std@@@0@AAV10@QBDI@Z$3 00400000 f   buffer.obj
 0000:fff33000       .debug$S                   00400000     opengl32:OPENGL32.dll
 0002:fff71000       __guard_fids__             00400000     MSVCRT:thread_safe_statics.obj
 0000:fff33000       .debug$S                   00400000     opengl32:OPENGL32.dll
 0000:fff33000       .debug$S                   00400000     opengl32:OPENGL32.dll
 0000:fff33000       .debug$S                   00400000     opengl32:OPENGL32.dll
 0000:fff33000       .debug$S                   00400000     opengl32:OPENGL32.dll
 0000:fff33000       .debug$S                   00400000     opengl32:OPENGL32.dll
 0000:fff33000       .debug$S                   00400000     opengl32:OPENGL32.dll
 0000:fff33000       .debug$S                   00400000     opengl32:OPENGL32.dll
 0000:fff33000       .debug$S                   00400000     opengl32:OPENGL32.dll
 0000:fff33000       .debug$S                   00400000     opengl32:OPENGL32.dll
 0002:fff71000       __guard_fids__             00400000     MSVCRT:std_type_info_static.obj
 0001:fffff000       __ehhandler$??1_Sentry_base@?$basic_ostream@DU?$char_traits@D@std@@@std@@QAE@XZ 00400000 f   buffer.obj
 0000:fff33000       .debug$S                   00400000     ole32:ole32.dll
 0000:fff33000       .debug$S                   00400000     ole32:ole32.dll
 0000:fff33000       .debug$S                   00400000     ole32:ole32.dll
 0000:fff33000       .debug$S                   00400000     ole32:ole32.dll
 0000:fff33000       .debug$S                   00400000     ole32:ole32.dll
 0001:fffff000       __ehhandler$??1sentry@?$basic_ostream@DU?$char_traits@D@std@@@std@@QAE@XZ 00400000 f   buffer.obj
 0000:fff33000       .debug$S                   00400000     shell32:SHELL32.dll
 0002:fff71000       __unwindtable$??0SyntaxErrorException@@QAE@ABV0@@Z 00400000     Tokenizer.obj
 0000:fff33000       .debug$S                   00400000     advapi32:ADVAPI32.dll
 0000:fff33000       .debug$S                   00400000     advapi32:ADVAPI32.dll
 0000:fff33000       .debug$S                   00400000     advapi32:ADVAPI32.dll
 0000:fff33000       .debug$S                   00400000     opengl32:OPENGL32.dll
 0000:fff33000       .debug$S                   00400000     gdi32:GDI32.dll
 0000:fff33000       .debug$S                   00400000     gdi32:GDI32.dll
 0000:fff33000       .debug$S                   00400000     gdi32:GDI32.dll
 0000:fff33000       .debug$S                   00400000     gdi32:GDI32.dll
 0000:fff33000       .debug$S                   00400000     gdi32:GDI32.dll
 0000:fff33000       .debug$S                   00400000     gdi32:GDI32.dll
 0000:fff33000       .debug$S                   00400000     gdi32:GDI32.dll
 0000:fff33000       .debug$S                   00400000     gdi32:GDI32.dll
 0000:fff33000       .debug$S                   00400000     gdi32:GDI32.dll
 0000:fff33000       .debug$S                   00400000     gdi32:GDI32.dll
 0000:fff33000       .debug$S                   00400000     gdi32:GDI32.dll
 0000:fff33000       .debug$S                   00400000     gdi32:GDI32.dll
 0000:fff33000       .debug$S                   00400000     gdi32:GDI32.dll
 0000:fff33000       .debug$S                   00400000     gdi32:GDI32.dll
 0000:fff33000       .debug$S                   00400000     gdi32:GDI32.dll
 0000:fff33000       .debug$S                   00400000     gdi32:GDI32.dll
 0000:fff33000       .debug$S                   00400000     gdi32:GDI32.dll
 0000:fff33000       .debug$S                   00400000     gdi32:GDI32.dll
 0000:fff33000       .debug$S                   00400000     gdi32:GDI32.dll
 0000:fff33000       .debug$S                   00400000     gdi32:GDI32.dll
 0000:fff33000       .debug$S                   00400000     gdi32:GDI32.dll
 0000:fff33000       .debug$S                   00400000     gdi32:GDI32.dll
 0000:fff33000       .debug$S                   00400000     gdi32:GDI32.dll
 0000:fff33000       .debug$S                   00400000     gdi32:GDI32.dll
 0000:fff33000       .debug$S                   00400000     gdi32:GDI32.dll
 0000:fff33000       .debug$S                   00400000     gdi32:GDI32.dll
 0000:fff33000       .debug$S                   00400000     gdi32:GDI32.dll
 0000:fff33000       .debug$S                   00400000     gdi32:GDI32.dll
 0000:fff33000       .debug$S                   00400000     gdi32:GDI32.dll
 0000:fff33000       .debug$S                   00400000     gdi32:GDI32.dll
 0000:fff33000       .debug$S                   00400000     gdi32:GDI32.dll
 0000:fff33000       .debug$S                   00400000     gdi32:GDI32.dll
 0000:fff33000       .debug$S                   00400000     gdi32:GDI32.dll
 0000:fff33000       .debug$S                   00400000     gdi32:GDI32.dll
 0000:fff33000       .debug$S                   00400000     gdi32:GDI32.dll
 0000:fff33000       .debug$S                   00400000     gdi32:GDI32.dll
 0000:fff33000       .debug$S                   00400000     gdi32:GDI32.dll
 0000:fff33000       .debug$S                   00400000     gdi32:GDI32.dll
 0000:fff33000       .debug$S                   00400000     gdi32:GDI32.dll
 0000:fff33000       .debug$S                   00400000     gdi32:GDI32.dll
 0000:fff33000       .debug$S                   00400000     gdi32:GDI32.dll
 0000:fff33000       .debug$S                   00400000     gdi32:GDI32.dll
 0000:fff33000       .debug$S                   00400000     gdi32:GDI32.dll
 0000:fff33000       .debug$S                   00400000     opengl32:OPENGL32.dll
 0000:fff33000       .debug$S                   00400000     user32:USER32.dll
 0000:fff33000       .debug$S                   00400000     user32:USER32.dll
 0000:fff33000       .debug$S                   00400000     user32:USER32.dll
 0000:fff33000       .debug$S                   00400000     user32:USER32.dll
 0000:fff33000       .debug$S                   00400000     user32:USER32.dll
 0000:fff33000       .debug$S                   00400000     user32:USER32.dll
 0000:fff33000       .debug$S                   00400000     user32:USER32.dll
 0000:fff33000       .debug$S                   00400000     user32:USER32.dll
 0000:fff33000       .debug$S                   00400000     user32:USER32.dll
 0000:fff33000       .debug$S                   00400000     user32:USER32.dll
 0000:fff33000       .debug$S                   00400000     user32:USER32.dll
 0000:fff33000       .debug$S                   00400000     user32:USER32.dll
 0000:fff33000       .debug$S                   00400000     user32:USER32.dll
 0000:fff33000       .debug$S                   00400000     user32:USER32.dll
 0000:fff33000       .debug$S                   00400000     user32:USER32.dll
 0000:fff33000       .debug$S                   00400000     user32:USER32.dll
 0000:fff33000       .debug$S                   00400000     user32:USER32.dll
 0000:fff33000       .debug$S                   00400000     user32:USER32.dll
 0000:fff33000       .debug$S                   00400000     user32:USER32.dll
 0000:fff33000       .debug$S                   00400000     user32:USER32.dll
 0000:fff33000       .debug$S                   00400000     user32:USER32.dll
 0000:fff33000       .debug$S                   00400000     user32:USER32.dll
 0000:fff33000       .debug$S                   00400000     user32:USER32.dll
 0000:fff33000       .debug$S                   00400000     user32:USER32.dll
 0000:fff33000       .debug$S                   00400000     user32:USER32.dll
 0000:fff33000       .debug$S                   00400000     user32:USER32.dll
 0000:fff33000       .debug$S                   00400000     user32:USER32.dll
 0000:fff33000       .debug$S                   00400000     user32:USER32.dll
 0000:fff33000       .debug$S                   00400000     user32:USER32.dll
 0000:fff33000       .debug$S                   00400000     user32:USER32.dll
 0000:fff33000       .debug$S                   00400000     user32:USER32.dll
 0000:fff33000       .debug$S                   00400000     user32:USER32.dll
 0000:fff33000       .debug$S                   00400000     user32:USER32.dll
 0000:fff33000       .debug$S                   00400000     user32:USER32.dll
 0000:fff33000       .debug$S                   00400000     user32:USER32.dll
 0000:fff33000       .debug$S                   00400000     user32:USER32.dll
 0000:fff33000       .debug$S                   00400000     user32:USER32.dll
 0000:fff33000       .debug$S                   00400000     user32:USER32.dll
 0000:fff33000       .debug$S                   00400000     user32:USER32.dll
 0000:fff33000       .debug$S                   00400000     user32:USER32.dll
 0000:fff33000       .debug$S                   00400000     user32:USER32.dll
 0000:fff33000       .debug$S                   00400000     user32:USER32.dll
 0000:fff33000       .debug$S                   00400000     user32:USER32.dll
 0000:fff33000       .debug$S                   00400000     user32:USER32.dll
 0000:fff33000       .debug$S                   00400000     user32:USER32.dll
 0000:fff33000       .debug$S                   00400000     user32:USER32.dll
 0000:fff33000       .debug$S                   00400000     user32:USER32.dll
 0000:fff33000       .debug$S                   00400000     user32:USER32.dll
 0000:fff33000       .debug$S                   00400000     user32:USER32.dll
 0000:fff33000       .debug$S                   00400000     user32:USER32.dll
 0000:fff33000       .debug$S                   00400000     user32:USER32.dll
 0000:fff33000       .debug$S                   00400000     user32:USER32.dll
 0000:fff33000       .debug$S                   00400000     user32:USER32.dll
 0000:fff33000       .debug$S                   00400000     user32:USER32.dll
 0000:fff33000       .debug$S                   00400000     user32:USER32.dll
 0000:fff33000       .debug$S                   00400000     user32:USER32.dll
 0000:fff33000       .debug$S                   00400000     user32:USER32.dll
 0000:fff33000       .debug$S                   00400000     user32:USER32.dll
 0000:fff33000       .debug$S                   00400000     user32:USER32.dll
 0000:fff33000       .debug$S                   00400000     user32:USER32.dll
 0001:fffff000       __ehhandler$??1sentry@?$basic_ostream@DU?$char_traits@D@std@@@std@@QAE@XZ 00400000 f   Tokenizer.obj
 0000:fff33000       .debug$S                   00400000     kernel32:KERNEL32.dll
 0000:fff33000       .debug$S                   00400000     kernel32:KERNEL32.dll
 0000:fff33000       .debug$S                   00400000     kernel32:KERNEL32.dll
 0000:fff33000       .debug$S                   00400000     kernel32:KERNEL32.dll
 0000:fff33000       .debug$S                   00400000     kernel32:KERNEL32.dll
 0000:fff33000       .debug$S                   00400000     kernel32:KERNEL32.dll
 0000:fff33000       .debug$S                   00400000     kernel32:KERNEL32.dll
 0000:fff33000       .debug$S                   00400000     kernel32:KERNEL32.dll
 0000:fff33000       .debug$S                   00400000     kernel32:KERNEL32.dll
 0000:fff33000       .debug$S                   00400000     kernel32:KERNEL32.dll
 0000:fff33000       .debug$S                   00400000     kernel32:KERNEL32.dll
 0000:fff33000       .debug$S                   00400000     kernel32:KERNEL32.dll
 0000:fff33000       .debug$S                   00400000     kernel32:KERNEL32.dll
 0000:fff33000       .debug$S                   00400000     kernel32:KERNEL32.dll
 0000:fff33000       .debug$S                   00400000     kernel32:KERNEL32.dll
 0000:fff33000       .debug$S                   00400000     kernel32:KERNEL32.dll
 0000:fff33000       .debug$S                   00400000     kernel32:KERNEL32.dll
 0000:fff33000       .debug$S                   00400000     kernel32:KERNEL32.dll
 0000:fff33000       .debug$S                   00400000     kernel32:KERNEL32.dll
 0000:fff33000       .debug$S                   00400000     kernel32:KERNEL32.dll
 0000:fff33000       .debug$S                   00400000     kernel32:KERNEL32.dll
 0000:fff33000       .debug$S                   00400000     kernel32:KERNEL32.dll
 0000:fff33000       .debug$S                   00400000     kernel32:KERNEL32.dll
 0000:fff33000       .debug$S                   00400000     kernel32:KERNEL32.dll
 0000:fff33000       .debug$S                   00400000     kernel32:KERNEL32.dll
 0000:fff33000       .debug$S                   00400000     kernel32:KERNEL32.dll
 0000:fff33000       .debug$S                   00400000     kernel32:KERNEL32.dll
 0000:fff33000       .debug$S                   00400000     kernel32:KERNEL32.dll
 0000:fff33000       .debug$S                   00400000     kernel32:KERNEL32.dll
 0000:fff33000       .debug$S                   00400000     opengl32:OPENGL32.dll
 0000:fff33000       .debug$S                   00400000     glu32:GLU32.dll
 0000:fff33000       .debug$S                   00400000     glu32:GLU32.dll
 0000:fff33000       .debug$S                   00400000     glu32:GLU32.dll
 0000:fff33000       .debug$S                   00400000     glu32:GLU32.dll
 0000:fff33000       .debug$S                   00400000     glu32:GLU32.dll
 0000:fff33000       .debug$S                   00400000     glu32:GLU32.dll
 0000:fff33000       .debug$S                   00400000     glu32:GLU32.dll
 0000:fff33000       .debug$S                   00400000     glu32:GLU32.dll
 0000:fff33000       .debug$S                   00400000     glu32:GLU32.dll
 0000:fff33000       .debug$S                   00400000     glu32:GLU32.dll
 0000:fff33000       .debug$S                   00400000     glu32:GLU32.dll
 0000:fff33000       .debug$S                   00400000     glu32:GLU32.dll
 0000:fff33000       .debug$S                   00400000     opengl32:OPENGL32.dll
 0000:fff33000       .debug$S                   00400000     opengl32:OPENGL32.dll
 0000:fff33000       .debug$S                   00400000     opengl32:OPENGL32.dll
 0000:fff33000       .debug$S                   00400000     opengl32:OPENGL32.dll
 0000:fff33000       .debug$S                   00400000     opengl32:OPENGL32.dll
 0000:fff33000       .debug$S                   00400000     opengl32:OPENGL32.dll
 0000:fff33000       .debug$S                   00400000     opengl32:OPENGL32.dll
 0000:fff33000       .debug$S                   00400000     opengl32:OPENGL32.dll
 0000:fff33000       .debug$S                   00400000     opengl32:OPENGL32.dll
 0000:fff33000       .debug$S                   00400000     opengl32:OPENGL32.dll
 0000:fff33000       .debug$S                   00400000     opengl32:OPENGL32.dll
 0000:fff33000       .debug$S                   00400000     opengl32:OPENGL32.dll
 0000:fff33000       .debug$S                   00400000     opengl32:OPENGL32.dll
 0000:fff33000       .debug$S                   00400000     opengl32:OPENGL32.dll
 0000:fff33000       .debug$S                   00400000     opengl32:OPENGL32.dll
 0000:fff33000       .debug$S                   00400000     opengl32:OPENGL32.dll
 0000:fff33000       .debug$S                   00400000     opengl32:OPENGL32.dll
 0000:fff33000       .debug$S                   00400000     opengl32:OPENGL32.dll
 0000:fff33000       .debug$S                   00400000     opengl32:OPENGL32.dll
 0000:fff33000       .debug$S                   00400000     opengl32:OPENGL32.dll
 0000:fff33000       .debug$S                   00400000     opengl32:OPENGL32.dll
 0000:fff33000       .debug$S                   00400000     opengl32:OPENGL32.dll
 0000:fff33000       .debug$S                   00400000     opengl32:OPENGL32.dll
 0000:fff33000       .debug$S                   00400000     opengl32:OPENGL32.dll
 0000:fff33000       .debug$S                   00400000     opengl32:OPENGL32.dll
 0000:fff33000       .debug$S                   00400000     opengl32:OPENGL32.dll
 0000:fff33000       .debug$S                   00400000     opengl32:OPENGL32.dll
 0000:fff33000       .debug$S                   00400000     opengl32:OPENGL32.dll
 0000:fff33000       .debug$S                   00400000     opengl32:OPENGL32.dll
 0000:fff33000       .debug$S                   00400000     opengl32:OPENGL32.dll
 0000:fff33000       .debug$S                   00400000     opengl32:OPENGL32.dll
 0000:fff33000       .debug$S                   00400000     opengl32:OPENGL32.dll
 0000:fff33000       .debug$S                   00400000     opengl32:OPENGL32.dll
 0000:fff33000       .debug$S                   00400000     opengl32:OPENGL32.dll
 0000:fff33000       .debug$S                   00400000     opengl32:OPENGL32.dll
 0000:fff33000       .debug$S                   00400000     opengl32:OPENGL32.dll
 0000:fff33000       .debug$S                   00400000     opengl32:OPENGL32.dll
 0000:fff33000       .debug$S                   00400000     opengl32:OPENGL32.dll
 0000:fff33000       .debug$S                   00400000     opengl32:OPENGL32.dll
 0000:fff33000       .debug$S                   00400000     opengl32:OPENGL32.dll
 0000:fff33000       .debug$S                   00400000     opengl32:OPENGL32.dll
 0000:fff33000       .debug$S                   00400000     opengl32:OPENGL32.dll
 0000:fff33000       .debug$S                   00400000     opengl32:OPENGL32.dll
 0000:fff33000       .debug$S                   00400000     opengl32:OPENGL32.dll
 0000:fff33000       .debug$S                   00400000     opengl32:OPENGL32.dll
 0000:fff33000       .debug$S                   00400000     opengl32:OPENGL32.dll
 0000:fff33000       .debug$S                   00400000     opengl32:OPENGL32.dll
 0000:fff33000       .debug$S                   00400000     opengl32:OPENGL32.dll
 0000:fff33000       .debug$S                   00400000     opengl32:OPENGL32.dll
 0000:fff33000       .debug$S                   00400000     opengl32:OPENGL32.dll
 0000:fff33000       .debug$S                   00400000     opengl32:OPENGL32.dll
 0000:fff33000       .debug$S                   00400000     opengl32:OPENGL32.dll
 0000:fff33000       .debug$S                   00400000     opengl32:OPENGL32.dll
 0000:fff33000       .debug$S                   00400000     opengl32:OPENGL32.dll
 0000:fff33000       .debug$S                   00400000     opengl32:OPENGL32.dll
 0000:fff33000       .debug$S                   00400000     opengl32:OPENGL32.dll
 0000:fff33000       .debug$S                   00400000     opengl32:OPENGL32.dll
 0000:fff33000       .debug$S                   00400000     opengl32:OPENGL32.dll
 0000:fff33000       .debug$S                   00400000     opengl32:OPENGL32.dll
 0002:fff71004       __guard_fids__             00400004     MSVCRT:exe_main.obj
 0002:fff71008       __ehfuncinfo$??1sentry@?$basic_ostream@DU?$char_traits@D@std@@@std@@QAE@XZ 00400008     Parser.obj
 0002:fff71008       __ehfuncinfo$??0SyntaxErrorException@@QAE@ABV0@@Z 00400008     Tokenizer.obj
 0001:fffff008       __unwindfunclet$??$?6U?$char_traits@D@std@@@std@@YAAAV?$basic_ostream@DU?$char_traits@D@std@@@0@AAV10@PBD@Z$2 00400008 f   Token.obj
 0001:fffff008       __unwindfunclet$??$?6U?$char_traits@D@std@@@std@@YAAAV?$basic_ostream@DU?$char_traits@D@std@@@0@AAV10@PBD@Z$2 00400008 f   Parser.obj
 0001:fffff008       __unwindfunclet$??$?6U?$char_traits@D@std@@@std@@YAAAV?$basic_ostream@DU?$char_traits@D@std@@@0@AAV10@PBD@Z$2 00400008 f   ParserException.obj
 0001:fffff008       __unwindfunclet$??$_Insert_string@DU?$char_traits@D@std@@I@std@@YAAAV?$basic_ostream@DU?$char_traits@D@std@@@0@AAV10@QBDI@Z$2 00400008 f   ParserException.obj
 0002:fff71008       __guard_fids__             00400008     MSVCRT:exe_main.obj
 0001:fffff008       __unwindfunclet$??$?6U?$char_traits@D@std@@@std@@YAAAV?$basic_ostream@DU?$char_traits@D@std@@@0@AAV10@PBD@Z$2 00400008 f   debuggingView.obj
 0002:fff71008       __ehfuncinfo$??1sentry@?$basic_ostream@DU?$char_traits@D@std@@@std@@QAE@XZ 00400008     TraceGLWindow.obj
 0001:fffff008       __unwindfunclet$??$?6U?$char_traits@D@std@@@std@@YAAAV?$basic_ostream@DU?$char_traits@D@std@@@0@AAV10@PBD@Z$2 00400008 f   material.obj
 0001:fffff008       __unwindfunclet$??1Fl_Browser@@UAE@XZ$1 00400008 f   fltk:Fl_Browser.obj
 0002:fff71008       __ehfuncinfo$??1sentry@?$basic_ostream@DU?$char_traits@D@std@@@std@@QAE@XZ 00400008     Tokenizer.obj
 0002:fff71008       __ehfuncinfo$??1sentry@?$basic_ostream@DU?$char_traits@D@std@@@std@@QAE@XZ 00400008     ParserException.obj
 0001:fffff008       __unwindfunclet$??1Fl_Browser_@@UAE@XZ$1 00400008 f   fltk:Fl_Browser.obj
 0001:fffff008       __ehhandler$??0Fl_Pixmap@@QAE@PBQAD@Z 00400008 f   fltk:Fl_XPM_Image.obj
 0002:fff71008       __ehfuncinfo$??0Fl_Pixmap@@QAE@PBQAD@Z 00400008     fltk:Fl_XPM_Image.obj
 0002:fff71008       __ehfuncinfo$?str@?$basic_ostringstream@DU?$char_traits@D@std@@V?$allocator@D@2@@std@@QBE?AV?$basic_string@DU?$char_traits@D@std@@V?$allocator@D@2@@2@XZ 00400008     Tokenizer.obj
 0001:fffff008       __unwindfunclet$??$?6U?$char_traits@D@std@@@std@@YAAAV?$basic_ostream@DU?$char_traits@D@std@@@0@AAV10@D@Z$2 00400008 f   Tokenizer.obj
 0001:fffff008       __unwindfunclet$??$?6U?$char_traits@D@std@@@std@@YAAAV?$basic_ostream@DU?$char_traits@D@std@@@0@AAV10@PBD@Z$2 00400008 f   TraceGLWindow.obj
 0002:fff71008       __ehfuncinfo$??1sentry@?$basic_ostream@DU?$char_traits@D@std@@@std@@QAE@XZ 00400008     material.obj
 0001:fffff008       __unwindfunclet$??$?6U?$char_traits@D@std@@@std@@YAAAV?$basic_ostream@DU?$char_traits@D@std@@@0@AAV10@PBD@Z$2 00400008 f   Tokenizer.obj
 0001:fffff008       __unwindfunclet$??$_Insert_string@DU?$char_traits@D@std@@I@std@@YAAAV?$basic_ostream@DU?$char_traits@D@std@@@0@AAV10@QBDI@Z$2 00400008 f   Token.obj
 0001:fffff008       __unwindfunclet$??$_Insert_string@DU?$char_traits@D@std@@I@std@@YAAAV?$basic_ostream@DU?$char_traits@D@std@@@0@AAV10@QBDI@Z$2 00400008 f   Parser.obj
 0002:fff71008       __ehfuncinfo$??1sentry@?$basic_ostream@DU?$char_traits@D@std@@@std@@QAE@XZ 00400008     debuggingView.obj
 0001:fffff008       __ehhandler$??0SyntaxErrorException@@QAE@ABV0@@Z 00400008 f   Tokenizer.obj
 0001:fffff008       __unwindfunclet$??$_Insert_string@DU?$char_traits@D@std@@I@std@@YAAAV?$basic_ostream@DU?$char_traits@D@std@@@0@AAV10@QBDI@Z$2 00400008 f   buffer.obj
 0001:fffff008       __unwindfunclet$??$?6U?$char_traits@D@std@@@std@@YAAAV?$basic_ostream@DU?$char_traits@D@std@@@0@AAV10@PBD@Z$2 00400008 f   buffer.obj
 0002:fff71008       __ehfuncinfo$?str@?$basic_ostringstream@DU?$char_traits@D@std@@V?$allocator@D@2@@std@@QBE?AV?$basic_string@DU?$char_traits@D@std@@V?$allocator@D@2@@2@XZ 00400008     Token.obj
 0001:fffff008       __ehhandler$??0Fl_Pixmap@@QAE@PBQBD@Z 00400008 f   fltk:Fl_Pixmap.obj
 0002:fff71008       __ehfuncinfo$??0Fl_Pixmap@@QAE@PBQBD@Z 00400008     fltk:Fl_Pixmap.obj
 0002:fff71008       __ehfuncinfo$??1sentry@?$basic_ostream@DU?$char_traits@D@std@@@std@@QAE@XZ 00400008     Token.obj
 0002:fff71008       __ehfuncinfo$??1sentry@?$basic_ostream@DU?$char_traits@D@std@@@std@@QAE@XZ 00400008     buffer.obj
 0001:fffff010       __ehhandler$??$_Insert_string@DU?$char_traits@D@std@@I@std@@YAAAV?$basic_ostream@DU?$char_traits@D@std@@@0@AAV10@QBDI@Z 00400010 f   Parser.obj
 0001:fffff010       __ehhandler$??$?6U?$char_traits@D@std@@@std@@YAAAV?$basic_ostream@DU?$char_traits@D@std@@@0@AAV10@PBD@Z 00400010 f   TraceGLWindow.obj
 0002:fff71010       __tryblocktable$??$?6U?$char_traits@D@std@@@std@@YAAAV?$basic_ostream@DU?$char_traits@D@std@@@0@AAV10@PBD@Z 00400010     buffer.obj
 0002:fff71010       __tryblocktable$??$?6U?$char_traits@D@std@@@std@@YAAAV?$basic_ostream@DU?$char_traits@D@std@@@0@AAV10@PBD@Z 00400010     TraceGLWindow.obj
 0002:fff71010       __tryblocktable$??$_Insert_string@DU?$char_traits@D@std@@I@std@@YAAAV?$basic_ostream@DU?$char_traits@D@std@@@0@AAV10@QBDI@Z 00400010     Token.obj
 0002:fff71010       __tryblocktable$??$?6U?$char_traits@D@std@@@std@@YAAAV?$basic_ostream@DU?$char_traits@D@std@@@0@AAV10@PBD@Z 00400010     Tokenizer.obj
 0001:fffff010       __ehhandler$??$_Insert_string@DU?$char_traits@D@std@@I@std@@YAAAV?$basic_ostream@DU?$char_traits@D@std@@@0@AAV10@QBDI@Z 00400010 f   Token.obj
 0002:fff71010       __tryblocktable$??$?6U?$char_traits@D@std@@@std@@YAAAV?$basic_ostream@DU?$char_traits@D@std@@@0@AAV10@PBD@Z 00400010     Token.obj
 0002:fff71010       __tryblocktable$??$?6U?$char_traits@D@std@@@std@@YAAAV?$basic_ostream@DU?$char_traits@D@std@@@0@AAV10@PBD@Z 00400010     ParserException.obj
 0002:fff71010       __tryblocktable$??$?6U?$char_traits@D@std@@@std@@YAAAV?$basic_ostream@DU?$char_traits@D@std@@@0@AAV10@PBD@Z 00400010     Parser.obj
 0002:fff71010       __tryblocktable$??$_Insert_string@DU?$char_traits@D@std@@I@std@@YAAAV?$basic_ostream@DU?$char_traits@D@std@@@0@AAV10@QBDI@Z 00400010     buffer.obj
 0001:fffff010       __ehhandler$??$_Insert_string@DU?$char_traits@D@std@@I@std@@YAAAV?$basic_ostream@DU?$char_traits@D@std@@@0@AAV10@QBDI@Z 00400010 f   buffer.obj
 0001:fffff010       __ehhandler$??$_Insert_string@DU?$char_traits@D@std@@I@std@@YAAAV?$basic_ostream@DU?$char_traits@D@std@@@0@AAV10@QBDI@Z 00400010 f   ParserException.obj
 0002:fff71010       __ehfuncinfo$??1Fl_Browser_@@UAE@XZ 00400010     fltk:Fl_Browser.obj
 0001:fffff010       __ehhandler$??$?6U?$char_traits@D@std@@@std@@YAAAV?$basic_ostream@DU?$char_traits@D@std@@@0@AAV10@PBD@Z 00400010 f   Tokenizer.obj
 0001:fffff010       __unwindfunclet$??1Fl_Browser@@UAE@XZ$2 00400010 f   fltk:Fl_Browser.obj
 0002:fff71010       __ehfuncinfo$??0?$basic_ostringstream@DU?$char_traits@D@std@@V?$allocator@D@2@@std@@QAE@H@Z 00400010     Tokenizer.obj
 0001:fffff010       __ehhandler$??$?6U?$char_traits@D@std@@@std@@YAAAV?$basic_ostream@DU?$char_traits@D@std@@@0@AAV10@PBD@Z 00400010 f   Token.obj
 0002:fff71010       __tryblocktable$??$_Insert_string@DU?$char_traits@D@std@@I@std@@YAAAV?$basic_ostream@DU?$char_traits@D@std@@@0@AAV10@QBDI@Z 00400010     ParserException.obj
 0001:fffff010       __ehhandler$??$?6U?$char_traits@D@std@@@std@@YAAAV?$basic_ostream@DU?$char_traits@D@std@@@0@AAV10@PBD@Z 00400010 f   debuggingView.obj
 0001:fffff010       __ehhandler$??$?6U?$char_traits@D@std@@@std@@YAAAV?$basic_ostream@DU?$char_traits@D@std@@@0@AAV10@D@Z 00400010 f   Tokenizer.obj
 0001:fffff010       __ehhandler$??$?6U?$char_traits@D@std@@@std@@YAAAV?$basic_ostream@DU?$char_traits@D@std@@@0@AAV10@PBD@Z 00400010 f   Parser.obj
 0002:fff71010       __tryblocktable$??$?6U?$char_traits@D@std@@@std@@YAAAV?$basic_ostream@DU?$char_traits@D@std@@@0@AAV10@D@Z 00400010     Tokenizer.obj
 0001:fffff010       __ehhandler$??$?6U?$char_traits@D@std@@@std@@YAAAV?$basic_ostream@DU?$char_traits@D@std@@@0@AAV10@PBD@Z 00400010 f   material.obj
 0002:fff71010       __tryblocktable$??$?6U?$char_traits@D@std@@@std@@YAAAV?$basic_ostream@DU?$char_traits@D@std@@@0@AAV10@PBD@Z 00400010     material.obj
 0002:fff71010       __tryblocktable$??$?6U?$char_traits@D@std@@@std@@YAAAV?$basic_ostream@DU?$char_traits@D@std@@@0@AAV10@PBD@Z 00400010     debuggingView.obj
 0001:fffff010       __ehhandler$??$?6U?$char_traits@D@std@@@std@@YAAAV?$basic_ostream@DU?$char_traits@D@std@@@0@AAV10@PBD@Z 00400010 f   buffer.obj
 0002:fff71010       __tryblocktable$??$_Insert_string@DU?$char_traits@D@std@@I@std@@YAAAV?$basic_ostream@DU?$char_traits@D@std@@@0@AAV10@QBDI@Z 00400010     Parser.obj
 0001:fffff010       __ehhandler$??$?6U?$char_traits@D@std@@@std@@YAAAV?$basic_ostream@DU?$char_traits@D@std@@@0@AAV10@PBD@Z 00400010 f   ParserException.obj
 0001:fffff016       __ehhandler$??1Fl_Browser_@@UAE@XZ 00400016 f   fltk:Fl_Browser.obj
 0002:fff71018       __ehfuncinfo$??1Fl_Browser@@UAE@XZ 00400018     fltk:Fl_Browser.obj
 0001:fffff019       __ehhandler$?str@?$basic_ostringstream@DU?$char_traits@D@std@@V?$allocator@D@2@@std@@QBE?AV?$basic_string@DU?$char_traits@D@std@@V?$allocator@D@2@@2@XZ 00400019 f   Tokenizer.obj
 0001:fffff019       __ehhandler$?str@?$basic_ostringstream@DU?$char_traits@D@std@@V?$allocator@D@2@@std@@QBE?AV?$basic_string@DU?$char_traits@D@std@@V?$allocator@D@2@@2@XZ 00400019 f   Token.obj
 0001:fffff01d       __unwindfunclet$??0?$basic_ostringstream@DU?$char_traits@D@std@@V?$allocator@D@2@@std@@QAE@H@Z$1 0040001d f   Tokenizer.obj
 0001:fffff01e       __ehhandler$??1Fl_Browser@@UAE@XZ 0040001e f   fltk:Fl_Browser.obj
 0002:fff71024       __ehfuncinfo$??$?6U?$char_traits@D@std@@@std@@YAAAV?$basic_ostream@DU?$char_traits@D@std@@@0@AAV10@PBD@Z 00400024     material.obj
 0002:fff71024       __ehfuncinfo$??$?6U?$char_traits@D@std@@@std@@YAAAV?$basic_ostream@DU?$char_traits@D@std@@@0@AAV10@PBD@Z 00400024     Token.obj
 0002:fff71024       __ehfuncinfo$??$?6U?$char_traits@D@std@@@std@@YAAAV?$basic_ostream@DU?$char_traits@D@std@@@0@AAV10@D@Z 00400024     Tokenizer.obj
 0002:fff71024       __ehfuncinfo$??$?6U?$char_traits@D@std@@@std@@YAAAV?$basic_ostream@DU?$char_traits@D@std@@@0@AAV10@PBD@Z 00400024     debuggingView.obj
 0002:fff71024       __ehfuncinfo$??$_Insert_string@DU?$char_traits@D@std@@I@std@@YAAAV?$basic_ostream@DU?$char_traits@D@std@@@0@AAV10@QBDI@Z 00400024     ParserException.obj
 0002:fff71024       __ehfuncinfo$??$?6U?$char_traits@D@std@@@std@@YAAAV?$basic_ostream@DU?$char_traits@D@std@@@0@AAV10@PBD@Z 00400024     Parser.obj
 0002:fff71024       __ehfuncinfo$??$_Insert_string@DU?$char_traits@D@std@@I@std@@YAAAV?$basic_ostream@DU?$char_traits@D@std@@@0@AAV10@QBDI@Z 00400024     buffer.obj
 0002:fff71024       __ehfuncinfo$??$?6U?$char_traits@D@std@@@std@@YAAAV?$basic_ostream@DU?$char_traits@D@std@@@0@AAV10@PBD@Z 00400024     Tokenizer.obj
 0002:fff71024       __ehfuncinfo$??$?6U?$char_traits@D@std@@@std@@YAAAV?$basic_ostream@DU?$char_traits@D@std@@@0@AAV10@PBD@Z 00400024     ParserException.obj
 0002:fff71024       __ehfuncinfo$??$_Insert_string@DU?$char_traits@D@std@@I@std@@YAAAV?$basic_ostream@DU?$char_traits@D@std@@@0@AAV10@QBDI@Z 00400024     Token.obj
 0002:fff71024       __ehfuncinfo$??$_Insert_string@DU?$char_traits@D@std@@I@std@@YAAAV?$basic_ostream@DU?$char_traits@D@std@@@0@AAV10@QBDI@Z 00400024     Parser.obj
 0002:fff71024       __ehfuncinfo$??$?6U?$char_traits@D@std@@@std@@YAAAV?$basic_ostream@DU?$char_traits@D@std@@@0@AAV10@PBD@Z 00400024     TraceGLWindow.obj
 0002:fff71024       __ehfuncinfo$??$?6U?$char_traits@D@std@@@std@@YAAAV?$basic_ostream@DU?$char_traits@D@std@@@0@AAV10@PBD@Z 00400024     buffer.obj
 0001:fffff029       __ehhandler$??0?$basic_ostringstream@DU?$char_traits@D@std@@V?$allocator@D@2@@std@@QAE@H@Z 00400029 f   Tokenizer.obj
 0002:fff71048       __unwindtable$??$_Insert_string@DU?$char_traits@D@std@@I@std@@YAAAV?$basic_ostream@DU?$char_traits@D@std@@@0@AAV10@QBDI@Z 00400048     ParserException.obj
 0002:fff71048       __unwindtable$??$?6U?$char_traits@D@std@@@std@@YAAAV?$basic_ostream@DU?$char_traits@D@std@@@0@AAV10@PBD@Z 00400048     ParserException.obj
 0002:fff71048       __unwindtable$??$?6U?$char_traits@D@std@@@std@@YAAAV?$basic_ostream@DU?$char_traits@D@std@@@0@AAV10@PBD@Z 00400048     Parser.obj
 0002:fff71048       __unwindtable$??$?6U?$char_traits@D@std@@@std@@YAAAV?$basic_ostream@DU?$char_traits@D@std@@@0@AAV10@PBD@Z 00400048     Tokenizer.obj
 0002:fff71048       __unwindtable$??$?6U?$char_traits@D@std@@@std@@YAAAV?$basic_ostream@DU?$char_traits@D@std@@@0@AAV10@PBD@Z 00400048     material.obj
 0002:fff71048       __unwindtable$??$?6U?$char_traits@D@std@@@std@@YAAAV?$basic_ostream@DU?$char_traits@D@std@@@0@AAV10@PBD@Z 00400048     debuggingView.obj
 0002:fff71048       __unwindtable$??$?6U?$char_traits@D@std@@@std@@YAAAV?$basic_ostream@DU?$char_traits@D@std@@@0@AAV10@PBD@Z 00400048     TraceGLWindow.obj
 0002:fff71048       __unwindtable$??$?6U?$char_traits@D@std@@@std@@YAAAV?$basic_ostream@DU?$char_traits@D@std@@@0@AAV10@PBD@Z 00400048     Token.obj
 0002:fff71048       __unwindtable$??$_Insert_string@DU?$char_traits@D@std@@I@std@@YAAAV?$basic_ostream@DU?$char_traits@D@std@@@0@AAV10@QBDI@Z 00400048     buffer.obj
 0002:fff71048       __unwindtable$??$_Insert_string@DU?$char_traits@D@std@@I@std@@YAAAV?$basic_ostream@DU?$char_traits@D@std@@@0@AAV10@QBDI@Z 00400048     Token.obj
 0002:fff71048       __unwindtable$??$?6U?$char_traits@D@std@@@std@@YAAAV?$basic_ostream@DU?$char_traits@D@std@@@0@AAV10@PBD@Z 00400048     buffer.obj
 0002:fff71048       __unwindtable$??$?6U?$char_traits@D@std@@@std@@YAAAV?$basic_ostream@DU?$char_traits@D@std@@@0@AAV10@D@Z 00400048     Tokenizer.obj
 0002:fff71048       __unwindtable$??$_Insert_string@DU?$char_traits@D@std@@I@std@@YAAAV?$basic_ostream@DU?$char_traits@D@std@@@0@AAV10@QBDI@Z 00400048     Parser.obj
 0001:fffff184       __catch$??$?6U?$char_traits@D@std@@@std@@YAAAV?$basic_ostream@DU?$char_traits@D@std@@@0@AAV10@D@Z$0 00400184 f   Tokenizer.obj
 0001:fffff187       __catch$??$_Insert_string@DU?$char_traits@D@std@@I@std@@YAAAV?$basic_ostream@DU?$char_traits@D@std@@@0@AAV10@QBDI@Z$0 00400187 f   Parser.obj
 0001:fffff187       __catch$??$_Insert_string@DU?$char_traits@D@std@@I@std@@YAAAV?$basic_ostream@DU?$char_traits@D@std@@@0@AAV10@QBDI@Z$0 00400187 f   Token.obj
 0001:fffff187       __catch$??$_Insert_string@DU?$char_traits@D@std@@I@std@@YAAAV?$basic_ostream@DU?$char_traits@D@std@@@0@AAV10@QBDI@Z$0 00400187 f   ParserException.obj
 0001:fffff187       __catch$??$_Insert_string@DU?$char_traits@D@std@@I@std@@YAAAV?$basic_ostream@DU?$char_traits@D@std@@@0@AAV10@QBDI@Z$0 00400187 f   buffer.obj
 0001:fffff1c5       __catch$??$?6U?$char_traits@D@std@@@std@@YAAAV?$basic_ostream@DU?$char_traits@D@std@@@0@AAV10@PBD@Z$0 004001c5 f   debuggingView.obj
 0001:fffff1c5       __catch$??$?6U?$char_traits@D@std@@@std@@YAAAV?$basic_ostream@DU?$char_traits@D@std@@@0@AAV10@PBD@Z$0 004001c5 f   material.obj
 0001:fffff1c5       __catch$??$?6U?$char_traits@D@std@@@std@@YAAAV?$basic_ostream@DU?$char_traits@D@std@@@0@AAV10@PBD@Z$0 004001c5 f   TraceGLWindow.obj
 0001:fffff1c5       __catch$??$?6U?$char_traits@D@std@@@std@@YAAAV?$basic_ostream@DU?$char_traits@D@std@@@0@AAV10@PBD@Z$0 004001c5 f   Token.obj
 0001:fffff1c5       __catch$??$?6U?$char_traits@D@std@@@std@@YAAAV?$basic_ostream@DU?$char_traits@D@std@@@0@AAV10@PBD@Z$0 004001c5 f   buffer.obj
 0001:fffff1c5       __catch$??$?6U?$char_traits@D@std@@@std@@YAAAV?$basic_ostream@DU?$char_traits@D@std@@@0@AAV10@PBD@Z$0 004001c5 f   Parser.obj
 0001:fffff1c5       __catch$??$?6U?$char_traits@D@std@@@std@@YAAAV?$basic_ostream@DU?$char_traits@D@std@@@0@AAV10@PBD@Z$0 004001c5 f   Tokenizer.obj
 0001:fffff1c5       __catch$??$?6U?$char_traits@D@std@@@std@@YAAAV?$basic_ostream@DU?$char_traits@D@std@@@0@AAV10@PBD@Z$0 004001c5 f   ParserException.obj
 0001:00000790       ?nothing@@YAXPAVFl_Widget@@@Z 00401790 f   fltk:Fl.obj
 0001:00001110       $LN186                     00402110     fltk:Fl.obj
 0001:00001170       ?send_handlers@@YAHH@Z     00402170 f   fltk:Fl.obj
 0001:000011b0       ?send@@YAHHPAVFl_Widget@@PAVFl_Window@@@Z 004021b0 f   fltk:Fl.obj
 0001:000020f0       ?nothing@@YAXXZ            004030f0 f   fltk:Fl.obj
 0001:00002490       ?run_checks@@YAXXZ         00403490 f   fltk:Fl.obj
 0001:00003980       ?WndProc@@YGJPAUHWND__@@IIJ@Z 00404980 f   fltk:Fl.obj
 0001:00004564       $LN152                     00405564     fltk:Fl.obj
 0001:0000459c       $LN149                     0040559c     fltk:Fl.obj
 0001:00004624       $LN153                     00405624     fltk:Fl.obj
 0001:0000463c       $LN154                     0040563c     fltk:Fl.obj
 0001:0000466c       $LN150                     0040566c     fltk:Fl.obj
 0001:00004710       $LN155                     00405710     fltk:Fl.obj
 0001:00004724       $LN151                     00405724     fltk:Fl.obj
 0001:00004730       $LN156                     00405730     fltk:Fl.obj
 0001:00004770       ?mouse_event@@YAHPAVFl_Window@@HHIJ@Z 00405770 f   fltk:Fl.obj
 0001:00004a10       ?ms2fltk@@YAHHH@Z          00405a10 f   fltk:Fl.obj
 0001:00004d70       ?realloc_timers@@YAXXZ     00405d70 f   fltk:Fl.obj
 0001:00004e20       ?s_TimerProc@@YGJPAUHWND__@@IIJ@Z 00405e20 f   fltk:Fl.obj
 0001:00004ed0       ?delete_timer@@YAXAAUWin32Timer@@@Z 00405ed0 f   fltk:Fl.obj
 0001:00006420       ?cleanup_readqueue@@YAXPAVFl_Widget@@@Z 00407420 f   fltk:Fl_Widget.obj
 0001:000066a0       $LN29                      004076a0     fltk:Fl_Widget.obj
 0001:000066a8       $LN28                      004076a8     fltk:Fl_Widget.obj
 0001:00007398       $LN161                     00408398     fltk:Fl_Group.obj
 0001:000073c8       $LN160                     004083c8     fltk:Fl_Group.obj
 0001:000073e0       $LN162                     004083e0     fltk:Fl_Group.obj
 0001:000073f0       ?send@@YAHPAVFl_Widget@@H@Z 004083f0 f   fltk:Fl_Group.obj
 0001:00007500       ?navkey@@YAHXZ             00408500 f   fltk:Fl_Group.obj
 0001:00007738       $LN49                      00408738     fltk:Fl_Group.obj
 0001:000092cc       $LN34                      0040a2cc     fltk:Fl_Menu_Bar.obj
 0001:000092dc       $LN33                      0040a2dc     fltk:Fl_Menu_Bar.obj
 0001:000096a8       $LN10                      0040a6a8     fltk:fl_ask.obj
 0001:00009720       ?innards@@YAHPBDPAD000@Z   0040a720 f   fltk:fl_ask.obj
 0001:00009ab0       ?makeform@@YAPAVFl_Window@@XZ 0040aab0 f   fltk:fl_ask.obj
 0001:0000a050       ?input_innards@@YAPBDPBDPAD0E@Z 0040b050 f   fltk:fl_ask.obj
 0001:0000b71c       $LN187                     0040c71c     fltk:Fl_Button.obj
 0001:0000cd10       ?isword@@YAHD@Z            0040dd10 f   fltk:Fl_Input_.obj
 0001:0000de00       ?undobuffersize@@YAXH@Z    0040ee00 f   fltk:Fl_Input_.obj
 0001:0000e73c       $LN113                     0040f73c     fltk:Fl_Input_.obj
 0001:0000e764       $LN112                     0040f764     fltk:Fl_Input_.obj
 0001:0000fc94       $LN336                     00410c94     fltk:Fl_Input.obj
 0001:0000fccc       $LN334                     00410ccc     fltk:Fl_Input.obj
 0001:0000fdc4       $LN337                     00410dc4     fltk:Fl_Input.obj
 0001:0000fe04       $LN335                     00410e04     fltk:Fl_Input.obj
 0001:00010674       $LN172                     00411674     fltk:Fl_Input.obj
 0001:0001069c       $LN171                     0041169c     fltk:Fl_Input.obj
 0001:00015860       ?compare_dirnames@@YAHPBD0@Z 00416860 f   fltk:Fl_File_Chooser2.obj
 0001:00015900       ?quote_pathname@@YAXPADPBDH@Z 00416900 f   fltk:Fl_File_Chooser2.obj
 0001:00015990       ?unquote_pathname@@YAXPADPBDH@Z 00416990 f   fltk:Fl_File_Chooser2.obj
 0001:00015d30       ?callback@@YAXPAVFl_File_Chooser@@PAX@Z 00416d30 f   fltk:fl_file_dir.obj
 0001:0001b050       ?max@@YAHHH@Z              0041c050 f   fltk:Fl_Text_Display.obj
 0001:0001b080       ?min@@YAHHH@Z              0041c080 f   fltk:Fl_Text_Display.obj
 0001:0001b0b0       ?countlines@@YAHPBD@Z      0041c0b0 f   fltk:Fl_Text_Display.obj
 0001:0001ce84       $LN10                      0041de84     fltk:Fl_Text_Display.obj
 0001:0001da24       $LN179                     0041ea24     fltk:Fl_Text_Display.obj
 0001:0001da4c       $LN178                     0041ea4c     fltk:Fl_Text_Display.obj
 0001:0001e0f0       ?recent_timeout@@YAXPAX@Z  0041f0f0 f   fltk:Fl_Tooltip.obj
 0001:0001e100       ?tooltip_timeout@@YAXPAX@Z 0041f100 f   fltk:Fl_Tooltip.obj
 0001:0001f470       ?unlock_ring@@YAXXZ        00420470 f   fltk:Fl_lock.obj
 0001:0001f490       ?lock_ring@@YAXXZ          00420490 f   fltk:Fl_lock.obj
 0001:0001f520       ?unlock_function@@YAXXZ    00420520 f   fltk:Fl_lock.obj
 0001:0001f530       ?lock_function@@YAXXZ      00420530 f   fltk:Fl_lock.obj
 0001:0001f590       ?screen_init@@YAXXZ        00420590 f   fltk:screen_xywh.obj
 0001:0001f620       ?screen_cb@@YGHPAUHMONITOR__@@PAUHDC__@@PAUtagRECT@@J@Z 00420620 f   fltk:screen_xywh.obj
 0001:00020690       ?set_xmap@@YAXAAUFl_XMap@@K@Z 00421690 f   fltk:fl_color.obj
 0001:000207d0       ?clear_xmap@@YAXAAUFl_XMap@@@Z 004217d0 f   fltk:fl_color.obj
 0001:00021000       ?warning@@YAXPBDZZ         00422000 f   fltk:Fl_abort.obj
 0001:00021010       ?error@@YAXPBDZZ           00422010 f   fltk:Fl_abort.obj
 0001:00021080       ?fatal@@YAXPBDZZ           00422080 f   fltk:Fl_abort.obj
 0001:000214c4       $LN17                      004224c4     fltk:Fl_get_system_colors.obj
 0001:00021560       ?set_selection_color@@YAXEEE@Z 00422560 f   fltk:Fl_get_system_colors.obj
 0001:00021580       ?getsyscolor@@YAXHPBDP6AXEEE@Z@Z 00422580 f   fltk:Fl_get_system_colors.obj
 0001:00021e6c       $LN12                      00422e6c     fltk:fl_font.obj
 0001:00021e80       $LN11                      00422e80     fltk:fl_font.obj
 0001:00021f50       ?find@@YAPAVFl_FontSize@@HH@Z 00422f50 f   fltk:fl_font.obj
 0001:000238f4       $LN96                      004248f4     fltk:Fl_Menu.obj
 0001:000251b0       $LN96                      004261b0     fltk:Fl_Menu.obj
 0001:000251c4       $LN94                      004261c4     fltk:Fl_Menu.obj
 0001:000251d0       $LN97                      004261d0     fltk:Fl_Menu.obj
 0001:000251e8       $LN95                      004261e8     fltk:Fl_Menu.obj
 0001:00025230       ?setitem@@YAXHH@Z          00426230 f   fltk:Fl_Menu.obj
 0001:00025290       ?forward@@YAHH@Z           00426290 f   fltk:Fl_Menu.obj
 0001:00025350       ?backward@@YAHH@Z          00426350 f   fltk:Fl_Menu.obj
 0001:00026a50       ?expand@@YAPBDPBDPADNAAHAANHH@Z 00427a50 f   fltk:fl_draw.obj
 0001:000282e0       $LN70                      004292e0     fltk:vsnprintf.obj
 0001:000282fc       $LN69                      004292fc     fltk:vsnprintf.obj
 0001:00029adc       $LN143                     0042aadc     fltk:Fl_Slider.obj
 0001:00029afc       $LN144                     0042aafc     fltk:Fl_Slider.obj
 0001:0002a6c0       $LN201                     0042b6c0     fltk:Fl_Light_Button.obj
 0001:0002a6cc       $LN200                     0042b6cc     fltk:Fl_Light_Button.obj
 0001:0002a6ec       $LN202                     0042b6ec     fltk:Fl_Light_Button.obj
 0001:0002aa58       $LN32                      0042ba58     fltk:fl_cursor.obj
 0001:0002aa88       $LN31                      0042ba88     fltk:fl_cursor.obj
 0001:0002d310       $LN256                     0042e310     fltk:Fl_Browser_.obj
 0001:0002d4d0       ?scrollbar_callback@@YAXPAVFl_Widget@@PAX@Z 0042e4d0 f   fltk:Fl_Browser_.obj
 0001:0002d500       ?hscrollbar_callback@@YAXPAVFl_Widget@@PAX@Z 0042e500 f   fltk:Fl_Browser_.obj
 0001:0002de54       $LN24                      0042ee54     fltk:Fl_File_Input.obj
 0001:0002de64       $LN23                      0042ee64     fltk:Fl_File_Input.obj
 0001:0002e830       ?decodeText@@YAPADPBD@Z    0042f830 f   fltk:Fl_Preferences.obj
 0001:0002ed60       ?decodeHex@@YAPAXPBDAAH@Z  0042fd60 f   fltk:Fl_Preferences.obj
 0001:0002f7d0       ?makePathForFile@@YAXPBD@Z 004307d0 f   fltk:Fl_Preferences.obj
 0001:0002f850       ?makePath@@YADPBD@Z        00430850 f   fltk:Fl_Preferences.obj
 0001:00031bec       $LN61                      00432bec     fltk:Fl_Menu_Button.obj
 0001:00031c04       $LN60                      00432c04     fltk:Fl_Menu_Button.obj
 0001:000326ec       $LN84                      004336ec     fltk:Fl_Choice.obj
 0001:00032704       $LN83                      00433704     fltk:Fl_Choice.obj
 0001:000334f8       $LN98                      004344f8     fltk:Fl_Tile.obj
 0001:00033508       $LN97                      00434508     fltk:Fl_Tile.obj
 0001:00033520       ?set_cursor@@YAXPAVFl_Tile@@W4Fl_Cursor@@@Z 00434520 f   fltk:Fl_Tile.obj
 0001:000352e0       ?fl_create_bitmap@@YAPAUHBITMAP__@@HHPBE@Z 004362e0 f   fltk:Fl_Bitmap.obj
 0001:00035910       _numericsort               00436910 f   fltk:numericsort.obj
 0001:000365d0       $LN51                      004375d0     fltk:Fl_Browser.obj
 0001:00036600       $LN50                      00437600     fltk:Fl_Browser.obj
 0001:000368a4       $LN34                      004378a4     fltk:Fl_Browser.obj
 0001:000368d4       $LN33                      004378d4     fltk:Fl_Browser.obj
 0001:00036d70       $LN58                      00437d70     fltk:Fl_Browser.obj
 0001:00036db8       $LN57                      00437db8     fltk:Fl_Browser.obj
 0001:000381e0       ?insert@@YAPAUFl_Menu_Item@@PAU1@HHPBDH@Z 004391e0 f   fltk:Fl_Menu_add.obj
 0001:00038320       ?compare@@YAHPBD0@Z        00439320 f   fltk:Fl_Menu_add.obj
 0001:00038fb0       $LN53                      00439fb0     fltk:Fl_File_Icon.obj
 0001:00038fcc       $LN54                      00439fcc     fltk:Fl_File_Icon.obj
 0001:00038fdc       $LN55                      00439fdc     fltk:Fl_File_Icon.obj
 0001:0003af48       $LN180                     0043bf48     fltk:Fl_Scrollbar.obj
 0001:0003af64       $LN179                     0043bf64     fltk:Fl_Scrollbar.obj
 0001:0003af78       $LN181                     0043bf78     fltk:Fl_Scrollbar.obj
 0001:0003c260       ?undobuffersize@@YAXH@Z    0043d260 f   fltk:Fl_Text_Buffer.obj
 0001:0003e130       ?histogramCharacters@@YAXPBDHQADH@Z 0043f130 f   fltk:Fl_Text_Buffer.obj
 0001:0003e1a0       ?subsChars@@YAXPADHDD@Z    0043f1a0 f   fltk:Fl_Text_Buffer.obj
 0001:0003e1e0       ?chooseNullSubsChar@@YADQAD@Z 0043f1e0 f   fltk:Fl_Text_Buffer.obj
 0001:0003ec70       ?insertColInLine@@YAXPBDPADHHHHD1PAH2@Z 0043fc70 f   fltk:Fl_Text_Buffer.obj
 0001:0003ef20       ?deleteRectFromLine@@YAXPBDHHHHDPADPAH2@Z 0043ff20 f   fltk:Fl_Text_Buffer.obj
 0001:0003f0e0       ?overlayRectInLine@@YAXPBDPADHHHHD1PAH2@Z 004400e0 f   fltk:Fl_Text_Buffer.obj
 0001:0003f750       ?addPadding@@YAXPADHHHHDPAH@Z 00440750 f   fltk:Fl_Text_Buffer.obj
 0001:00040000       ?copyLine@@YAPADPBDPAH@Z   00441000 f   fltk:Fl_Text_Buffer.obj
 0001:00040080       ?countLines@@YAHPBD@Z      00441080 f   fltk:Fl_Text_Buffer.obj
 0001:000400d0       ?textWidth@@YAHPBDHD@Z     004410d0 f   fltk:Fl_Text_Buffer.obj
 0001:000402b0       ?realignTabs@@YAPADPBDHHHHDPAH@Z 004412b0 f   fltk:Fl_Text_Buffer.obj
 0001:00040370       ?expandTabs@@YAPADPBDHHDPAH@Z 00441370 f   fltk:Fl_Text_Buffer.obj
 0001:00040530       ?unexpandTabs@@YAPADPADHHDPAH@Z 00441530 f   fltk:Fl_Text_Buffer.obj
 0001:00040690       ?max@@YAHHH@Z              00441690 f   fltk:Fl_Text_Buffer.obj
 0001:000406c0       ?min@@YAHHH@Z              004416c0 f   fltk:Fl_Text_Buffer.obj
 0001:00040b80       ?draw@@YAXHHHHHHI@Z        00441b80 f   fltk:fl_round_box.obj
 0001:00041460       ?gtk_color@@YAXW4Fl_Color@@@Z 00442460 f   fltk:fl_gtk.obj
 0001:000414a0       ?draw@@YAXHHHHHH@Z         004424a0 f   fltk:fl_gtk.obj
 0001:000418b0       ?fl_arc_i@@YAXHHHHNN@Z     004428b0 f   fltk:fl_gtk.obj
 0001:00041ab0       ?gtk_up_frame@@YAXHHHHW4Fl_Color@@@Z 00442ab0 f   fltk:fl_gtk.obj
 0001:00041cb0       ?gtk_up_box@@YAXHHHHW4Fl_Color@@@Z 00442cb0 f   fltk:fl_gtk.obj
 0001:00041ed0       ?gtk_down_frame@@YAXHHHHW4Fl_Color@@@Z 00442ed0 f   fltk:fl_gtk.obj
 0001:00042110       ?gtk_down_box@@YAXHHHHW4Fl_Color@@@Z 00443110 f   fltk:fl_gtk.obj
 0001:00042190       ?gtk_thin_up_frame@@YAXHHHHW4Fl_Color@@@Z 00443190 f   fltk:fl_gtk.obj
 0001:00042260       ?gtk_thin_up_box@@YAXHHHHW4Fl_Color@@@Z 00443260 f   fltk:fl_gtk.obj
 0001:00042450       ?gtk_thin_down_frame@@YAXHHHHW4Fl_Color@@@Z 00443450 f   fltk:fl_gtk.obj
 0001:00042520       ?gtk_thin_down_box@@YAXHHHHW4Fl_Color@@@Z 00443520 f   fltk:fl_gtk.obj
 0001:00042610       ?up_frame@@YAXHHHHW4Fl_Color@@@Z 00443610 f   fltk:fl_plastic.obj
 0001:00042640       ?frame_rect@@YAXHHHHPBDW4Fl_Color@@@Z 00443640 f   fltk:fl_plastic.obj
 0001:000428a0       ?thin_up_box@@YAXHHHHW4Fl_Color@@@Z 004438a0 f   fltk:fl_plastic.obj
 0001:00042920       ?shade_rect@@YAXHHHHPBDW4Fl_Color@@@Z 00443920 f   fltk:fl_plastic.obj
 0001:00042ed0       ?narrow_thin_box@@YAXHHHHW4Fl_Color@@@Z 00443ed0 f   fltk:fl_plastic.obj
 0001:00043010       ?up_box@@YAXHHHHW4Fl_Color@@@Z 00444010 f   fltk:fl_plastic.obj
 0001:00043090       ?up_round@@YAXHHHHW4Fl_Color@@@Z 00444090 f   fltk:fl_plastic.obj
 0001:000430e0       ?frame_round@@YAXHHHHPBDW4Fl_Color@@@Z 004440e0 f   fltk:fl_plastic.obj
 0001:000438d0       ?shade_round@@YAXHHHHPBDW4Fl_Color@@@Z 004448d0 f   fltk:fl_plastic.obj
 0001:000440a0       ?down_frame@@YAXHHHHW4Fl_Color@@@Z 004450a0 f   fltk:fl_plastic.obj
 0001:000440d0       ?down_box@@YAXHHHHW4Fl_Color@@@Z 004450d0 f   fltk:fl_plastic.obj
 0001:00044150       ?down_round@@YAXHHHHW4Fl_Color@@@Z 00445150 f   fltk:fl_plastic.obj
 0001:00046440       ?find@@YAHPBD@Z            00447440 f   fltk:fl_symbols.obj
 0001:00046974       $LN32                      00447974     fltk:fl_symbols.obj
 0001:000469a0       ?fl_init_symbols@@YAXXZ    004479a0 f   fltk:fl_symbols.obj
 0001:00046cc0       ?draw_fltk@@YAXW4Fl_Color@@@Z 00447cc0 f   fltk:fl_symbols.obj
 0001:00047520       ?set_outline_color@@YAXW4Fl_Color@@@Z 00448520 f   fltk:fl_symbols.obj
 0001:00047550       ?draw_search@@YAXW4Fl_Color@@@Z 00448550 f   fltk:fl_symbols.obj
 0001:000476c0       ?draw_arrow1@@YAXW4Fl_Color@@@Z 004486c0 f   fltk:fl_symbols.obj
 0001:000478b0       ?draw_arrow1bar@@YAXW4Fl_Color@@@Z 004488b0 f   fltk:fl_symbols.obj
 0001:00047900       ?rectangle@@YAXNNNNW4Fl_Color@@@Z 00448900 f   fltk:fl_symbols.obj
 0001:000479f0       ?draw_arrow2@@YAXW4Fl_Color@@@Z 004489f0 f   fltk:fl_symbols.obj
 0001:00047ad0       ?draw_arrow3@@YAXW4Fl_Color@@@Z 00448ad0 f   fltk:fl_symbols.obj
 0001:00047c70       ?draw_arrowbar@@YAXW4Fl_Color@@@Z 00448c70 f   fltk:fl_symbols.obj
 0001:00047e50       ?draw_arrowbox@@YAXW4Fl_Color@@@Z 00448e50 f   fltk:fl_symbols.obj
 0001:00048030       ?draw_bararrow@@YAXW4Fl_Color@@@Z 00449030 f   fltk:fl_symbols.obj
 0001:00048210       ?draw_doublebar@@YAXW4Fl_Color@@@Z 00449210 f   fltk:fl_symbols.obj
 0001:00048290       ?draw_arrow01@@YAXW4Fl_Color@@@Z 00449290 f   fltk:fl_symbols.obj
 0001:000482c0       ?draw_arrow02@@YAXW4Fl_Color@@@Z 004492c0 f   fltk:fl_symbols.obj
 0001:000482f0       ?draw_arrow03@@YAXW4Fl_Color@@@Z 004492f0 f   fltk:fl_symbols.obj
 0001:00048320       ?draw_0arrowbar@@YAXW4Fl_Color@@@Z 00449320 f   fltk:fl_symbols.obj
 0001:00048350       ?draw_0arrowbox@@YAXW4Fl_Color@@@Z 00449350 f   fltk:fl_symbols.obj
 0001:00048380       ?draw_0bararrow@@YAXW4Fl_Color@@@Z 00449380 f   fltk:fl_symbols.obj
 0001:000483b0       ?draw_doublearrow@@YAXW4Fl_Color@@@Z 004493b0 f   fltk:fl_symbols.obj
 0001:00048640       ?draw_arrow@@YAXW4Fl_Color@@@Z 00449640 f   fltk:fl_symbols.obj
 0001:000487a0       ?draw_square@@YAXW4Fl_Color@@@Z 004497a0 f   fltk:fl_symbols.obj
 0001:000487e0       ?draw_circle@@YAXW4Fl_Color@@@Z 004497e0 f   fltk:fl_symbols.obj
 0001:00048860       ?draw_line@@YAXW4Fl_Color@@@Z 00449860 f   fltk:fl_symbols.obj
 0001:000488b0       ?draw_plus@@YAXW4Fl_Color@@@Z 004498b0 f   fltk:fl_symbols.obj
 0001:00048b40       ?draw_uparrow@@YAXW4Fl_Color@@@Z 00449b40 f   fltk:fl_symbols.obj
 0001:00048c00       ?draw_downarrow@@YAXW4Fl_Color@@@Z 00449c00 f   fltk:fl_symbols.obj
 0001:00048cc0       ?draw_menu@@YAXW4Fl_Color@@@Z 00449cc0 f   fltk:fl_symbols.obj
 0001:00048d40       ?draw_filenew@@YAXW4Fl_Color@@@Z 00449d40 f   fltk:fl_symbols.obj
 0001:00048fb0       ?draw_fileopen@@YAXW4Fl_Color@@@Z 00449fb0 f   fltk:fl_symbols.obj
 0001:000492e0       ?draw_filesave@@YAXW4Fl_Color@@@Z 0044a2e0 f   fltk:fl_symbols.obj
 0001:00049680       ?draw_filesaveas@@YAXW4Fl_Color@@@Z 0044a680 f   fltk:fl_symbols.obj
 0001:00049870       ?draw_fileprint@@YAXW4Fl_Color@@@Z 0044a870 f   fltk:fl_symbols.obj
 0001:00049c10       ?draw_refresh@@YAXW4Fl_Color@@@Z 0044ac10 f   fltk:fl_symbols.obj
 0001:00049c60       ?draw_round_arrow@@YAXW4Fl_Color@@M@Z 0044ac60 f   fltk:fl_symbols.obj
 0001:00049e40       ?draw_reload@@YAXW4Fl_Color@@@Z 0044ae40 f   fltk:fl_symbols.obj
 0001:00049e80       ?draw_undo@@YAXW4Fl_Color@@@Z 0044ae80 f   fltk:fl_symbols.obj
 0001:00049f00       ?draw_redo@@YAXW4Fl_Color@@@Z 0044af00 f   fltk:fl_symbols.obj
 0001:0004a278       $LN58                      0044b278     fltk:filename_match.obj
 0001:0004a29c       $LN56                      0044b29c     fltk:filename_match.obj
 0001:0004a31c       $LN59                      0044b31c     fltk:filename_match.obj
 0001:0004a334       $LN57                      0044b334     fltk:filename_match.obj
 0001:0004a4e0       ?innards@@YAXPBEHHHHHHHP6AXPAXHHHPAE@Z1@Z 0044b4e0 f   fltk:fl_draw_image.obj
 0001:0004aae4       $LN58                      0044bae4     fltk:fl_draw_image.obj
 0001:0004ab00       ?dither@@YAXPAEPBEHH@Z     0044bb00 f   fltk:fl_draw_image.obj
 0001:0004ace0       ?monodither@@YAXPAEPBEHH@Z 0044bce0 f   fltk:fl_draw_image.obj
 0001:0004ade0       ?fl_abs@@YAHH@Z            0044bde0 f   fltk:fl_draw_image.obj
 0001:0004b530       ?fl_transformed_vertex@@YAXHH@Z 0044c530 f   fltk:fl_vertex.obj
 0001:0004b720       ?fixloop@@YAXXZ            0044c720 f   fltk:fl_vertex.obj
 0001:0004bfdc       $LN38                      0044cfdc     fltk:Fl_XPM_Image.obj
 0001:0004bfec       $LN36                      0044cfec     fltk:Fl_XPM_Image.obj
 0001:0004c070       ?hexdigit@@YAHH@Z          0044d070 f   fltk:Fl_XPM_Image.obj
 0001:0004cf10       ?cb1@@YAXPAXHHHPAE@Z       0044df10 f   fltk:fl_draw_pixmap.obj
 0001:0004cf80       ?cb2@@YAXPAXHHHPAE@Z       0044df80 f   fltk:fl_draw_pixmap.obj
 0001:0004e470       ?add_context@@YAXPAUHGLRC__@@@Z 0044f470 f   fltkgl:Fl_Gl_Choice.obj
 0001:0004e5a0       ?del_context@@YAXPAUHGLRC__@@@Z 0044f5a0 f   fltkgl:Fl_Gl_Choice.obj
 0001:0004e9f0       ?gl_draw_invert@@YAXPBDHHH@Z 0044f9f0 f   fltkgl:gl_draw.obj
 0001:0004ec0d       ??__E_Fac_tidy_reg@std@@YAXXZ 0044fc0d f   msvcprt:locale0_implib.obj
 0001:0005039c       __catch$?loadScene@RayTracer@@QAE_NPAD@Z$0 0045139c f   RayTracer.obj
 0001:00050415       __catch$?loadScene@RayTracer@@QAE_NPAD@Z$1 00451415 f   RayTracer.obj
 0001:0005046a       __catch$?loadScene@RayTracer@@QAE_NPAD@Z$2 0045146a f   RayTracer.obj
 0001:00051a65       __catch$??$?6U?$char_traits@D@std@@@std@@YAAAV?$basic_ostream@DU?$char_traits@D@std@@@0@AAV10@PBD@Z$0 00452a65 f i CommandLineUI.obj
 0001:00051c77       __catch$??$_Insert_string@DU?$char_traits@D@std@@I@std@@YAAAV?$basic_ostream@DU?$char_traits@D@std@@@0@AAV10@QBDI@Z$0 00452c77 f i CommandLineUI.obj
 0001:00051e60       $LN23                      00452e60     CommandLineUI.obj
 0001:00051e74       $LN19                      00452e74     CommandLineUI.obj
 0001:00052cec       $LN181                     00453cec     debuggingView.obj
 0001:00053b28       $LN120                     00454b28     debuggingView.obj
 0001:00053c5c       $LN21                      00454c5c     debuggingView.obj
 0001:00054b8c       __catch$??$_Insert_nohint@AAU?$pair@$$CBHI@std@@PAU?$_Tree_node@U?$pair@$$CBHI@std@@PAX@2@@?$_Tree@V?$_Tmap_traits@HIU?$less@H@std@@V?$allocator@U?$pair@$$CBHI@std@@@2@$0A@@std@@@std@@IAE?AU?$pair@V?$_Tree_iterator@V?$_Tree_val@U?$_Tree_simple_types@U?$pair@$$CBHI@std@@@std@@@std@@@std@@_N@1@_NAAU?$pair@$$CBHI@1@PAU?$_Tree_node@U?$pair@$$CBHI@std@@PAX@1@@Z$0 00455b8c f i glObjects.obj
 0001:00058704       __catch$??$?6U?$char_traits@D@std@@@std@@YAAAV?$basic_ostream@DU?$char_traits@D@std@@@0@AAV10@D@Z$0 00459704 f i buffer.obj
 0001:00058895       __catch$??$getline@DU?$char_traits@D@std@@V?$allocator@D@2@@std@@YAAAV?$basic_istream@DU?$char_traits@D@std@@@0@$$QAV10@AAV?$basic_string@DU?$char_traits@D@std@@V?$allocator@D@2@@0@D@Z$0 00459895 f i buffer.obj
 0001:0005b35c       $LN431                     0045c35c     imageio.obj
 0001:0005b370       $LN414                     0045c370     imageio.obj
 0001:0005d2a2       __catch$??0CImgArgumentException@cimg_library@@QAA@PBDZZ$0 0045e2a2 f i imageio.obj
 0001:0005d392       __catch$??0CImgIOException@cimg_library@@QAA@PBDZZ$0 0045e392 f i imageio.obj
